 LeapMotionApp

 Timestamp is 5279d1ef (Wed Nov 06 00:21:51 2013)

 Preferred load address is 00400000

 Start         Length     Name                   Class
 0001:00000000 000a0262H .text                   CODE
 0001:000a0270 00005c36H .text$x                 CODE
 0001:000a5eb0 00000d91H .text$yc                CODE
 0001:000a6c50 00000597H .text$yd                CODE
 0002:00000000 000003a0H .idata$5                DATA
 0002:000003a0 00000004H .CRT$XCA                DATA
 0002:000003a4 00000034H .CRT$XCC                DATA
 0002:000003d8 00000008H .CRT$XCL                DATA
 0002:000003e0 00000220H .CRT$XCU                DATA
 0002:00000600 00000004H .CRT$XCZ                DATA
 0002:00000604 00000004H .CRT$XIA                DATA
 0002:00000608 00000014H .CRT$XIC                DATA
 0002:0000061c 00000004H .CRT$XIU                DATA
 0002:00000620 00000004H .CRT$XIY                DATA
 0002:00000624 00000004H .CRT$XIZ                DATA
 0002:00000628 00000004H .CRT$XLA                DATA
 0002:0000062c 00000004H .CRT$XLC                DATA
 0002:00000630 00000004H .CRT$XLZ                DATA
 0002:00000634 00000004H .CRT$XPA                DATA
 0002:00000638 00000004H .CRT$XPB                DATA
 0002:0000063c 00000008H .CRT$XPX                DATA
 0002:00000644 00000004H .CRT$XPXA               DATA
 0002:00000648 00000004H .CRT$XPZ                DATA
 0002:0000064c 00000004H .CRT$XTA                DATA
 0002:00000650 00000004H .CRT$XTU                DATA
 0002:00000654 00000004H .CRT$XTZ                DATA
 0002:00000660 00027748H .rdata                  DATA
 0002:00027da8 00000018H .rdata$T                DATA
 0002:00027dc0 00004fc8H .rdata$r                DATA
 0002:0002cd90 00000658H .rdata$sxdata           DATA
 0002:0002d3e8 00000004H .rtc$IAA                DATA
 0002:0002d3ec 00000004H .rtc$IZZ                DATA
 0002:0002d3f0 00000004H .rtc$TAA                DATA
 0002:0002d3f4 00000004H .rtc$TZZ                DATA
 0002:0002d3f8 0000805cH .xdata$x                DATA
 0002:00035454 000000c8H .idata$2                DATA
 0002:0003551c 00000014H .idata$3                DATA
 0002:00035530 000003a0H .idata$4                DATA
 0002:000358d0 00001128H .idata$6                DATA
 0002:000369f8 00000000H .edata                  DATA
 0003:00000000 000121d4H .data                   DATA
 0003:000121e0 00005144H .bss                    DATA
 0004:00000000 00000001H .tls                    DATA
 0004:00000001 00000001H .tls$ZZZ                DATA
 0005:00000000 000003dcH .rsrc$01                DATA
 0005:000003e0 00096398H .rsrc$02                DATA

  Address         Publics by Value              Rva+Base       Lib:Object

 0000:00000000       __except_list              00000000     <absolute>
 0000:00000196       ___safe_se_handler_count   00000196     <absolute>
 0000:00000000       ___ImageBase               00400000     <linker-defined>
 0001:00000000       ?finishToggleFullScreen@Renderer@app@cinder@@UAEXXZ 00401000 f i cinder:Renderer.obj
 0001:00000000       ?finishDraw@Renderer@app@cinder@@UAEXXZ 00401000 f i cinder:Renderer.obj
 0001:00000000       ?setup@App@app@cinder@@UAEXXZ 00401000 f i cinder:App.obj
 0001:00000000       ??1?$service_id@Vwin_iocp_io_service@detail@asio@boost@@@detail@asio@boost@@QAE@XZ 00401000 f i cinder:App.obj
 0001:00000000       ?prepareToggleFullScreen@Renderer@app@cinder@@UAEXXZ 00401000 f i cinder:Renderer.obj
 0001:00000000       ?_Add_vtordisp1@?$basic_ios@DU?$char_traits@D@std@@@std@@UAEXXZ 00401000 f i cinder:App.obj
 0001:00000000       ?cleanupLaunch@App@app@cinder@@KAXXZ 00401000 f i cinder:App.obj
 0001:00000000       ?_Add_vtordisp2@?$basic_ostream@DU?$char_traits@D@std@@@std@@UAEXXZ 00401000 f i cinder:App.obj
 0001:00000000       ?on_process_enter@boost@@YAXXZ 00401000 f i libboost_thread-vc110-mt-s-1_53:thread.obj
 0001:00000000       ?kill@Renderer@app@cinder@@UAEXXZ 00401000 f i cinder:Renderer.obj
 0001:00000000       ?makeCurrentContext@Renderer@app@cinder@@UAEXXZ 00401000 f i cinder:Renderer.obj
 0001:00000000       ?_Unlock@?$basic_streambuf@DU?$char_traits@D@std@@@std@@UAEXXZ 00401000 f i cinder:App.obj
 0001:00000000       ?shutdown@App@app@cinder@@UAEXXZ 00401000 f i LeapMotionApp.obj
 0001:00000000       ?draw@App@app@cinder@@UAEXXZ 00401000 f i cinder:App.obj
 0001:00000000       ?_Lock@?$basic_streambuf@DU?$char_traits@D@std@@@std@@UAEXXZ 00401000 f i cinder:App.obj
 0001:00000000       ?sp_enable_shared_from_this@detail@boost@@YAXZZ 00401000 f i cinder:Window.obj
 0001:00000000       ?prepareLaunch@App@app@cinder@@KAXXZ 00401000 f i cinder:App.obj
 0001:00000000       ?_Add_vtordisp2@?$basic_ios@DU?$char_traits@D@std@@@std@@UAEXXZ 00401000 f i cinder:App.obj
 0001:00000000       ?finalize@ImageTarget@cinder@@UAEXXZ 00401000 f i cinder:Texture.obj
 0001:00000000       ??3@YAXPAX0@Z              00401000 f i LeapMotionApp.obj
 0001:00000000       ?createBuffer@DataSourceBuffer@cinder@@MAEXXZ 00401000 f i cinder:DataSource.obj
 0001:00000000       ?loopStart@TimelineItem@cinder@@UAEXXZ 00401000 f i cinder:Timeline.obj
 0001:00000000       ?run@externally_launched_thread@?A0x6231255e@boost@@UAEXXZ 00401000 f i libboost_thread-vc110-mt-s-1_53:thread.obj
 0001:00000000       ?startDraw@Renderer@app@cinder@@UAEXXZ 00401000 f i cinder:Renderer.obj
 0001:00000000       ?_Destroy@?$_Ref_count_del@V?$basic_ostream@DU?$char_traits@D@std@@@std@@V<lambda_69588d13dcacf0fdf4c116f96accf98f>@@@std@@EAEXXZ 00401000 f i cinder:AppBasic.obj
 0001:00000000       ?update@App@app@cinder@@UAEXXZ 00401000 f i cinder:App.obj
 0001:00000000       ?resize@App@app@cinder@@UAEXXZ 00401000 f i cinder:App.obj
 0001:00000000       ?defaultResize@Renderer@app@cinder@@UAEXXZ 00401000 f i cinder:Renderer.obj
 0001:00000000       ??1?$service_id@Vstrand_service@detail@asio@boost@@@detail@asio@boost@@QAE@XZ 00401000 f i cinder:App.obj
 0001:00000000       ??1?$service_id@Vselect_reactor@detail@asio@boost@@@detail@asio@boost@@QAE@XZ 00401000 f i cinder:App.obj
 0001:00000000       ?tss_cleanup_implemented@boost@@YAXXZ 00401000 f i libboost_thread-vc110-mt-s-1_53:tss_pe.obj
 0001:00000010       ?copy@?$char_traits@_W@std@@SAPA_WPA_WPB_WI@Z 00401010 f i LeapMotionApp.obj
 0001:00000030       ??1_Ref_count_base@std@@UAE@XZ 00401030 f i LeapMotionApp.obj
 0001:00000040       ?_Decref@_Ref_count_base@std@@QAEXXZ 00401040 f i LeapMotionApp.obj
 0001:00000070       ?get_deleter@?$sp_counted_impl_p@V?$signal1_impl@XAAVKeyEvent@app@cinder@@U?$EventCombiner@VKeyEvent@app@cinder@@@23@HU?$less@H@std@@V?$function@$$A6AXAAVKeyEvent@app@cinder@@@Z@boost@@V?$function@$$A6AXABVconnection@signals2@boost@@AAVKeyEvent@app@cinder@@@Z@8@Vmutex@signals2@8@@detail@signals2@boost@@@detail@boost@@UAEPAXABVtype_info@@@Z 00401070 f i cinder:AppImplMsw.obj
 0001:00000070       ?get_deleter@?$sp_counted_impl_p@V?$signal1_impl@XAAVTouchEvent@app@cinder@@U?$EventCombiner@VTouchEvent@app@cinder@@@23@HU?$less@H@std@@V?$function@$$A6AXAAVTouchEvent@app@cinder@@@Z@boost@@V?$function@$$A6AXABVconnection@signals2@boost@@AAVTouchEvent@app@cinder@@@Z@8@Vmutex@signals2@8@@detail@signals2@boost@@@detail@boost@@UAEPAXABVtype_info@@@Z 00401070 f i cinder:AppImplMsw.obj
 0001:00000070       ?get_deleter@?$sp_counted_impl_p@V?$grouped_list@HU?$less@H@std@@V?$shared_ptr@V?$connection_body@U?$pair@W4slot_meta_group@detail@signals2@boost@@V?$optional@H@4@@std@@V?$slot1@XAAVTouchEvent@app@cinder@@V?$function@$$A6AXAAVTouchEvent@app@cinder@@@Z@boost@@@signals2@boost@@Vmutex@45@@detail@signals2@boost@@@boost@@@detail@signals2@boost@@@detail@boost@@UAEPAXABVtype_info@@@Z 00401070 f i cinder:Window.obj
 0001:00000070       ?get_deleter@?$sp_counted_impl_p@U?$EventCombiner@VMouseEvent@app@cinder@@@app@cinder@@@detail@boost@@UAEPAXABVtype_info@@@Z 00401070 f i cinder:Window.obj
 0001:00000070       ?get_deleter@?$sp_counted_impl_p@UBooleanAndEventCombiner@app@cinder@@@detail@boost@@UAEPAXABVtype_info@@@Z 00401070 f i cinder:AppBasic.obj
 0001:00000070       ?get_deleter@?$sp_counted_impl_p@V?$grouped_list@HU?$less@H@std@@V?$shared_ptr@V?$connection_body@U?$pair@W4slot_meta_group@detail@signals2@boost@@V?$optional@H@4@@std@@V?$slot0@XV?$function@$$A6AXXZ@boost@@@signals2@boost@@Vmutex@45@@detail@signals2@boost@@@boost@@@detail@signals2@boost@@@detail@boost@@UAEPAXABVtype_info@@@Z 00401070 f i cinder:Window.obj
 0001:00000070       ?get_deleter@?$sp_counted_impl_p@V?$grouped_list@HU?$less@H@std@@V?$shared_ptr@V?$connection_body@U?$pair@W4slot_meta_group@detail@signals2@boost@@V?$optional@H@4@@std@@V?$slot1@XAAVKeyEvent@app@cinder@@V?$function@$$A6AXAAVKeyEvent@app@cinder@@@Z@boost@@@signals2@boost@@Vmutex@45@@detail@signals2@boost@@@boost@@@detail@signals2@boost@@@detail@boost@@UAEPAXABVtype_info@@@Z 00401070 f i cinder:Window.obj
 0001:00000070       ?get_deleter@?$sp_counted_impl_p@Vinvocation_state@?$signal1_impl@XAAVMouseEvent@app@cinder@@U?$EventCombiner@VMouseEvent@app@cinder@@@23@HU?$less@H@std@@V?$function@$$A6AXAAVMouseEvent@app@cinder@@@Z@boost@@V?$function@$$A6AXABVconnection@signals2@boost@@AAVMouseEvent@app@cinder@@@Z@8@Vmutex@signals2@8@@detail@signals2@boost@@@detail@boost@@UAEPAXABVtype_info@@@Z 00401070 f i cinder:Window.obj
 0001:00000070       ?get_deleter@?$sp_counted_impl_p@V?$clone_impl@Ubad_alloc_@exception_detail@boost@@@exception_detail@boost@@@detail@boost@@UAEPAXABVtype_info@@@Z 00401070 f i libboost_thread-vc110-mt-s-1_53:thread.obj
 0001:00000070       ?get_deleter@?$sp_counted_impl_p@Vinvocation_state@?$signal0_impl@_NUBooleanAndEventCombiner@app@cinder@@HU?$less@H@std@@V?$function@$$A6A_NXZ@boost@@V?$function@$$A6A_NABVconnection@signals2@boost@@@Z@7@Vmutex@signals2@7@@detail@signals2@boost@@@detail@boost@@UAEPAXABVtype_info@@@Z 00401070 f i cinder:AppBasic.obj
 0001:00000070       ?get_deleter@?$sp_counted_impl_p@Vinvocation_state@?$signal1_impl@XAAVTouchEvent@app@cinder@@U?$EventCombiner@VTouchEvent@app@cinder@@@23@HU?$less@H@std@@V?$function@$$A6AXAAVTouchEvent@app@cinder@@@Z@boost@@V?$function@$$A6AXABVconnection@signals2@boost@@AAVTouchEvent@app@cinder@@@Z@8@Vmutex@signals2@8@@detail@signals2@boost@@@detail@boost@@UAEPAXABVtype_info@@@Z 00401070 f i cinder:Window.obj
 0001:00000070       ?get_deleter@?$sp_counted_impl_p@V?$signal0_impl@_NUBooleanAndEventCombiner@app@cinder@@HU?$less@H@std@@V?$function@$$A6A_NXZ@boost@@V?$function@$$A6A_NABVconnection@signals2@boost@@@Z@7@Vmutex@signals2@7@@detail@signals2@boost@@@detail@boost@@UAEPAXABVtype_info@@@Z 00401070 f i cinder:AppBasic.obj
 0001:00000070       ?get_deleter@?$sp_counted_impl_p@Vinvocation_state@?$signal0_impl@XV?$optional_last_value@X@signals2@boost@@HU?$less@H@std@@V?$function@$$A6AXXZ@3@V?$function@$$A6AXABVconnection@signals2@boost@@@Z@3@Vmutex@23@@detail@signals2@boost@@@detail@boost@@UAEPAXABVtype_info@@@Z 00401070 f i cinder:Window.obj
 0001:00000070       ?get_deleter@?$sp_counted_impl_p@U?$EventCombiner@VFileDropEvent@app@cinder@@@app@cinder@@@detail@boost@@UAEPAXABVtype_info@@@Z 00401070 f i cinder:Window.obj
 0001:00000070       ?_Get_deleter@_Ref_count_base@std@@UBEPAXABVtype_info@@@Z 00401070 f i LeapMotionApp.obj
 0001:00000070       ?get_deleter@?$sp_counted_impl_p@V?$clone_impl@Ubad_exception_@exception_detail@boost@@@exception_detail@boost@@@detail@boost@@UAEPAXABVtype_info@@@Z 00401070 f i libboost_thread-vc110-mt-s-1_53:thread.obj
 0001:00000070       ?get_deleter@?$sp_counted_impl_p@Vinvocation_state@?$signal1_impl@XAAVFileDropEvent@app@cinder@@U?$EventCombiner@VFileDropEvent@app@cinder@@@23@HU?$less@H@std@@V?$function@$$A6AXAAVFileDropEvent@app@cinder@@@Z@boost@@V?$function@$$A6AXABVconnection@signals2@boost@@AAVFileDropEvent@app@cinder@@@Z@8@Vmutex@signals2@8@@detail@signals2@boost@@@detail@boost@@UAEPAXABVtype_info@@@Z 00401070 f i cinder:Window.obj
 0001:00000070       ?get_deleter@?$sp_counted_impl_p@U?$EventCombiner@VTouchEvent@app@cinder@@@app@cinder@@@detail@boost@@UAEPAXABVtype_info@@@Z 00401070 f i cinder:Window.obj
 0001:00000070       ?get_deleter@?$sp_counted_impl_p@V?$grouped_list@HU?$less@H@std@@V?$shared_ptr@V?$connection_body@U?$pair@W4slot_meta_group@detail@signals2@boost@@V?$optional@H@4@@std@@V?$slot0@_NV?$function@$$A6A_NXZ@boost@@@signals2@boost@@Vmutex@45@@detail@signals2@boost@@@boost@@@detail@signals2@boost@@@detail@boost@@UAEPAXABVtype_info@@@Z 00401070 f i cinder:AppBasic.obj
 0001:00000070       ?get_deleter@?$sp_counted_impl_p@V?$signal1_impl@XAAVMouseEvent@app@cinder@@U?$EventCombiner@VMouseEvent@app@cinder@@@23@HU?$less@H@std@@V?$function@$$A6AXAAVMouseEvent@app@cinder@@@Z@boost@@V?$function@$$A6AXABVconnection@signals2@boost@@AAVMouseEvent@app@cinder@@@Z@8@Vmutex@signals2@8@@detail@signals2@boost@@@detail@boost@@UAEPAXABVtype_info@@@Z 00401070 f i cinder:AppImplMsw.obj
 0001:00000070       ?get_deleter@?$sp_counted_impl_p@V?$optional_last_value@X@signals2@boost@@@detail@boost@@UAEPAXABVtype_info@@@Z 00401070 f i cinder:App.obj
 0001:00000070       ?get_deleter@?$sp_counted_impl_p@Vinvocation_state@?$signal1_impl@XAAVKeyEvent@app@cinder@@U?$EventCombiner@VKeyEvent@app@cinder@@@23@HU?$less@H@std@@V?$function@$$A6AXAAVKeyEvent@app@cinder@@@Z@boost@@V?$function@$$A6AXABVconnection@signals2@boost@@AAVKeyEvent@app@cinder@@@Z@8@Vmutex@signals2@8@@detail@signals2@boost@@@detail@boost@@UAEPAXABVtype_info@@@Z 00401070 f i cinder:Window.obj
 0001:00000070       ?get_deleter@?$sp_counted_impl_p@V?$signal1_impl@XAAVFileDropEvent@app@cinder@@U?$EventCombiner@VFileDropEvent@app@cinder@@@23@HU?$less@H@std@@V?$function@$$A6AXAAVFileDropEvent@app@cinder@@@Z@boost@@V?$function@$$A6AXABVconnection@signals2@boost@@AAVFileDropEvent@app@cinder@@@Z@8@Vmutex@signals2@8@@detail@signals2@boost@@@detail@boost@@UAEPAXABVtype_info@@@Z 00401070 f i cinder:AppImplMsw.obj
 0001:00000070       ?get_deleter@?$sp_counted_impl_p@U?$EventCombiner@VKeyEvent@app@cinder@@@app@cinder@@@detail@boost@@UAEPAXABVtype_info@@@Z 00401070 f i cinder:Window.obj
 0001:00000070       ?get_deleter@?$sp_counted_impl_p@V?$signal0_impl@XV?$optional_last_value@X@signals2@boost@@HU?$less@H@std@@V?$function@$$A6AXXZ@3@V?$function@$$A6AXABVconnection@signals2@boost@@@Z@3@Vmutex@23@@detail@signals2@boost@@@detail@boost@@UAEPAXABVtype_info@@@Z 00401070 f i cinder:App.obj
 0001:00000070       ?get_deleter@?$sp_counted_impl_p@V?$grouped_list@HU?$less@H@std@@V?$shared_ptr@V?$connection_body@U?$pair@W4slot_meta_group@detail@signals2@boost@@V?$optional@H@4@@std@@V?$slot1@XAAVFileDropEvent@app@cinder@@V?$function@$$A6AXAAVFileDropEvent@app@cinder@@@Z@boost@@@signals2@boost@@Vmutex@45@@detail@signals2@boost@@@boost@@@detail@signals2@boost@@@detail@boost@@UAEPAXABVtype_info@@@Z 00401070 f i cinder:Window.obj
 0001:00000070       ?get_deleter@?$sp_counted_impl_p@V?$grouped_list@HU?$less@H@std@@V?$shared_ptr@V?$connection_body@U?$pair@W4slot_meta_group@detail@signals2@boost@@V?$optional@H@4@@std@@V?$slot1@XAAVMouseEvent@app@cinder@@V?$function@$$A6AXAAVMouseEvent@app@cinder@@@Z@boost@@@signals2@boost@@Vmutex@45@@detail@signals2@boost@@@boost@@@detail@signals2@boost@@@detail@boost@@UAEPAXABVtype_info@@@Z 00401070 f i cinder:Window.obj
 0001:00000080       ??_E?$_Ref_count@VDisplay@cinder@@@std@@UAEPAXI@Z 00401080 f i cinder:Display.obj
 0001:00000080       ??_G?$_Ref_count_del@UIWICImagingFactory@@P6AXPAX@Z@std@@UAEPAXI@Z 00401080 f i cinder:ImageSourceFileWic.obj
 0001:00000080       ??_E?$_Ref_count_del@UIWICImagingFactory@@P6AXPAX@Z@std@@UAEPAXI@Z 00401080 f i cinder:ImageSourceFileWic.obj
 0001:00000080       ??_E?$_Ref_count@V?$ImageTargetGLTexture@M@gl@cinder@@@std@@UAEPAXI@Z 00401080 f i cinder:Texture.obj
 0001:00000080       ??_G?$_Ref_count_del@UIWICBitmapFrameDecode@@P6AXPAX@Z@std@@UAEPAXI@Z 00401080 f i cinder:ImageSourceFileWic.obj
 0001:00000080       ??_E?$_Ref_count@VImageSourceFileWic@cinder@@@std@@UAEPAXI@Z 00401080 f i cinder:ImageSourceFileWic.obj
 0001:00000080       ??_E?$_Ref_count_del@UIWICBitmapFrameDecode@@P6AXPAX@Z@std@@UAEPAXI@Z 00401080 f i cinder:ImageSourceFileWic.obj
 0001:00000080       ??_E?$_Ref_count@Vio_service@asio@boost@@@std@@UAEPAXI@Z 00401080 f i cinder:App.obj
 0001:00000080       ??_G?$_Ref_count@V?$ImageTargetGLTexture@G@gl@cinder@@@std@@UAEPAXI@Z 00401080 f i cinder:Texture.obj
 0001:00000080       ??_E?$_Ref_count@VRendererGl@app@cinder@@@std@@UAEPAXI@Z 00401080 f i * CIL library *:* CIL module *
 0001:00000080       ??_E?$_Ref_count@V?$ImageTargetGLTexture@G@gl@cinder@@@std@@UAEPAXI@Z 00401080 f i cinder:Texture.obj
 0001:00000080       ??_E?$_Ref_count_del@UtagTOUCHINPUT@@U?$checked_array_deleter@UtagTOUCHINPUT@@@boost@@@std@@UAEPAXI@Z 00401080 f i cinder:AppImplMsw.obj
 0001:00000080       ??_G?$_Ref_count_del@UtagTOUCHINPUT@@U?$checked_array_deleter@UtagTOUCHINPUT@@@boost@@@std@@UAEPAXI@Z 00401080 f i cinder:AppImplMsw.obj
 0001:00000080       ??_E?$_Ref_count@VImageTargetFileWic@cinder@@@std@@UAEPAXI@Z 00401080 f i cinder:ImageTargetFileWic.obj
 0001:00000080       ??_E?$_Ref_count@VWindow@app@cinder@@@std@@UAEPAXI@Z 00401080 f i cinder:AppImplMsw.obj
 0001:00000080       ??_E?$_Ref_count_del@UIWICFormatConverter@@P6AXPAX@Z@std@@UAEPAXI@Z 00401080 f i cinder:ImageSourceFileWic.obj
 0001:00000080       ??_G?$_Ref_count@VDisplay@cinder@@@std@@UAEPAXI@Z 00401080 f i cinder:Display.obj
 0001:00000080       ??_E?$_Ref_count_del@EP6AXPAE@Z@std@@UAEPAXI@Z 00401080 f i cinder:Texture.obj
 0001:00000080       ??_G?$_Ref_count_del@UIWICStream@@P6AXPAX@Z@std@@UAEPAXI@Z 00401080 f i cinder:ImageSourceFileWic.obj
 0001:00000080       ??_G?$_Ref_count@VImageSourceFileWic@cinder@@@std@@UAEPAXI@Z 00401080 f i cinder:ImageSourceFileWic.obj
 0001:00000080       ??_E?$_Ref_count@VTimeline@cinder@@@std@@UAEPAXI@Z 00401080 f i cinder:App.obj
 0001:00000080       ??_G?$_Ref_count@VIStreamMem@cinder@@@std@@UAEPAXI@Z 00401080 f i cinder:Stream.obj
 0001:00000080       ??_G?$_Ref_count@UObj@Texture@gl@cinder@@@std@@UAEPAXI@Z 00401080 f i cinder:Texture.obj
 0001:00000080       ??_E?$_Ref_count_del@VComOStream@msw@cinder@@P6AXPAX@Z@std@@UAEPAXI@Z 00401080 f i cinder:ImageTargetFileWic.obj
 0001:00000080       ??_G?$_Ref_count@VDataSourceBuffer@cinder@@@std@@UAEPAXI@Z 00401080 f i cinder:DataSource.obj
 0001:00000080       ??_G?$_Ref_count@V?$map@V?$basic_string@DU?$char_traits@D@std@@V?$allocator@D@2@@std@@PBU_GUID@@U?$less@V?$basic_string@DU?$char_traits@D@std@@V?$allocator@D@2@@std@@@2@V?$allocator@U?$pair@$$CBV?$basic_string@DU?$char_traits@D@std@@V?$allocator@D@2@@std@@PBU_GUID@@@std@@@2@@std@@@std@@UAEPAXI@Z 00401080 f i cinder:ImageTargetFileWic.obj
 0001:00000080       ??_E?$_Ref_count@V?$basic_dostream@DU?$char_traits@D@std@@@msw@cinder@@@std@@UAEPAXI@Z 00401080 f i cinder:App.obj
 0001:00000080       ??_G?$_Ref_count@Vwork@io_service@asio@boost@@@std@@UAEPAXI@Z 00401080 f i cinder:App.obj
 0001:00000080       ??_G?$_Ref_count_obj@VTexture@gl@cinder@@@std@@UAEPAXI@Z 00401080 f i LeapMotionApp.obj
 0001:00000080       ??_G_Ref_count_base@std@@UAEPAXI@Z 00401080 f i LeapMotionApp.obj
 0001:00000080       ??_G?$_Ref_count@VImageTargetFileWic@cinder@@@std@@UAEPAXI@Z 00401080 f i cinder:ImageTargetFileWic.obj
 0001:00000080       ??_E?$_Ref_count_del@V?$basic_ostream@DU?$char_traits@D@std@@@std@@V<lambda_69588d13dcacf0fdf4c116f96accf98f>@@@std@@UAEPAXI@Z 00401080 f i cinder:AppBasic.obj
 0001:00000080       ??_G?$_Ref_count_del@UIWICBitmapDecoder@@P6AXPAX@Z@std@@UAEPAXI@Z 00401080 f i cinder:ImageSourceFileWic.obj
 0001:00000080       ??_E?$_Ref_count_del@UIWICStream@@P6AXPAX@Z@std@@UAEPAXI@Z 00401080 f i cinder:ImageSourceFileWic.obj
 0001:00000080       ??_G?$_Ref_count@Vio_service@asio@boost@@@std@@UAEPAXI@Z 00401080 f i cinder:App.obj
 0001:00000080       ??_G?$_Ref_count@VRendererGl@app@cinder@@@std@@UAEPAXI@Z 00401080 f i LeapMotionApp.obj
 0001:00000080       ??_G?$_Ref_count@V?$ImageTargetGLTexture@E@gl@cinder@@@std@@UAEPAXI@Z 00401080 f i cinder:Texture.obj
 0001:00000080       ??_E?$_Ref_count@UObj@Buffer@cinder@@@std@@UAEPAXI@Z 00401080 f i cinder:Buffer.obj
 0001:00000080       ??_G?$_Ref_count@UObj@?$SurfaceT@E@cinder@@@std@@UAEPAXI@Z 00401080 f i cinder:Surface.obj
 0001:00000080       ??_E?$_Ref_count@UInst@ImageIoRegistrar@cinder@@@std@@UAEPAXI@Z 00401080 f i cinder:ImageIo.obj
 0001:00000080       ??_G?$_Ref_count@V?$basic_dostream@DU?$char_traits@D@std@@@msw@cinder@@@std@@UAEPAXI@Z 00401080 f i cinder:App.obj
 0001:00000080       ??_E?$_Ref_count@UObj@?$SurfaceT@E@cinder@@@std@@UAEPAXI@Z 00401080 f i cinder:Surface.obj
 0001:00000080       ??_G?$_Ref_count_del@UIWICBitmapEncoder@@P6AXPAX@Z@std@@UAEPAXI@Z 00401080 f i cinder:ImageTargetFileWic.obj
 0001:00000080       ??_G?$_Ref_count_del@UIWICBitmapFrameEncode@@P6AXPAX@Z@std@@UAEPAXI@Z 00401080 f i cinder:ImageTargetFileWic.obj
 0001:00000080       ??_G?$_Ref_count@UObj@Vbo@gl@cinder@@@std@@UAEPAXI@Z 00401080 f i cinder:VBO.obj
 0001:00000080       ??_G?$_Ref_count_del@EP6AXPAE@Z@std@@UAEPAXI@Z 00401080 f i cinder:Texture.obj
 0001:00000080       ??_E?$_Ref_count@UObj@VertexIter@VboMesh@gl@cinder@@@std@@UAEPAXI@Z 00401080 f i cinder:VBO.obj
 0001:00000080       ??_E?$_Ref_count@Vwork@io_service@asio@boost@@@std@@UAEPAXI@Z 00401080 f i cinder:App.obj
 0001:00000080       ??_E_Ref_count_base@std@@UAEPAXI@Z 00401080 f i * CIL library *:* CIL module *
 0001:00000080       ??_E?$_Ref_count_del@UIWICBitmapEncoder@@P6AXPAX@Z@std@@UAEPAXI@Z 00401080 f i cinder:ImageTargetFileWic.obj
 0001:00000080       ??_G?$_Ref_count@UInst@ImageIoRegistrar@cinder@@@std@@UAEPAXI@Z 00401080 f i cinder:ImageIo.obj
 0001:00000080       ??_E?$_Ref_count@VIStreamMem@cinder@@@std@@UAEPAXI@Z 00401080 f i cinder:Stream.obj
 0001:00000080       ??_E?$_Ref_count@V?$map@V?$basic_string@DU?$char_traits@D@std@@V?$allocator@D@2@@std@@PBU_GUID@@U?$less@V?$basic_string@DU?$char_traits@D@std@@V?$allocator@D@2@@std@@@2@V?$allocator@U?$pair@$$CBV?$basic_string@DU?$char_traits@D@std@@V?$allocator@D@2@@std@@PBU_GUID@@@std@@@2@@std@@@std@@UAEPAXI@Z 00401080 f i cinder:ImageTargetFileWic.obj
 0001:00000080       ??_G?$_Ref_count_del@VComOStream@msw@cinder@@P6AXPAX@Z@std@@UAEPAXI@Z 00401080 f i cinder:ImageTargetFileWic.obj
 0001:00000080       ??_E?$_Ref_count@UObj@?$ChannelT@E@cinder@@@std@@UAEPAXI@Z 00401080 f i cinder:Channel.obj
 0001:00000080       ??_G?$_Ref_count@V?$ImageTargetGLTexture@M@gl@cinder@@@std@@UAEPAXI@Z 00401080 f i cinder:Texture.obj
 0001:00000080       ??_E?$_Ref_count@VBlankingWindow@app@cinder@@@std@@UAEPAXI@Z 00401080 f i cinder:AppImplMswBasic.obj
 0001:00000080       ??_G?$_Ref_count_del@UIWICFormatConverter@@P6AXPAX@Z@std@@UAEPAXI@Z 00401080 f i cinder:ImageSourceFileWic.obj
 0001:00000080       ??_E?$_Ref_count@UObj@Texture@gl@cinder@@@std@@UAEPAXI@Z 00401080 f i cinder:Texture.obj
 0001:00000080       ??_E?$_Ref_count@UObj@VboMesh@gl@cinder@@@std@@UAEPAXI@Z 00401080 f i cinder:VBO.obj
 0001:00000080       ??_G?$_Ref_count@UObj@VertexIter@VboMesh@gl@cinder@@@std@@UAEPAXI@Z 00401080 f i cinder:VBO.obj
 0001:00000080       ??_G?$_Ref_count@UObj@Buffer@cinder@@@std@@UAEPAXI@Z 00401080 f i cinder:Buffer.obj
 0001:00000080       ??_G?$_Ref_count@VWindow@app@cinder@@@std@@UAEPAXI@Z 00401080 f i cinder:AppImplMsw.obj
 0001:00000080       ??_E?$_Ref_count@UObj@Vbo@gl@cinder@@@std@@UAEPAXI@Z 00401080 f i cinder:VBO.obj
 0001:00000080       ??_E?$_Ref_count_obj@VTexture@gl@cinder@@@std@@UAEPAXI@Z 00401080 f i * CIL library *:* CIL module *
 0001:00000080       ??_G?$_Ref_count@VBlankingWindow@app@cinder@@@std@@UAEPAXI@Z 00401080 f i cinder:AppImplMswBasic.obj
 0001:00000080       ??_E?$_Ref_count_del@UIWICBitmapDecoder@@P6AXPAX@Z@std@@UAEPAXI@Z 00401080 f i cinder:ImageSourceFileWic.obj
 0001:00000080       ??_E?$_Ref_count@VDataSourceBuffer@cinder@@@std@@UAEPAXI@Z 00401080 f i cinder:DataSource.obj
 0001:00000080       ??_E?$_Ref_count_del@UIWICBitmapFrameEncode@@P6AXPAX@Z@std@@UAEPAXI@Z 00401080 f i cinder:ImageTargetFileWic.obj
 0001:00000080       ??_G?$_Ref_count@UObj@VboMesh@gl@cinder@@@std@@UAEPAXI@Z 00401080 f i cinder:VBO.obj
 0001:00000080       ??_E?$_Ref_count@V?$ImageTargetGLTexture@E@gl@cinder@@@std@@UAEPAXI@Z 00401080 f i cinder:Texture.obj
 0001:00000080       ??_G?$_Ref_count_del@V?$basic_ostream@DU?$char_traits@D@std@@@std@@V<lambda_69588d13dcacf0fdf4c116f96accf98f>@@@std@@UAEPAXI@Z 00401080 f i cinder:AppBasic.obj
 0001:00000080       ??_G?$_Ref_count@VTimeline@cinder@@@std@@UAEPAXI@Z 00401080 f i cinder:App.obj
 0001:00000080       ??_G?$_Ref_count@UObj@?$ChannelT@E@cinder@@@std@@UAEPAXI@Z 00401080 f i cinder:Channel.obj
 0001:000000b0       ??_Efailure@ios_base@std@@UAEPAXI@Z 004010b0 f i * CIL library *:* CIL module *
 0001:000000b0       ??_Esystem_error@std@@UAEPAXI@Z 004010b0 f i * CIL library *:* CIL module *
 0001:000000b0       ??_Gruntime_error@std@@UAEPAXI@Z 004010b0 f i LeapMotionApp.obj
 0001:000000b0       ??_Eruntime_error@std@@UAEPAXI@Z 004010b0 f i * CIL library *:* CIL module *
 0001:000000b0       ??_EVboExc@gl@cinder@@UAEPAXI@Z 004010b0 f i cinder:VBO.obj
 0001:000000b0       ??_GVboExc@gl@cinder@@UAEPAXI@Z 004010b0 f i cinder:VBO.obj
 0001:000000b0       ??_Ebad_function_call@boost@@UAEPAXI@Z 004010b0 f i cinder:Window.obj
 0001:000000b0       ??_Gfailure@ios_base@std@@UAEPAXI@Z 004010b0 f i LeapMotionApp.obj
 0001:000000b0       ??_Gsystem_error@std@@UAEPAXI@Z 004010b0 f i LeapMotionApp.obj
 0001:000000b0       ??_Gbad_function_call@boost@@UAEPAXI@Z 004010b0 f i cinder:Window.obj
 0001:000000b0       ??_GVboFailedUnmapExc@gl@cinder@@UAEPAXI@Z 004010b0 f i cinder:VBO.obj
 0001:000000b0       ??_EVboFailedUnmapExc@gl@cinder@@UAEPAXI@Z 004010b0 f i cinder:VBO.obj
 0001:000000e0       ??1VboFailedUnmapExc@gl@cinder@@UAE@XZ 004010e0 f i cinder:VBO.obj
 0001:000000e0       ??1runtime_error@std@@UAE@XZ 004010e0 f i LeapMotionApp.obj
 0001:000000e0       ??1failure@ios_base@std@@UAE@XZ 004010e0 f i LeapMotionApp.obj
 0001:000000e0       ??1bad_function_call@boost@@UAE@XZ 004010e0 f i cinder:Window.obj
 0001:000000f0       ??0_Locinfo@std@@QAE@PBD@Z 004010f0 f i LeapMotionApp.obj
 0001:000001b0       ??1_Locinfo@std@@QAE@XZ    004011b0 f i LeapMotionApp.obj
 0001:00000250       ??0runtime_error@std@@QAE@ABV01@@Z 00401250 f i LeapMotionApp.obj
 0001:00000270       ??_E_Facet_base@std@@UAEPAXI@Z 00401270 f i * CIL library *:* CIL module *
 0001:00000270       ??_G_Facet_base@std@@UAEPAXI@Z 00401270 f i LeapMotionApp.obj
 0001:00000270       ??_G?$num_put@DV?$ostreambuf_iterator@DU?$char_traits@D@std@@@std@@@std@@MAEPAXI@Z 00401270 f i LeapMotionApp.obj
 0001:00000270       ??_E?$num_put@DV?$ostreambuf_iterator@DU?$char_traits@D@std@@@std@@@std@@MAEPAXI@Z 00401270 f i * CIL library *:* CIL module *
 0001:000002a0       ??Bid@locale@std@@QAEIXZ   004012a0 f i LeapMotionApp.obj
 0001:000002e0       ?_Incref@facet@locale@std@@UAEXXZ 004012e0 f i LeapMotionApp.obj
 0001:000002f0       ?_Decref@facet@locale@std@@UAEPAV_Facet_base@3@XZ 004012f0 f i LeapMotionApp.obj
 0001:00000310       ??1facet@locale@std@@MAE@XZ 00401310 f i LeapMotionApp.obj
 0001:00000320       ??1locale@std@@QAE@XZ      00401320 f i LeapMotionApp.obj
 0001:00000340       ?c_str@locale@std@@QBEPBDXZ 00401340 f i LeapMotionApp.obj
 0001:00000360       ?_Getfacet@locale@std@@QBEPBVfacet@12@I@Z 00401360 f i LeapMotionApp.obj
 0001:000003a0       ??0?$ctype@D@std@@QAE@ABV_Locinfo@1@I@Z 004013a0 f i LeapMotionApp.obj
 0001:000003e0       ?_Getcat@?$ctype@D@std@@SAIPAPBVfacet@locale@2@PBV42@@Z 004013e0 f i LeapMotionApp.obj
 0001:000004b0       ?do_tolower@?$ctype@D@std@@MBEDD@Z 004014b0 f i LeapMotionApp.obj
 0001:000004d0       ?do_tolower@?$ctype@D@std@@MBEPBDPADPBD@Z 004014d0 f i LeapMotionApp.obj
 0001:00000500       ?do_toupper@?$ctype@D@std@@MBEDD@Z 00401500 f i LeapMotionApp.obj
 0001:00000520       ?do_toupper@?$ctype@D@std@@MBEPBDPADPBD@Z 00401520 f i LeapMotionApp.obj
 0001:00000550       ?do_widen@?$ctype@D@std@@MBEDD@Z 00401550 f i LeapMotionApp.obj
 0001:00000560       ?do_widen@?$ctype@D@std@@MBEPBDPBD0PAD@Z 00401560 f i LeapMotionApp.obj
 0001:00000580       ?do_narrow@?$ctype@D@std@@MBEDDD@Z 00401580 f i LeapMotionApp.obj
 0001:00000590       ?do_narrow@?$ctype@D@std@@MBEPBDPBD0DPAD@Z 00401590 f i LeapMotionApp.obj
 0001:000005b0       ??_E?$ctype@D@std@@MAEPAXI@Z 004015b0 f i * CIL library *:* CIL module *
 0001:000005b0       ??_G?$ctype@D@std@@MAEPAXI@Z 004015b0 f i LeapMotionApp.obj
 0001:00000610       ??_G_System_error_category@std@@UAEPAXI@Z 00401610 f i LeapMotionApp.obj
 0001:00000610       ??_G_Generic_error_category@std@@UAEPAXI@Z 00401610 f i LeapMotionApp.obj
 0001:00000610       ??_G_Future_error_category@std@@UAEPAXI@Z 00401610 f i LeapMotionApp.obj
 0001:00000610       ??_E_Future_error_category@std@@UAEPAXI@Z 00401610 f i * CIL library *:* CIL module *
 0001:00000610       ??_E_Iostream_error_category@std@@UAEPAXI@Z 00401610 f i * CIL library *:* CIL module *
 0001:00000610       ??_E_Generic_error_category@std@@UAEPAXI@Z 00401610 f i * CIL library *:* CIL module *
 0001:00000610       ??_G_Iostream_error_category@std@@UAEPAXI@Z 00401610 f i LeapMotionApp.obj
 0001:00000610       ??_E_System_error_category@std@@UAEPAXI@Z 00401610 f i * CIL library *:* CIL module *
 0001:00000610       ??_Eerror_category@std@@UAEPAXI@Z 00401610 f i * CIL library *:* CIL module *
 0001:00000610       ??_Gerror_category@std@@UAEPAXI@Z 00401610 f i LeapMotionApp.obj
 0001:00000640       ?default_error_condition@error_category@std@@UBE?AVerror_condition@2@H@Z 00401640 f i LeapMotionApp.obj
 0001:00000640       ?default_error_condition@error_category@system@boost@@UBE?AVerror_condition@23@H@Z 00401640 f i cinder:App.obj
 0001:00000660       ?equivalent@error_category@system@boost@@UBE_NHABVerror_condition@23@@Z 00401660 f i cinder:App.obj
 0001:00000660       ?equivalent@error_category@std@@UBE_NHABVerror_condition@2@@Z 00401660 f i LeapMotionApp.obj
 0001:000006a0       ?equivalent@error_category@system@boost@@UBE_NABVerror_code@23@H@Z 004016a0 f i cinder:App.obj
 0001:000006a0       ?equivalent@error_category@std@@UBE_NABVerror_code@2@H@Z 004016a0 f i LeapMotionApp.obj
 0001:000006c0       ?name@generic_error_category@?A0xba8a6edf@@UBEPBDXZ 004016c0 f i libboost_system-vc110-mt-s-1_53:error_code.obj
 0001:000006c0       ?name@_Generic_error_category@std@@UBEPBDXZ 004016c0 f i LeapMotionApp.obj
 0001:000006d0       ?message@_Generic_error_category@std@@UBE?AV?$basic_string@DU?$char_traits@D@std@@V?$allocator@D@2@@2@H@Z 004016d0 f i LeapMotionApp.obj
 0001:00000740       ?name@_Iostream_error_category@std@@UBEPBDXZ 00401740 f i LeapMotionApp.obj
 0001:00000750       ?message@_Iostream_error_category@std@@UBE?AV?$basic_string@DU?$char_traits@D@std@@V?$allocator@D@2@@2@H@Z 00401750 f i LeapMotionApp.obj
 0001:000007a0       ?name@system_error_category@?A0xba8a6edf@@UBEPBDXZ 004017a0 f i libboost_system-vc110-mt-s-1_53:error_code.obj
 0001:000007a0       ?name@_System_error_category@std@@UBEPBDXZ 004017a0 f i LeapMotionApp.obj
 0001:000007b0       ?message@_System_error_category@std@@UBE?AV?$basic_string@DU?$char_traits@D@std@@V?$allocator@D@2@@2@H@Z 004017b0 f i LeapMotionApp.obj
 0001:00000820       ?default_error_condition@_System_error_category@std@@UBE?AVerror_condition@2@H@Z 00401820 f i LeapMotionApp.obj
 0001:00000860       ??0failure@ios_base@std@@QAE@PBDABVerror_code@2@@Z 00401860 f i LeapMotionApp.obj
 0001:00000950       ?clear@ios_base@std@@QAEXH_N@Z 00401950 f i LeapMotionApp.obj
 0001:00000a00       ?getloc@ios_base@std@@QBE?AVlocale@2@XZ 00401a00 f i LeapMotionApp.obj
 0001:00000a20       ??0failure@ios_base@std@@QAE@ABV012@@Z 00401a20 f i LeapMotionApp.obj
 0001:00000a50       ??0system_error@std@@QAE@ABV01@@Z 00401a50 f i LeapMotionApp.obj
 0001:00000a80       ?endl@std@@YAAAV?$basic_ostream@DU?$char_traits@D@std@@@1@AAV21@@Z 00401a80 f i LeapMotionApp.obj
 0001:00000ab0       ??1path@filesystem@boost@@QAE@XZ 00401ab0 f i LeapMotionApp.obj
 0001:00000ab0       ??1?$basic_string@_WU?$char_traits@_W@std@@V?$allocator@_W@2@@std@@QAE@XZ 00401ab0 f i LeapMotionApp.obj
 0001:00000ae0       ??1MouseEvent@app@cinder@@UAE@XZ 00401ae0 f i LeapMotionApp.obj
 0001:00000ae0       ??1Event@app@cinder@@UAE@XZ 00401ae0 f i LeapMotionApp.obj
 0001:00000b20       ??_GMouseEvent@app@cinder@@UAEPAXI@Z 00401b20 f i cinder:Window.obj
 0001:00000b20       ??_GEvent@app@cinder@@UAEPAXI@Z 00401b20 f i LeapMotionApp.obj
 0001:00000b20       ??_EEvent@app@cinder@@UAEPAXI@Z 00401b20 f i * CIL library *:* CIL module *
 0001:00000b20       ??_EMouseEvent@app@cinder@@UAEPAXI@Z 00401b20 f i cinder:Window.obj
 0001:00000b80       ??1TouchEvent@app@cinder@@UAE@XZ 00401b80 f i LeapMotionApp.obj
 0001:00000be0       ??1KeyEvent@app@cinder@@UAE@XZ 00401be0 f i LeapMotionApp.obj
 0001:00000c50       ??1FileDropEvent@app@cinder@@UAE@XZ 00401c50 f i LeapMotionApp.obj
 0001:00000cc0       ??1?$ChannelT@E@cinder@@QAE@XZ 00401cc0 f i cinder:Surface.obj
 0001:00000cc0       ??1?$shared_ptr@UObj@Vbo@gl@cinder@@@std@@QAE@XZ 00401cc0 f i cinder:VBO.obj
 0001:00000cc0       ??1?$shared_ptr@UIWICFormatConverter@@@std@@QAE@XZ 00401cc0 f i cinder:ImageSourceFileWic.obj
 0001:00000cc0       ??1?$shared_ptr@UtagTOUCHINPUT@@@std@@QAE@XZ 00401cc0 f i cinder:AppImplMsw.obj
 0001:00000cc0       ??1?$SurfaceT@E@cinder@@QAE@XZ 00401cc0 f i cinder:Renderer.obj
 0001:00000cc0       ??1?$shared_ptr@UIWICImagingFactory@@@std@@QAE@XZ 00401cc0 f i cinder:ImageSourceFileWic.obj
 0001:00000cc0       ??1?$shared_ptr@VVboMesh@gl@cinder@@@std@@QAE@XZ 00401cc0 f i LeapMotionApp.obj
 0001:00000cc0       ??1?$shared_ptr@V?$ImageTargetGLTexture@M@gl@cinder@@@std@@QAE@XZ 00401cc0 f i cinder:Texture.obj
 0001:00000cc0       ??1?$shared_ptr@VImageSource@cinder@@@std@@QAE@XZ 00401cc0 f i LeapMotionApp.obj
 0001:00000cc0       ??1?$shared_ptr@V?$ImageTargetGLTexture@G@gl@cinder@@@std@@QAE@XZ 00401cc0 f i cinder:Texture.obj
 0001:00000cc0       ??1?$shared_ptr@VComOStream@msw@cinder@@@std@@QAE@XZ 00401cc0 f i cinder:ImageTargetFileWic.obj
 0001:00000cc0       ??1?$shared_ptr@VRenderer@app@cinder@@@std@@QAE@XZ 00401cc0 f i LeapMotionApp.obj
 0001:00000cc0       ??1?$shared_ptr@UObj@Texture@gl@cinder@@@std@@QAE@XZ 00401cc0 f i LeapMotionApp.obj
 0001:00000cc0       ??1?$shared_ptr@Vio_service@asio@boost@@@std@@QAE@XZ 00401cc0 f i cinder:App.obj
 0001:00000cc0       ??1?$shared_ptr@UIWICStream@@@std@@QAE@XZ 00401cc0 f i cinder:ImageSourceFileWic.obj
 0001:00000cc0       ??1?$shared_ptr@VBlankingWindow@app@cinder@@@std@@QAE@XZ 00401cc0 f i cinder:AppImplMswBasic.obj
 0001:00000cc0       ??1?$shared_ptr@X@std@@QAE@XZ 00401cc0 f i cinder:App.obj
 0001:00000cc0       ??1?$shared_ptr@VDataSource@cinder@@@std@@QAE@XZ 00401cc0 f i LeapMotionApp.obj
 0001:00000cc0       ??1Vbo@gl@cinder@@QAE@XZ   00401cc0 f i cinder:VBO.obj
 0001:00000cc0       ??1FullScreenOptions@app@cinder@@QAE@XZ 00401cc0 f i LeapMotionApp.obj
 0001:00000cc0       ??1?$shared_ptr@VDataTarget@cinder@@@std@@QAE@XZ 00401cc0 f i cinder:ImageIo.obj
 0001:00000cc0       ??1?$shared_ptr@VTexture@gl@cinder@@@std@@QAE@XZ 00401cc0 f i LeapMotionApp.obj
 0001:00000cc0       ??1?$shared_ptr@VDataSourceBuffer@cinder@@@std@@QAE@XZ 00401cc0 f i cinder:App.obj
 0001:00000cc0       ??1?$shared_ptr@VImageTarget@cinder@@@std@@QAE@XZ 00401cc0 f i cinder:ImageIo.obj
 0001:00000cc0       ??1VboMesh@gl@cinder@@QAE@XZ 00401cc0 f i LeapMotionApp.obj
 0001:00000cc0       ??1VertexIter@VboMesh@gl@cinder@@QAE@XZ 00401cc0 f i LeapMotionApp.obj
 0001:00000cc0       ??1?$shared_ptr@UIWICBitmapFrameEncode@@@std@@QAE@XZ 00401cc0 f i cinder:ImageTargetFileWic.obj
 0001:00000cc0       ??1?$shared_ptr@UObj@VboMesh@gl@cinder@@@std@@QAE@XZ 00401cc0 f i LeapMotionApp.obj
 0001:00000cc0       ??1?$shared_ptr@V?$basic_ostream@DU?$char_traits@D@std@@@std@@@std@@QAE@XZ 00401cc0 f i cinder:App.obj
 0001:00000cc0       ??1?$shared_ptr@UObj@?$SurfaceT@E@cinder@@@std@@QAE@XZ 00401cc0 f i cinder:Renderer.obj
 0001:00000cc0       ??1?$shared_ptr@UObj@VertexIter@VboMesh@gl@cinder@@@std@@QAE@XZ 00401cc0 f i LeapMotionApp.obj
 0001:00000cc0       ??1?$shared_ptr@E@std@@QAE@XZ 00401cc0 f i cinder:Texture.obj
 0001:00000cc0       ??1?$shared_ptr@VWindow@app@cinder@@@std@@QAE@XZ 00401cc0 f i LeapMotionApp.obj
 0001:00000cc0       ??1?$shared_ptr@UIWICBitmapFrameDecode@@@std@@QAE@XZ 00401cc0 f i cinder:ImageSourceFileWic.obj
 0001:00000cc0       ??1?$shared_ptr@UIWICBitmapDecoder@@@std@@QAE@XZ 00401cc0 f i cinder:ImageSourceFileWic.obj
 0001:00000cc0       ??1?$shared_ptr@VTimeline@cinder@@@std@@QAE@XZ 00401cc0 f i cinder:App.obj
 0001:00000cc0       ??1?$shared_ptr@VTimelineItem@cinder@@@std@@QAE@XZ 00401cc0 f i cinder:Timeline.obj
 0001:00000cc0       ??1?$shared_ptr@UIWICBitmapEncoder@@@std@@QAE@XZ 00401cc0 f i cinder:ImageTargetFileWic.obj
 0001:00000cc0       ??1?$shared_ptr@VDisplay@cinder@@@std@@QAE@XZ 00401cc0 f i LeapMotionApp.obj
 0001:00000cc0       ??1?$shared_ptr@V?$ImageTargetGLTexture@E@gl@cinder@@@std@@QAE@XZ 00401cc0 f i cinder:Texture.obj
 0001:00000cc0       ??1Buffer@cinder@@QAE@XZ   00401cc0 f i cinder:App.obj
 0001:00000d00       ??4FullScreenOptions@app@cinder@@QAEAAU012@ABU012@@Z 00401d00 f i LeapMotionApp.obj
 0001:00000d80       ?name@_Future_error_category@std@@UBEPBDXZ 00401d80 f i LeapMotionApp.obj
 0001:00000d90       ?message@_Future_error_category@std@@UBE?AV?$basic_string@DU?$char_traits@D@std@@V?$allocator@D@2@@2@H@Z 00401d90 f i LeapMotionApp.obj
 0001:00000e20       ?mouseMove@App@app@cinder@@UAEXVMouseEvent@23@@Z 00401e20 f i LeapMotionApp.obj
 0001:00000e20       ?mouseWheel@App@app@cinder@@UAEXVMouseEvent@23@@Z 00401e20 f i LeapMotionApp.obj
 0001:00000e20       ?mouseDown@App@app@cinder@@UAEXVMouseEvent@23@@Z 00401e20 f i cinder:App.obj
 0001:00000e20       ?mouseUp@App@app@cinder@@UAEXVMouseEvent@23@@Z 00401e20 f i LeapMotionApp.obj
 0001:00000e20       ?mouseDrag@App@app@cinder@@UAEXVMouseEvent@23@@Z 00401e20 f i cinder:App.obj
 0001:00000e60       ?touchesMoved@App@app@cinder@@UAEXVTouchEvent@23@@Z 00401e60 f i LeapMotionApp.obj
 0001:00000e60       ?touchesEnded@App@app@cinder@@UAEXVTouchEvent@23@@Z 00401e60 f i LeapMotionApp.obj
 0001:00000e60       ?touchesBegan@App@app@cinder@@UAEXVTouchEvent@23@@Z 00401e60 f i LeapMotionApp.obj
 0001:00000ed0       ?keyUp@App@app@cinder@@UAEXVKeyEvent@23@@Z 00401ed0 f i LeapMotionApp.obj
 0001:00000ed0       ?keyDown@App@app@cinder@@UAEXVKeyEvent@23@@Z 00401ed0 f i cinder:App.obj
 0001:00000ee0       ?fileDrop@App@app@cinder@@UAEXVFileDropEvent@23@@Z 00401ee0 f i LeapMotionApp.obj
 0001:00000ef0       ?enablePowerManagement@App@app@cinder@@UAEX_N@Z 00401ef0 f i LeapMotionApp.obj
 0001:00000f00       ?isPowerManagementEnabled@App@app@cinder@@UBE_NXZ 00401f00 f i LeapMotionApp.obj
 0001:00000f10       ?getWindowAspectRatio@App@app@cinder@@QBEMXZ 00401f10 f i LeapMotionApp.obj
 0001:00001010       ?setWindowPos@App@app@cinder@@UAEXABV?$Vec2@H@3@@Z 00402010 f i LeapMotionApp.obj
 0001:000010a0       ?getsWindowsPaintEvents@AppBasic@app@cinder@@UAE_NXZ 004020a0 f i LeapMotionApp.obj
 0001:000010a0       ?isPersp@CameraPersp@cinder@@UBE_NXZ 004020a0 f i LeapMotionApp.obj
 0001:000010a0       ?receivesEvents@App@app@cinder@@UBE_NXZ 004020a0 f i LeapMotionApp.obj
 0001:000010b0       ?loadResource@app@cinder@@YA?AV?$shared_ptr@VDataSource@cinder@@@std@@ABV?$basic_string@DU?$char_traits@D@std@@V?$allocator@D@2@@4@H0@Z 004020b0 f i LeapMotionApp.obj
 0001:000010e0       ?getSettings@AppBasic@app@cinder@@UBEABVSettings@123@XZ 004020e0 f i LeapMotionApp.obj
 0001:000010f0       ?getProjectionMatrix@Camera@cinder@@UBEABV?$Matrix44@M@2@XZ 004020f0 f i LeapMotionApp.obj
 0001:00001110       ?getModelViewMatrix@Camera@cinder@@UBEABV?$Matrix44@M@2@XZ 00402110 f i LeapMotionApp.obj
 0001:00001130       ?getInverseModelViewMatrix@Camera@cinder@@UBEABV?$Matrix44@M@2@XZ 00402130 f i LeapMotionApp.obj
 0001:00001150       ??_GCameraPersp@cinder@@UAEPAXI@Z 00402150 f i LeapMotionApp.obj
 0001:00001150       ??_GCamera@cinder@@UAEPAXI@Z 00402150 f i LeapMotionApp.obj
 0001:00001150       ??_ECameraPersp@cinder@@UAEPAXI@Z 00402150 f i * CIL library *:* CIL module *
 0001:00001150       ??_ECamera@cinder@@UAEPAXI@Z 00402150 f i * CIL library *:* CIL module *
 0001:00001180       ??1CameraPersp@cinder@@UAE@XZ 00402180 f i LeapMotionApp.obj
 0001:00001190       ??0MayaCamUI@cinder@@QAE@XZ 00402190 f i LeapMotionApp.obj
 0001:00001260       ?mouseDrag@MayaCamUI@cinder@@QAEXABV?$Vec2@H@2@_N11@Z 00402260 f i LeapMotionApp.obj
 0001:00001ec0       ??4Camera@cinder@@QAEAAV01@ABV01@@Z 00402ec0 f i LeapMotionApp.obj
 0001:00002020       ??1Layout@VboMesh@gl@cinder@@QAE@XZ 00403020 f i LeapMotionApp.obj
 0001:00002070       ?create@Texture@gl@cinder@@SA?AV?$shared_ptr@VTexture@gl@cinder@@@std@@V?$shared_ptr@VImageSource@cinder@@@5@UFormat@123@@Z 00403070 f i LeapMotionApp.obj
 0001:00002100       ??0CubeletFace@@QAE@XZ     00403100 f i LeapMotionApp.obj
 0001:00002180       ??0CubeletFace@@QAE@PBV?$Vec3@M@cinder@@V?$shared_ptr@VTexture@gl@cinder@@@std@@@Z 00403180 f   LeapMotionApp.obj
 0001:000027e0       ?rotate@CubeletFace@@QAEXABV?$Vec3@M@cinder@@ABM@Z 004037e0 f   LeapMotionApp.obj
 0001:00002a40       ?snapCorners@CubeletFace@@QAEXXZ 00403a40 f   LeapMotionApp.obj
 0001:00002dd0       ??0Cubelet@@QAE@XZ         00403dd0 f i LeapMotionApp.obj
 0001:00002e50       ??0Cubelet@@QAE@ABV?$Vec3@M@cinder@@0@Z 00403e50 f   LeapMotionApp.obj
 0001:000041b0       ??1CubeletFace@@QAE@XZ     004051b0 f i LeapMotionApp.obj
 0001:00004220       ??4CubeletFace@@QAEAAV0@ABV0@@Z 00405220 f i LeapMotionApp.obj
 0001:00004340       ??RCube@@QAEXABV?$Vec3@M@cinder@@0ABF@Z 00405340 f   LeapMotionApp.obj
 0001:00004660       ??1Cubelet@@QAE@XZ         00405660 f i LeapMotionApp.obj
 0001:00004770       ??4Cubelet@@QAEAAV0@ABV0@@Z 00405770 f i LeapMotionApp.obj
 0001:000049c0       ?draw@Cube@@QBEXXZ         004059c0 f   LeapMotionApp.obj
 0001:00004a30       ?update@Cube@@QAEXXZ       00405a30 f   LeapMotionApp.obj
 0001:00004cc0       ?rotateSlices@Cube@@QAEXABFABV?$Vec3@M@cinder@@0@Z 00405cc0 f   LeapMotionApp.obj
 0001:00005030       ?endMovement@Cube@@QAEXXZ  00406030 f   LeapMotionApp.obj
 0001:00005220       ?onInit@LeapMotionListener@@UAEXABVController@Leap@@@Z 00406220 f   LeapMotionApp.obj
 0001:00005290       ?onConnect@LeapMotionListener@@UAEXABVController@Leap@@@Z 00406290 f   LeapMotionApp.obj
 0001:000052d0       ?onDisconnect@LeapMotionListener@@UAEXABVController@Leap@@@Z 004062d0 f   LeapMotionApp.obj
 0001:00005310       ?onExit@LeapMotionListener@@UAEXABVController@Leap@@@Z 00406310 f   LeapMotionApp.obj
 0001:00005350       ?onFrame@LeapMotionListener@@UAEXABVController@Leap@@@Z 00406350 f   LeapMotionApp.obj
 0001:00005480       ??1Finger@Leap@@UAE@XZ     00406480 f i LeapMotionApp.obj
 0001:00005480       ??1FingerList@Leap@@UAE@XZ 00406480 f i LeapMotionApp.obj
 0001:00005480       ??1InteractionBox@Leap@@UAE@XZ 00406480 f i LeapMotionApp.obj
 0001:00005480       ??1Frame@Leap@@UAE@XZ      00406480 f i LeapMotionApp.obj
 0001:00005490       ?onFocusGained@LeapMotionListener@@UAEXABVController@Leap@@@Z 00406490 f   LeapMotionApp.obj
 0001:000054d0       ?onFocusLost@LeapMotionListener@@UAEXABVController@Leap@@@Z 004064d0 f   LeapMotionApp.obj
 0001:00005510       ?setup@LeapMotionApp@@UAEXXZ 00406510 f   LeapMotionApp.obj
 0001:00005630       ?prepareSettings@LeapMotionApp@@UAEXPAVSettings@AppBasic@app@cinder@@@Z 00406630 f   LeapMotionApp.obj
 0001:000056b0       ?mouseDown@LeapMotionApp@@UAEXVMouseEvent@app@cinder@@@Z 004066b0 f   LeapMotionApp.obj
 0001:00005740       ?mouseDrag@LeapMotionApp@@UAEXVMouseEvent@app@cinder@@@Z 00406740 f   LeapMotionApp.obj
 0001:00005810       ?keyDown@LeapMotionApp@@UAEXVKeyEvent@app@cinder@@@Z 00406810 f   LeapMotionApp.obj
 0001:000059c0       ?update@LeapMotionApp@@UAEXXZ 004069c0 f   LeapMotionApp.obj
 0001:000059e0       ?draw@LeapMotionApp@@UAEXXZ 004069e0 f   LeapMotionApp.obj
 0001:00005a40       ?resize@LeapMotionApp@@UAEXXZ 00406a40 f   LeapMotionApp.obj
 0001:00005b00       ??0Camera@cinder@@QAE@ABV01@@Z 00406b00 f i LeapMotionApp.obj
 0001:00005c60       _WinMain@16                00406c60 f   LeapMotionApp.obj
 0001:00005d70       ??0LeapMotionApp@@QAE@XZ   00406d70 f i LeapMotionApp.obj
 0001:00005eb0       ??_ELeapMotionApp@@UAEPAXI@Z 00406eb0 f i * CIL library *:* CIL module *
 0001:00005eb0       ??_GLeapMotionApp@@UAEPAXI@Z 00406eb0 f i LeapMotionApp.obj
 0001:00005ee0       ??1LeapMotionListener@@UAE@XZ 00406ee0 f i LeapMotionApp.obj
 0001:00005ef0       ??1MayaCamUI@cinder@@QAE@XZ 00406ef0 f i LeapMotionApp.obj
 0001:00005f10       ??1LeapMotionApp@@UAE@XZ   00406f10 f i LeapMotionApp.obj
 0001:00006070       ??_ELeapMotionListener@@UAEPAXI@Z 00407070 f i * CIL library *:* CIL module *
 0001:00006070       ??_GLeapMotionListener@@UAEPAXI@Z 00407070 f i LeapMotionApp.obj
 0001:000060a0       ??0?$basic_string@DU?$char_traits@D@std@@V?$allocator@D@2@@std@@QAE@PBD@Z 004070a0 f i LeapMotionApp.obj
 0001:00006100       ??1?$pair@V?$basic_string@DU?$char_traits@D@std@@V?$allocator@D@2@@std@@PBU_GUID@@@std@@QAE@XZ 00407100 f i cinder:ImageTargetFileWic.obj
 0001:00006100       ??1?$basic_string@DU?$char_traits@D@std@@V?$allocator@D@2@@std@@QAE@XZ 00407100 f i LeapMotionApp.obj
 0001:00006100       ??1Url@cinder@@QAE@XZ      00407100 f i cinder:DataSource.obj
 0001:00006130       ??1?$_Yarn@D@std@@QAE@XZ   00407130 f i LeapMotionApp.obj
 0001:00006130       ??1?$_Yarn@_W@std@@QAE@XZ  00407130 f i LeapMotionApp.obj
 0001:00006150       ??6?$basic_ostream@DU?$char_traits@D@std@@@std@@QAEAAV01@M@Z 00407150 f i LeapMotionApp.obj
 0001:000062f0       ?put@?$basic_ostream@DU?$char_traits@D@std@@@std@@QAEAAV12@D@Z 004072f0 f i LeapMotionApp.obj
 0001:00006460       ?flush@?$basic_ostream@DU?$char_traits@D@std@@@std@@QAEAAV12@XZ 00407460 f i LeapMotionApp.obj
 0001:00006530       ?push_back@?$vector@V?$Vec2@M@cinder@@V?$allocator@V?$Vec2@M@cinder@@@std@@@std@@QAEX$$QAV?$Vec2@M@cinder@@@Z 00407530 f i LeapMotionApp.obj
 0001:000065b0       ??1?$vector@_WV?$allocator@_W@std@@@std@@QAE@XZ 004075b0 f i cinder:Utilities.obj
 0001:000065b0       ??1?$vector@DV?$allocator@D@std@@@std@@QAE@XZ 004075b0 f i cinder:Utilities.obj
 0001:000065b0       ??1?$vector@VTouch@TouchEvent@app@cinder@@V?$allocator@VTouch@TouchEvent@app@cinder@@@std@@@std@@QAE@XZ 004075b0 f i LeapMotionApp.obj
 0001:000065b0       ??1?$vector@HV?$allocator@H@std@@@std@@QAE@XZ 004075b0 f i cinder:VBO.obj
 0001:000065b0       ??1?$vector@U?$pair@W4CustomAttr@Layout@VboMesh@gl@cinder@@I@std@@V?$allocator@U?$pair@W4CustomAttr@Layout@VboMesh@gl@cinder@@I@std@@@2@@std@@QAE@XZ 004075b0 f i LeapMotionApp.obj
 0001:000065b0       ??1?$vector@IV?$allocator@I@std@@@std@@QAE@XZ 004075b0 f i LeapMotionApp.obj
 0001:000065b0       ??1?$vector@U?$pair@PAVcondition_variable@boost@@PAVmutex@2@@std@@V?$allocator@U?$pair@PAVcondition_variable@boost@@PAVmutex@2@@std@@@2@@std@@QAE@XZ 004075b0 f i libboost_thread-vc110-mt-s-1_53:thread.obj
 0001:000065b0       ??1?$vector@V?$Vec2@M@cinder@@V?$allocator@V?$Vec2@M@cinder@@@std@@@std@@QAE@XZ 004075b0 f i LeapMotionApp.obj
 0001:000065b0       ?_Tidy@?$vector@VTouch@TouchEvent@app@cinder@@V?$allocator@VTouch@TouchEvent@app@cinder@@@std@@@std@@IAEXXZ 004075b0 f i LeapMotionApp.obj
 0001:000065b0       ?_Tidy@?$vector@U?$pair@W4CustomAttr@Layout@VboMesh@gl@cinder@@I@std@@V?$allocator@U?$pair@W4CustomAttr@Layout@VboMesh@gl@cinder@@I@std@@@2@@std@@IAEXXZ 004075b0 f i LeapMotionApp.obj
 0001:000065e0       ??8?$Vec3@M@cinder@@QBE_NABV01@@Z 004075e0 f i LeapMotionApp.obj
 0001:00006620       ??0Vbo@gl@cinder@@QAE@XZ   00407620 f i cinder:VBO.obj
 0001:00006620       ??0?$ChannelT@E@cinder@@QAE@XZ 00407620 f i cinder:Surface.obj
 0001:00006620       ??0?$shared_ptr@VTexture@gl@cinder@@@std@@QAE@XZ 00407620 f i LeapMotionApp.obj
 0001:00006630       ??0?$shared_ptr@VImageSource@cinder@@@std@@QAE@ABV01@@Z 00407630 f i LeapMotionApp.obj
 0001:00006630       ??0?$shared_ptr@VTexture@gl@cinder@@@std@@QAE@ABV01@@Z 00407630 f i LeapMotionApp.obj
 0001:000066a0       ??4?$shared_ptr@VTexture@gl@cinder@@@std@@QAEAAV01@$$QAV01@@Z 004076a0 f i LeapMotionApp.obj
 0001:00006710       ??4Vbo@gl@cinder@@QAEAAV012@ABV012@@Z 00407710 f i cinder:VBO.obj
 0001:00006710       ??4?$shared_ptr@VTexture@gl@cinder@@@std@@QAEAAV01@ABV01@@Z 00407710 f i LeapMotionApp.obj
 0001:00006770       ??1?$vector@Vpath@filesystem@boost@@V?$allocator@Vpath@filesystem@boost@@@std@@@std@@QAE@XZ 00407770 f i LeapMotionApp.obj
 0001:00006770       ?_Tidy@?$vector@Vpath@filesystem@boost@@V?$allocator@Vpath@filesystem@boost@@@std@@@std@@IAEXXZ 00407770 f i LeapMotionApp.obj
 0001:000067b0       ??0?$vector@U?$pair@W4CustomAttr@Layout@VboMesh@gl@cinder@@I@std@@V?$allocator@U?$pair@W4CustomAttr@Layout@VboMesh@gl@cinder@@I@std@@@2@@std@@QAE@ABV01@@Z 004077b0 f i LeapMotionApp.obj
 0001:00006850       ?assign@?$basic_string@DU?$char_traits@D@std@@V?$allocator@D@2@@std@@QAEAAV12@$$QAV12@@Z 00407850 f i LeapMotionApp.obj
 0001:000068d0       ?_Assign_rv@?$basic_string@DU?$char_traits@D@std@@V?$allocator@D@2@@std@@QAEX$$QAV12@@Z 004078d0 f i LeapMotionApp.obj
 0001:00006930       ?assign@?$basic_string@DU?$char_traits@D@std@@V?$allocator@D@2@@std@@QAEAAV12@ABV12@II@Z 00407930 f i LeapMotionApp.obj
 0001:00006a60       ?allocate@?$_Wrap_alloc@V?$allocator@D@std@@@std@@QAEPADI@Z 00407a60 f i LeapMotionApp.obj
 0001:00006a60       ?allocate@?$allocator@D@std@@QAEPADI@Z 00407a60 f i LeapMotionApp.obj
 0001:00006a90       ?_Myptr@?$_String_val@U?$_Simple_types@D@std@@@std@@QBEPBDXZ 00407a90 f i LeapMotionApp.obj
 0001:00006aa0       ?_Pnavail@?$basic_streambuf@DU?$char_traits@D@std@@@std@@IBE_JXZ 00407aa0 f i LeapMotionApp.obj
 0001:00006ac0       ?_Eos@?$basic_string@_WU?$char_traits@_W@std@@V?$allocator@_W@2@@std@@QAEXI@Z 00407ac0 f i LeapMotionApp.obj
 0001:00006af0       ?_Tidy@?$basic_string@_WU?$char_traits@_W@std@@V?$allocator@_W@2@@std@@QAEX_NI@Z 00407af0 f i LeapMotionApp.obj
 0001:00006b40       ?_Reserve@?$vector@V?$Vec2@M@cinder@@V?$allocator@V?$Vec2@M@cinder@@@std@@@std@@IAEXI@Z 00407b40 f i LeapMotionApp.obj
 0001:00006bc0       ?_Reserve@?$vector@IV?$allocator@I@std@@@std@@IAEXI@Z 00407bc0 f i LeapMotionApp.obj
 0001:00006c40       ?_Buy@?$vector@U?$pair@W4CustomAttr@Layout@VboMesh@gl@cinder@@I@std@@V?$allocator@U?$pair@W4CustomAttr@Layout@VboMesh@gl@cinder@@I@std@@@2@@std@@IAE_NI@Z 00407c40 f i LeapMotionApp.obj
 0001:00006cb0       ??0sentry@?$basic_ostream@DU?$char_traits@D@std@@@std@@QAE@AAV12@@Z 00407cb0 f i LeapMotionApp.obj
 0001:00006d40       ??1sentry@?$basic_ostream@DU?$char_traits@D@std@@@std@@QAE@XZ 00407d40 f i LeapMotionApp.obj
 0001:00006d70       ?do_put@?$num_put@DV?$ostreambuf_iterator@DU?$char_traits@D@std@@@std@@@std@@MBE?AV?$ostreambuf_iterator@DU?$char_traits@D@std@@@2@V32@AAVios_base@2@D_N@Z 00407d70 f i LeapMotionApp.obj
 0001:00006f60       ?do_put@?$num_put@DV?$ostreambuf_iterator@DU?$char_traits@D@std@@@std@@@std@@MBE?AV?$ostreambuf_iterator@DU?$char_traits@D@std@@@2@V32@AAVios_base@2@DJ@Z 00407f60 f i LeapMotionApp.obj
 0001:00006fe0       ?do_put@?$num_put@DV?$ostreambuf_iterator@DU?$char_traits@D@std@@@std@@@std@@MBE?AV?$ostreambuf_iterator@DU?$char_traits@D@std@@@2@V32@AAVios_base@2@DK@Z 00407fe0 f i LeapMotionApp.obj
 0001:00007060       ?do_put@?$num_put@DV?$ostreambuf_iterator@DU?$char_traits@D@std@@@std@@@std@@MBE?AV?$ostreambuf_iterator@DU?$char_traits@D@std@@@2@V32@AAVios_base@2@D_J@Z 00408060 f i LeapMotionApp.obj
 0001:000070e0       ?do_put@?$num_put@DV?$ostreambuf_iterator@DU?$char_traits@D@std@@@std@@@std@@MBE?AV?$ostreambuf_iterator@DU?$char_traits@D@std@@@2@V32@AAVios_base@2@D_K@Z 004080e0 f i LeapMotionApp.obj
 0001:00007160       ?do_put@?$num_put@DV?$ostreambuf_iterator@DU?$char_traits@D@std@@@std@@@std@@MBE?AV?$ostreambuf_iterator@DU?$char_traits@D@std@@@2@V32@AAVios_base@2@DN@Z 00408160 f i LeapMotionApp.obj
 0001:000073a0       ?do_put@?$num_put@DV?$ostreambuf_iterator@DU?$char_traits@D@std@@@std@@@std@@MBE?AV?$ostreambuf_iterator@DU?$char_traits@D@std@@@2@V32@AAVios_base@2@DO@Z 004083a0 f i LeapMotionApp.obj
 0001:000075d0       ?do_put@?$num_put@DV?$ostreambuf_iterator@DU?$char_traits@D@std@@@std@@@std@@MBE?AV?$ostreambuf_iterator@DU?$char_traits@D@std@@@2@V32@AAVios_base@2@DPBX@Z 004085d0 f i LeapMotionApp.obj
 0001:00007640       ?falsename@?$numpunct@D@std@@QBE?AV?$basic_string@DU?$char_traits@D@std@@V?$allocator@D@2@@2@XZ 00408640 f i LeapMotionApp.obj
 0001:00007660       ?truename@?$numpunct@D@std@@QBE?AV?$basic_string@DU?$char_traits@D@std@@V?$allocator@D@2@@2@XZ 00408660 f i LeapMotionApp.obj
 0001:00007680       ?do_decimal_point@?$numpunct@D@std@@MBEDXZ 00408680 f i LeapMotionApp.obj
 0001:00007690       ?do_thousands_sep@?$numpunct@D@std@@MBEDXZ 00408690 f i LeapMotionApp.obj
 0001:000076a0       ?do_grouping@?$numpunct@D@std@@MBE?AV?$basic_string@DU?$char_traits@D@std@@V?$allocator@D@2@@2@XZ 004086a0 f i LeapMotionApp.obj
 0001:00007700       ?do_falsename@?$numpunct@D@std@@MBE?AV?$basic_string@DU?$char_traits@D@std@@V?$allocator@D@2@@2@XZ 00408700 f i LeapMotionApp.obj
 0001:00007760       ?do_truename@?$numpunct@D@std@@MBE?AV?$basic_string@DU?$char_traits@D@std@@V?$allocator@D@2@@2@XZ 00408760 f i LeapMotionApp.obj
 0001:000077c0       ??_G?$numpunct@D@std@@MAEPAXI@Z 004087c0 f i LeapMotionApp.obj
 0001:000077c0       ??_E?$numpunct@D@std@@MAEPAXI@Z 004087c0 f i * CIL library *:* CIL module *
 0001:00007810       ?assign@?$basic_string@DU?$char_traits@D@std@@V?$allocator@D@2@@std@@QAEAAV12@PBDI@Z 00408810 f i LeapMotionApp.obj
 0001:00007910       ?insert@?$basic_string@DU?$char_traits@D@std@@V?$allocator@D@2@@std@@QAEAAV12@IID@Z 00408910 f i LeapMotionApp.obj
 0001:00007a20       ?erase@?$basic_string@DU?$char_traits@D@std@@V?$allocator@D@2@@std@@QAEAAV12@I@Z 00408a20 f i LeapMotionApp.obj
 0001:00007a60       ?erase@?$basic_string@DU?$char_traits@D@std@@V?$allocator@D@2@@std@@QAEAAV12@II@Z 00408a60 f i LeapMotionApp.obj
 0001:00007b00       ??0?$_Wrap_alloc@V?$allocator@D@std@@@std@@QAE@XZ 00408b00 f i LeapMotionApp.obj
 0001:00007b00       ??0?$service_id@Vselect_reactor@detail@asio@boost@@@detail@asio@boost@@QAE@XZ 00408b00 f i cinder:App.obj
 0001:00007b00       ??0?$_Wrap_alloc@V?$allocator@_W@std@@@std@@QAE@XZ 00408b00 f i LeapMotionApp.obj
 0001:00007b00       ??0?$_Wrap_alloc@V?$allocator@V?$shared_ptr@VDisplay@cinder@@@std@@@std@@@std@@QAE@XZ 00408b00 f i cinder:Display.obj
 0001:00007b00       ??0?$service_id@Vstrand_service@detail@asio@boost@@@detail@asio@boost@@QAE@XZ 00408b00 f i cinder:App.obj
 0001:00007b00       ??0?$service_id@Vwin_iocp_io_service@detail@asio@boost@@@detail@asio@boost@@QAE@XZ 00408b00 f i cinder:App.obj
 0001:00007b10       ?_Osfx@?$basic_ostream@DU?$char_traits@D@std@@@std@@QAEXXZ 00408b10 f i LeapMotionApp.obj
 0001:00007ba0       ?_Reallocate@?$vector@V?$Vec2@M@cinder@@V?$allocator@V?$Vec2@M@cinder@@@std@@@std@@IAEXI@Z 00408ba0 f i LeapMotionApp.obj
 0001:00007c20       ?_Destroy@?$vector@Vpath@filesystem@boost@@V?$allocator@Vpath@filesystem@boost@@@std@@@std@@IAEXPAVpath@filesystem@boost@@0@Z 00408c20 f i LeapMotionApp.obj
 0001:00007c60       ?_Reallocate@?$vector@IV?$allocator@I@std@@@std@@IAEXI@Z 00408c60 f i LeapMotionApp.obj
 0001:00007ce0       ??1_Sentry_base@?$basic_ostream@DU?$char_traits@D@std@@@std@@QAE@XZ 00408ce0 f i LeapMotionApp.obj
 0001:00007d00       ?_Fput@?$num_put@DV?$ostreambuf_iterator@DU?$char_traits@D@std@@@std@@@std@@ABA?AV?$ostreambuf_iterator@DU?$char_traits@D@std@@@2@V32@AAVios_base@2@DPBDIIII@Z 00408d00 f i LeapMotionApp.obj
 0001:00008180       ?_Ifmt@?$num_put@DV?$ostreambuf_iterator@DU?$char_traits@D@std@@@std@@@std@@ABAPADPADPBDH@Z 00409180 f i LeapMotionApp.obj
 0001:00008210       ?_Iput@?$num_put@DV?$ostreambuf_iterator@DU?$char_traits@D@std@@@std@@@std@@ABA?AV?$ostreambuf_iterator@DU?$char_traits@D@std@@@2@V32@AAVios_base@2@DPADI@Z 00409210 f i LeapMotionApp.obj
 0001:000085b0       ?_Put@?$num_put@DV?$ostreambuf_iterator@DU?$char_traits@D@std@@@std@@@std@@ABA?AV?$ostreambuf_iterator@DU?$char_traits@D@std@@@2@V32@PBDI@Z 004095b0 f i LeapMotionApp.obj
 0001:00008620       ?_Rep@?$num_put@DV?$ostreambuf_iterator@DU?$char_traits@D@std@@@std@@@std@@ABA?AV?$ostreambuf_iterator@DU?$char_traits@D@std@@@2@V32@DI@Z 00409620 f i LeapMotionApp.obj
 0001:00008690       ?grouping@?$numpunct@D@std@@QBE?AV?$basic_string@DU?$char_traits@D@std@@V?$allocator@D@2@@2@XZ 00409690 f i LeapMotionApp.obj
 0001:000086b0       ?_Tidy@?$numpunct@D@std@@AAEXXZ 004096b0 f i LeapMotionApp.obj
 0001:000086d0       ?assign@?$basic_string@DU?$char_traits@D@std@@V?$allocator@D@2@@std@@QAEAAV12@ID@Z 004096d0 f i LeapMotionApp.obj
 0001:000087a0       ?_Chassign@?$basic_string@DU?$char_traits@D@std@@V?$allocator@D@2@@std@@QAEXIID@Z 004097a0 f i LeapMotionApp.obj
 0001:000087f0       ?_Copy@?$basic_string@DU?$char_traits@D@std@@V?$allocator@D@2@@std@@QAEXII@Z 004097f0 f i LeapMotionApp.obj
 0001:00008940       ??4?$ostreambuf_iterator@DU?$char_traits@D@std@@@std@@QAEAAV01@D@Z 00409940 f i LeapMotionApp.obj
 0001:00008990       ??$use_facet@V?$ctype@D@std@@@std@@YAABV?$ctype@D@0@ABVlocale@0@@Z 00409990 f i LeapMotionApp.obj
 0001:00008ab0       ??$?6U?$char_traits@D@std@@@std@@YAAAV?$basic_ostream@DU?$char_traits@D@std@@@0@AAV10@PBD@Z 00409ab0 f i LeapMotionApp.obj
 0001:00008d60       ??$make_shared@VTexture@gl@cinder@@AAV?$shared_ptr@VImageSource@cinder@@@std@@AAUFormat@123@@std@@YA?AV?$shared_ptr@VTexture@gl@cinder@@@0@AAV?$shared_ptr@VImageSource@cinder@@@0@AAUFormat@Texture@gl@cinder@@@Z 00409d60 f i LeapMotionApp.obj
 0001:00008de0       ??$pow@FH@@YANFH@Z         00409de0 f i LeapMotionApp.obj
 0001:00008e10       ??$use_facet@V?$num_put@DV?$ostreambuf_iterator@DU?$char_traits@D@std@@@std@@@std@@@std@@YAABV?$num_put@DV?$ostreambuf_iterator@DU?$char_traits@D@std@@@std@@@0@ABVlocale@0@@Z 00409e10 f i LeapMotionApp.obj
 0001:00008f30       ??$use_facet@V?$numpunct@D@std@@@std@@YAABV?$numpunct@D@0@ABVlocale@0@@Z 00409f30 f i LeapMotionApp.obj
 0001:00009050       ??$_Reset@UObj@Buffer@cinder@@@?$_Ptr_base@UObj@Buffer@cinder@@@std@@QAEXABV01@@Z 0040a050 f i cinder:DataSource.obj
 0001:00009050       ??$_Reset@VWindow@app@cinder@@@?$_Ptr_base@VWindow@app@cinder@@@std@@QAEXABV01@@Z 0040a050 f i cinder:Window.obj
 0001:00009050       ??$_Reset@UObj@Vbo@gl@cinder@@@?$_Ptr_base@UObj@Vbo@gl@cinder@@@std@@QAEXABV01@@Z 0040a050 f i cinder:VBO.obj
 0001:00009050       ??$_Reset@VDisplay@cinder@@@?$_Ptr_base@VDisplay@cinder@@@std@@QAEXABV01@@Z 0040a050 f i LeapMotionApp.obj
 0001:00009050       ??$_Reset@VRenderer@app@cinder@@@?$_Ptr_base@VRenderer@app@cinder@@@std@@QAEXABV01@@Z 0040a050 f i LeapMotionApp.obj
 0001:000090c0       ??$destroy@PA_W@?$_Wrap_alloc@V?$allocator@_W@std@@@std@@QAEXPAPA_W@Z 0040a0c0 f i LeapMotionApp.obj
 0001:000090c0       ??$destroy@PAD@?$_Wrap_alloc@V?$allocator@D@std@@@std@@QAEXPAPAD@Z 0040a0c0 f i LeapMotionApp.obj
 0001:000090c0       ?apc_function@detail@asio@boost@@YGXK@Z 0040a0c0 f i cinder:App.obj
 0001:000090c0       ?imbue@?$basic_streambuf@DU?$char_traits@D@std@@@std@@MAEXABVlocale@2@@Z 0040a0c0 f i cinder:App.obj
 0001:000090c0       ?start@Timeline@cinder@@MAEX_N@Z 0040a0c0 f i cinder:Timeline.obj
 0001:000090c0       ?fork_service@service@io_service@asio@boost@@EAEXW4fork_event@234@@Z 0040a0c0 f i cinder:App.obj
 0001:000090c0       ?prepareSettings@AppBasic@app@cinder@@UAEXPAVSettings@123@@Z 0040a0c0 f i cinder:AppBasic.obj
 0001:000090c0       ?complete@Timeline@cinder@@MAEX_N@Z 0040a0c0 f i cinder:Timeline.obj
 0001:000090d0       ?sputn@?$basic_streambuf@DU?$char_traits@D@std@@@std@@QAE_JPBD_J@Z 0040a0d0 f i LeapMotionApp.obj
 0001:000090f0       ?_Getcat@?$num_put@DV?$ostreambuf_iterator@DU?$char_traits@D@std@@@std@@@std@@SAIPAPBVfacet@locale@2@PBV42@@Z 0040a0f0 f i LeapMotionApp.obj
 0001:000091a0       ?_Getcat@?$numpunct@D@std@@SAIPAPBVfacet@locale@2@PBV42@@Z 0040a1a0 f i LeapMotionApp.obj
 0001:00009260       ?_Destroy@?$_Ref_count_obj@VTexture@gl@cinder@@@std@@EAEXXZ 0040a260 f i LeapMotionApp.obj
 0001:000092a0       ?_Delete_this@?$_Ref_count@UObj@Texture@gl@cinder@@@std@@EAEXXZ 0040a2a0 f i cinder:Texture.obj
 0001:000092a0       ?_Delete_this@?$_Ref_count@UObj@?$SurfaceT@E@cinder@@@std@@EAEXXZ 0040a2a0 f i cinder:Surface.obj
 0001:000092a0       ?_Delete_this@?$_Ref_count@VRendererGl@app@cinder@@@std@@EAEXXZ 0040a2a0 f i LeapMotionApp.obj
 0001:000092a0       ?_Delete_this@?$_Ref_count_del@VComOStream@msw@cinder@@P6AXPAX@Z@std@@EAEXXZ 0040a2a0 f i cinder:ImageTargetFileWic.obj
 0001:000092a0       ?_Delete_this@?$_Ref_count_del@UIWICBitmapFrameDecode@@P6AXPAX@Z@std@@EAEXXZ 0040a2a0 f i cinder:ImageSourceFileWic.obj
 0001:000092a0       ?_Delete_this@?$_Ref_count@VTimeline@cinder@@@std@@EAEXXZ 0040a2a0 f i cinder:App.obj
 0001:000092a0       ?_Delete_this@?$_Ref_count@V?$map@V?$basic_string@DU?$char_traits@D@std@@V?$allocator@D@2@@std@@PBU_GUID@@U?$less@V?$basic_string@DU?$char_traits@D@std@@V?$allocator@D@2@@std@@@2@V?$allocator@U?$pair@$$CBV?$basic_string@DU?$char_traits@D@std@@V?$allocator@D@2@@std@@PBU_GUID@@@std@@@2@@std@@@std@@EAEXXZ 0040a2a0 f i cinder:ImageTargetFileWic.obj
 0001:000092a0       ?_Delete_this@?$_Ref_count@UInst@ImageIoRegistrar@cinder@@@std@@EAEXXZ 0040a2a0 f i cinder:ImageIo.obj
 0001:000092a0       ?_Delete_this@?$_Ref_count@VWindow@app@cinder@@@std@@EAEXXZ 0040a2a0 f i cinder:AppImplMsw.obj
 0001:000092a0       ?_Delete_this@?$_Ref_count_obj@VTexture@gl@cinder@@@std@@EAEXXZ 0040a2a0 f i LeapMotionApp.obj
 0001:000092a0       ?_Delete_this@?$_Ref_count@V?$basic_dostream@DU?$char_traits@D@std@@@msw@cinder@@@std@@EAEXXZ 0040a2a0 f i cinder:App.obj
 0001:000092a0       ?_Delete_this@?$_Ref_count@UObj@VboMesh@gl@cinder@@@std@@EAEXXZ 0040a2a0 f i cinder:VBO.obj
 0001:000092a0       ?_Delete_this@?$_Ref_count@V?$ImageTargetGLTexture@M@gl@cinder@@@std@@EAEXXZ 0040a2a0 f i cinder:Texture.obj
 0001:000092a0       ?_Delete_this@?$_Ref_count_del@V?$basic_ostream@DU?$char_traits@D@std@@@std@@V<lambda_69588d13dcacf0fdf4c116f96accf98f>@@@std@@EAEXXZ 0040a2a0 f i cinder:AppBasic.obj
 0001:000092a0       ?_Delete_this@?$_Ref_count@V?$ImageTargetGLTexture@G@gl@cinder@@@std@@EAEXXZ 0040a2a0 f i cinder:Texture.obj
 0001:000092a0       ?_Delete_this@?$_Ref_count_del@UIWICImagingFactory@@P6AXPAX@Z@std@@EAEXXZ 0040a2a0 f i cinder:ImageSourceFileWic.obj
 0001:000092a0       ?_Delete_this@?$_Ref_count@UObj@Vbo@gl@cinder@@@std@@EAEXXZ 0040a2a0 f i cinder:VBO.obj
 0001:000092a0       ?_Delete_this@?$_Ref_count@UObj@VertexIter@VboMesh@gl@cinder@@@std@@EAEXXZ 0040a2a0 f i cinder:VBO.obj
 0001:000092a0       ?_Delete_this@?$_Ref_count@UObj@?$ChannelT@E@cinder@@@std@@EAEXXZ 0040a2a0 f i cinder:Channel.obj
 0001:000092a0       ?_Delete_this@?$_Ref_count@VDataSourceBuffer@cinder@@@std@@EAEXXZ 0040a2a0 f i cinder:DataSource.obj
 0001:000092a0       ?_Delete_this@?$_Ref_count_del@UIWICFormatConverter@@P6AXPAX@Z@std@@EAEXXZ 0040a2a0 f i cinder:ImageSourceFileWic.obj
 0001:000092a0       ?_Delete_this@?$_Ref_count@VImageTargetFileWic@cinder@@@std@@EAEXXZ 0040a2a0 f i cinder:ImageTargetFileWic.obj
 0001:000092a0       ?_Delete_this@?$_Ref_count_del@UtagTOUCHINPUT@@U?$checked_array_deleter@UtagTOUCHINPUT@@@boost@@@std@@EAEXXZ 0040a2a0 f i cinder:AppImplMsw.obj
 0001:000092a0       ?_Delete_this@?$_Ref_count@Vio_service@asio@boost@@@std@@EAEXXZ 0040a2a0 f i cinder:App.obj
 0001:000092a0       ?_Delete_this@?$_Ref_count@VImageSourceFileWic@cinder@@@std@@EAEXXZ 0040a2a0 f i cinder:ImageSourceFileWic.obj
 0001:000092a0       ?_Delete_this@?$_Ref_count_del@UIWICBitmapEncoder@@P6AXPAX@Z@std@@EAEXXZ 0040a2a0 f i cinder:ImageTargetFileWic.obj
 0001:000092a0       ?_Delete_this@?$_Ref_count@VBlankingWindow@app@cinder@@@std@@EAEXXZ 0040a2a0 f i cinder:AppImplMswBasic.obj
 0001:000092a0       ?_Delete_this@?$_Ref_count@UObj@Buffer@cinder@@@std@@EAEXXZ 0040a2a0 f i cinder:Buffer.obj
 0001:000092a0       ?_Delete_this@?$_Ref_count@Vwork@io_service@asio@boost@@@std@@EAEXXZ 0040a2a0 f i cinder:App.obj
 0001:000092a0       ?_Delete_this@?$_Ref_count_del@UIWICBitmapFrameEncode@@P6AXPAX@Z@std@@EAEXXZ 0040a2a0 f i cinder:ImageTargetFileWic.obj
 0001:000092a0       ?_Delete_this@?$_Ref_count@VDisplay@cinder@@@std@@EAEXXZ 0040a2a0 f i cinder:Display.obj
 0001:000092a0       ?_Delete_this@?$_Ref_count@VIStreamMem@cinder@@@std@@EAEXXZ 0040a2a0 f i cinder:Stream.obj
 0001:000092a0       ?_Delete_this@?$_Ref_count_del@EP6AXPAE@Z@std@@EAEXXZ 0040a2a0 f i cinder:Texture.obj
 0001:000092a0       ?_Delete_this@?$_Ref_count@V?$ImageTargetGLTexture@E@gl@cinder@@@std@@EAEXXZ 0040a2a0 f i cinder:Texture.obj
 0001:000092a0       ?_Delete_this@?$_Ref_count_del@UIWICBitmapDecoder@@P6AXPAX@Z@std@@EAEXXZ 0040a2a0 f i cinder:ImageSourceFileWic.obj
 0001:000092a0       ?_Delete_this@?$_Ref_count_del@UIWICStream@@P6AXPAX@Z@std@@EAEXXZ 0040a2a0 f i cinder:ImageSourceFileWic.obj
 0001:000092b0       ?_Init@?$numpunct@D@std@@IAEXABV_Locinfo@2@_N@Z 0040a2b0 f i LeapMotionApp.obj
 0001:00009410       ??$?0AAV?$shared_ptr@VImageSource@cinder@@@std@@AAUFormat@Texture@gl@cinder@@@?$_Ref_count_obj@VTexture@gl@cinder@@@std@@QAE@AAV?$shared_ptr@VImageSource@cinder@@@1@AAUFormat@Texture@gl@cinder@@@Z 0040a410 f i LeapMotionApp.obj
 0001:000094c0       ??$_Resetp@VRendererGl@app@cinder@@@?$shared_ptr@VRenderer@app@cinder@@@std@@AAEXPAVRendererGl@app@cinder@@@Z 0040a4c0 f i LeapMotionApp.obj
 0001:00009590       ??$_Destroy_range@U?$_Wrap_alloc@V?$allocator@Vpath@filesystem@boost@@@std@@@std@@@std@@YAXPAVpath@filesystem@boost@@0AAU?$_Wrap_alloc@V?$allocator@Vpath@filesystem@boost@@@std@@@0@U_Nonscalar_ptr_iterator_tag@0@@Z 0040a590 f i LeapMotionApp.obj
 0001:000095d0       ??$_Maklocstr@D@std@@YAPADPBDPADABU_Cvtvec@@@Z 0040a5d0 f i LeapMotionApp.obj
 0001:00009610       ?_Destroy@?$_Ref_count@VTimeline@cinder@@@std@@EAEXXZ 0040a610 f i cinder:App.obj
 0001:00009610       ?dispose@?$sp_counted_impl_p@V?$clone_impl@Ubad_exception_@exception_detail@boost@@@exception_detail@boost@@@detail@boost@@UAEXXZ 0040a610 f i libboost_thread-vc110-mt-s-1_53:thread.obj
 0001:00009610       ?_Destroy@?$_Ref_count@VRendererGl@app@cinder@@@std@@EAEXXZ 0040a610 f i LeapMotionApp.obj
 0001:00009610       ?dispose@?$sp_counted_impl_p@V?$clone_impl@Ubad_alloc_@exception_detail@boost@@@exception_detail@boost@@@detail@boost@@UAEXXZ 0040a610 f i libboost_thread-vc110-mt-s-1_53:thread.obj
 0001:00009620       ??$_Uninit_copy@V?$_Vector_const_iterator@V?$_Vector_val@U?$_Simple_types@U?$pair@W4CustomAttr@Layout@VboMesh@gl@cinder@@I@std@@@std@@@std@@@std@@PAU?$pair@W4CustomAttr@Layout@VboMesh@gl@cinder@@I@2@V?$allocator@U?$pair@W4CustomAttr@Layout@VboMesh@gl@cinder@@I@std@@@2@@std@@YAPAU?$pair@W4CustomAttr@Layout@VboMesh@gl@cinder@@I@0@V?$_Vector_const_iterator@V?$_Vector_val@U?$_Simple_types@U?$pair@W4CustomAttr@Layout@VboMesh@gl@cinder@@I@std@@@std@@@std@@@0@0PAU10@AAU?$_Wrap_alloc@V?$allocator@U?$pair@W4CustomAttr@Layout@VboMesh@gl@cinder@@I@std@@@std@@@0@U_Nonscalar_ptr_iterator_tag@0@@Z 0040a620 f i LeapMotionApp.obj
 0001:00009650       ??$_Uninit_move@PAV?$Vec2@M@cinder@@PAV12@V?$allocator@V?$Vec2@M@cinder@@@std@@V12@@std@@YAPAV?$Vec2@M@cinder@@PAV12@00AAU?$_Wrap_alloc@V?$allocator@V?$Vec2@M@cinder@@@std@@@0@0U_Nonscalar_ptr_iterator_tag@0@@Z 0040a650 f i LeapMotionApp.obj
 0001:00009690       ??$destroy@Vpath@filesystem@boost@@@?$_Wrap_alloc@V?$allocator@Vpath@filesystem@boost@@@std@@@std@@QAEXPAVpath@filesystem@boost@@@Z 0040a690 f i LeapMotionApp.obj
 0001:000096c0       ??$_Resetp@VRendererGl@app@cinder@@@?$shared_ptr@VRendererGl@app@cinder@@@std@@AAEXPAVRendererGl@app@cinder@@@Z 0040a6c0 f i cinder:Renderer.obj
 0001:00009790       ??0RendererGl@app@cinder@@QAE@H@Z 0040a790 f   cinder:Renderer.obj
 0001:000097c0       ??_ERenderer@app@cinder@@UAEPAXI@Z 0040a7c0 f i cinder:Renderer.obj
 0001:000097c0       ??_GRenderer@app@cinder@@UAEPAXI@Z 0040a7c0 f i cinder:Renderer.obj
 0001:000097f0       ??_ERendererGl@app@cinder@@UAEPAXI@Z 0040a7f0 f i cinder:Renderer.obj
 0001:000097f0       ??_GRendererGl@app@cinder@@UAEPAXI@Z 0040a7f0 f i cinder:Renderer.obj
 0001:00009830       ?clone@RendererGl@app@cinder@@UBE?AV?$shared_ptr@VRenderer@app@cinder@@@std@@XZ 0040a830 f i cinder:Renderer.obj
 0001:000098b0       ?copyWindowSurface@RendererGl@app@cinder@@UAE?AV?$SurfaceT@E@3@ABVArea@3@@Z 0040a8b0 f   cinder:Renderer.obj
 0001:00009a70       ?defaultResize@RendererGl@app@cinder@@UAEXXZ 0040aa70 f   cinder:Renderer.obj
 0001:00009a80       ?finishDraw@RendererGl@app@cinder@@UAEXXZ 0040aa80 f   cinder:Renderer.obj
 0001:00009a90       ?finishToggleFullScreen@RendererGl@app@cinder@@UAEXXZ 0040aa90 f   cinder:Renderer.obj
 0001:00009aa0       ?getNative@WindowImplMsw@app@cinder@@UAEPAXXZ 0040aaa0 f i cinder:AppImplMsw.obj
 0001:00009aa0       ?getHwnd@RendererGl@app@cinder@@UAEPAUHWND__@@XZ 0040aaa0 f i cinder:Renderer.obj
 0001:00009ab0       ?kill@RendererGl@app@cinder@@UAEXXZ 0040aab0 f   cinder:Renderer.obj
 0001:00009ac0       ?startDraw@RendererGl@app@cinder@@UAEXXZ 0040aac0 f   cinder:Renderer.obj
 0001:00009ac0       ?makeCurrentContext@RendererGl@app@cinder@@UAEXXZ 0040aac0 f   cinder:Renderer.obj
 0001:00009ad0       ?prepareToggleFullScreen@RendererGl@app@cinder@@UAEXXZ 0040aad0 f   cinder:Renderer.obj
 0001:00009ae0       ?setAntiAliasing@RendererGl@app@cinder@@QAEXH@Z 0040aae0 f   cinder:Renderer.obj
 0001:00009af0       ?setup@RendererGl@app@cinder@@UAEXPAVApp@23@PAUHWND__@@PAUHDC__@@V?$shared_ptr@VRenderer@app@cinder@@@std@@@Z 0040aaf0 f   cinder:Renderer.obj
 0001:00009c20       ??$?0U?$EventCombiner@VFileDropEvent@app@cinder@@@app@cinder@@@?$shared_ptr@U?$EventCombiner@VFileDropEvent@app@cinder@@@app@cinder@@@boost@@QAE@PAU?$EventCombiner@VFileDropEvent@app@cinder@@@app@cinder@@@Z 0040ac20 f i cinder:Window.obj
 0001:00009cd0       ??$?0U?$EventCombiner@VFileDropEvent@app@cinder@@@app@cinder@@@shared_count@detail@boost@@QAE@PAU?$EventCombiner@VFileDropEvent@app@cinder@@@app@cinder@@@Z 0040acd0 f i cinder:Window.obj
 0001:00009d70       ??$?0U?$EventCombiner@VKeyEvent@app@cinder@@@app@cinder@@@?$shared_ptr@U?$EventCombiner@VKeyEvent@app@cinder@@@app@cinder@@@boost@@QAE@PAU?$EventCombiner@VKeyEvent@app@cinder@@@app@cinder@@@Z 0040ad70 f i cinder:Window.obj
 0001:00009e20       ??$?0U?$EventCombiner@VKeyEvent@app@cinder@@@app@cinder@@@shared_count@detail@boost@@QAE@PAU?$EventCombiner@VKeyEvent@app@cinder@@@app@cinder@@@Z 0040ae20 f i cinder:Window.obj
 0001:00009ec0       ??$?0U?$EventCombiner@VMouseEvent@app@cinder@@@app@cinder@@@?$shared_ptr@U?$EventCombiner@VMouseEvent@app@cinder@@@app@cinder@@@boost@@QAE@PAU?$EventCombiner@VMouseEvent@app@cinder@@@app@cinder@@@Z 0040aec0 f i cinder:Window.obj
 0001:00009f70       ??$?0U?$EventCombiner@VMouseEvent@app@cinder@@@app@cinder@@@shared_count@detail@boost@@QAE@PAU?$EventCombiner@VMouseEvent@app@cinder@@@app@cinder@@@Z 0040af70 f i cinder:Window.obj
 0001:0000a010       ??$?0U?$EventCombiner@VTouchEvent@app@cinder@@@app@cinder@@@?$shared_ptr@U?$EventCombiner@VTouchEvent@app@cinder@@@app@cinder@@@boost@@QAE@PAU?$EventCombiner@VTouchEvent@app@cinder@@@app@cinder@@@Z 0040b010 f i cinder:Window.obj
 0001:0000a0c0       ??$?0U?$EventCombiner@VTouchEvent@app@cinder@@@app@cinder@@@shared_count@detail@boost@@QAE@PAU?$EventCombiner@VTouchEvent@app@cinder@@@app@cinder@@@Z 0040b0c0 f i cinder:Window.obj
 0001:0000a160       ??$?0V?$grouped_list@HU?$less@H@std@@V?$shared_ptr@V?$connection_body@U?$pair@W4slot_meta_group@detail@signals2@boost@@V?$optional@H@4@@std@@V?$slot0@XV?$function@$$A6AXXZ@boost@@@signals2@boost@@Vmutex@45@@detail@signals2@boost@@@boost@@@detail@signals2@boost@@@?$shared_ptr@V?$grouped_list@HU?$less@H@std@@V?$shared_ptr@V?$connection_body@U?$pair@W4slot_meta_group@detail@signals2@boost@@V?$optional@H@4@@std@@V?$slot0@XV?$function@$$A6AXXZ@boost@@@signals2@boost@@Vmutex@45@@detail@signals2@boost@@@boost@@@detail@signals2@boost@@@boost@@QAE@PAV?$grouped_list@HU?$less@H@std@@V?$shared_ptr@V?$connection_body@U?$pair@W4slot_meta_group@detail@signals2@boost@@V?$optional@H@4@@std@@V?$slot0@XV?$function@$$A6AXXZ@boost@@@signals2@boost@@Vmutex@45@@detail@signals2@boost@@@boost@@@detail@signals2@1@@Z 0040b160 f i cinder:Window.obj
 0001:0000a210       ??$?0V?$grouped_list@HU?$less@H@std@@V?$shared_ptr@V?$connection_body@U?$pair@W4slot_meta_group@detail@signals2@boost@@V?$optional@H@4@@std@@V?$slot0@XV?$function@$$A6AXXZ@boost@@@signals2@boost@@Vmutex@45@@detail@signals2@boost@@@boost@@@detail@signals2@boost@@@shared_count@detail@boost@@QAE@PAV?$grouped_list@HU?$less@H@std@@V?$shared_ptr@V?$connection_body@U?$pair@W4slot_meta_group@detail@signals2@boost@@V?$optional@H@4@@std@@V?$slot0@XV?$function@$$A6AXXZ@boost@@@signals2@boost@@Vmutex@45@@detail@signals2@boost@@@boost@@@1signals2@2@@Z 0040b210 f i cinder:Window.obj
 0001:0000a2b0       ??$?0V?$grouped_list@HU?$less@H@std@@V?$shared_ptr@V?$connection_body@U?$pair@W4slot_meta_group@detail@signals2@boost@@V?$optional@H@4@@std@@V?$slot1@XAAVFileDropEvent@app@cinder@@V?$function@$$A6AXAAVFileDropEvent@app@cinder@@@Z@boost@@@signals2@boost@@Vmutex@45@@detail@signals2@boost@@@boost@@@detail@signals2@boost@@@?$shared_ptr@V?$grouped_list@HU?$less@H@std@@V?$shared_ptr@V?$connection_body@U?$pair@W4slot_meta_group@detail@signals2@boost@@V?$optional@H@4@@std@@V?$slot1@XAAVFileDropEvent@app@cinder@@V?$function@$$A6AXAAVFileDropEvent@app@cinder@@@Z@boost@@@signals2@boost@@Vmutex@45@@detail@signals2@boost@@@boost@@@detail@signals2@boost@@@boost@@QAE@PAV?$grouped_list@HU?$less@H@std@@V?$shared_ptr@V?$connection_body@U?$pair@W4slot_meta_group@detail@signals2@boost@@V?$optional@H@4@@std@@V?$slot1@XAAVFileDropEvent@app@cinder@@V?$function@$$A6AXAAVFileDropEvent@app@cinder@@@Z@boost@@@signals2@boost@@Vmutex@45@@detail@signals2@boost@@@boost@@@detail@signals2@1@@Z 0040b2b0 f i cinder:Window.obj
 0001:0000a360       ??$?0V?$grouped_list@HU?$less@H@std@@V?$shared_ptr@V?$connection_body@U?$pair@W4slot_meta_group@detail@signals2@boost@@V?$optional@H@4@@std@@V?$slot1@XAAVFileDropEvent@app@cinder@@V?$function@$$A6AXAAVFileDropEvent@app@cinder@@@Z@boost@@@signals2@boost@@Vmutex@45@@detail@signals2@boost@@@boost@@@detail@signals2@boost@@@shared_count@detail@boost@@QAE@PAV?$grouped_list@HU?$less@H@std@@V?$shared_ptr@V?$connection_body@U?$pair@W4slot_meta_group@detail@signals2@boost@@V?$optional@H@4@@std@@V?$slot1@XAAVFileDropEvent@app@cinder@@V?$function@$$A6AXAAVFileDropEvent@app@cinder@@@Z@boost@@@signals2@boost@@Vmutex@45@@detail@signals2@boost@@@boost@@@1signals2@2@@Z 0040b360 f i cinder:Window.obj
 0001:0000a400       ??$?0V?$grouped_list@HU?$less@H@std@@V?$shared_ptr@V?$connection_body@U?$pair@W4slot_meta_group@detail@signals2@boost@@V?$optional@H@4@@std@@V?$slot1@XAAVKeyEvent@app@cinder@@V?$function@$$A6AXAAVKeyEvent@app@cinder@@@Z@boost@@@signals2@boost@@Vmutex@45@@detail@signals2@boost@@@boost@@@detail@signals2@boost@@@?$shared_ptr@V?$grouped_list@HU?$less@H@std@@V?$shared_ptr@V?$connection_body@U?$pair@W4slot_meta_group@detail@signals2@boost@@V?$optional@H@4@@std@@V?$slot1@XAAVKeyEvent@app@cinder@@V?$function@$$A6AXAAVKeyEvent@app@cinder@@@Z@boost@@@signals2@boost@@Vmutex@45@@detail@signals2@boost@@@boost@@@detail@signals2@boost@@@boost@@QAE@PAV?$grouped_list@HU?$less@H@std@@V?$shared_ptr@V?$connection_body@U?$pair@W4slot_meta_group@detail@signals2@boost@@V?$optional@H@4@@std@@V?$slot1@XAAVKeyEvent@app@cinder@@V?$function@$$A6AXAAVKeyEvent@app@cinder@@@Z@boost@@@signals2@boost@@Vmutex@45@@detail@signals2@boost@@@boost@@@detail@signals2@1@@Z 0040b400 f i cinder:Window.obj
 0001:0000a4b0       ??$?0V?$grouped_list@HU?$less@H@std@@V?$shared_ptr@V?$connection_body@U?$pair@W4slot_meta_group@detail@signals2@boost@@V?$optional@H@4@@std@@V?$slot1@XAAVKeyEvent@app@cinder@@V?$function@$$A6AXAAVKeyEvent@app@cinder@@@Z@boost@@@signals2@boost@@Vmutex@45@@detail@signals2@boost@@@boost@@@detail@signals2@boost@@@shared_count@detail@boost@@QAE@PAV?$grouped_list@HU?$less@H@std@@V?$shared_ptr@V?$connection_body@U?$pair@W4slot_meta_group@detail@signals2@boost@@V?$optional@H@4@@std@@V?$slot1@XAAVKeyEvent@app@cinder@@V?$function@$$A6AXAAVKeyEvent@app@cinder@@@Z@boost@@@signals2@boost@@Vmutex@45@@detail@signals2@boost@@@boost@@@1signals2@2@@Z 0040b4b0 f i cinder:Window.obj
 0001:0000a550       ??$?0V?$grouped_list@HU?$less@H@std@@V?$shared_ptr@V?$connection_body@U?$pair@W4slot_meta_group@detail@signals2@boost@@V?$optional@H@4@@std@@V?$slot1@XAAVMouseEvent@app@cinder@@V?$function@$$A6AXAAVMouseEvent@app@cinder@@@Z@boost@@@signals2@boost@@Vmutex@45@@detail@signals2@boost@@@boost@@@detail@signals2@boost@@@?$shared_ptr@V?$grouped_list@HU?$less@H@std@@V?$shared_ptr@V?$connection_body@U?$pair@W4slot_meta_group@detail@signals2@boost@@V?$optional@H@4@@std@@V?$slot1@XAAVMouseEvent@app@cinder@@V?$function@$$A6AXAAVMouseEvent@app@cinder@@@Z@boost@@@signals2@boost@@Vmutex@45@@detail@signals2@boost@@@boost@@@detail@signals2@boost@@@boost@@QAE@PAV?$grouped_list@HU?$less@H@std@@V?$shared_ptr@V?$connection_body@U?$pair@W4slot_meta_group@detail@signals2@boost@@V?$optional@H@4@@std@@V?$slot1@XAAVMouseEvent@app@cinder@@V?$function@$$A6AXAAVMouseEvent@app@cinder@@@Z@boost@@@signals2@boost@@Vmutex@45@@detail@signals2@boost@@@boost@@@detail@signals2@1@@Z 0040b550 f i cinder:Window.obj
 0001:0000a600       ??$?0V?$grouped_list@HU?$less@H@std@@V?$shared_ptr@V?$connection_body@U?$pair@W4slot_meta_group@detail@signals2@boost@@V?$optional@H@4@@std@@V?$slot1@XAAVMouseEvent@app@cinder@@V?$function@$$A6AXAAVMouseEvent@app@cinder@@@Z@boost@@@signals2@boost@@Vmutex@45@@detail@signals2@boost@@@boost@@@detail@signals2@boost@@@shared_count@detail@boost@@QAE@PAV?$grouped_list@HU?$less@H@std@@V?$shared_ptr@V?$connection_body@U?$pair@W4slot_meta_group@detail@signals2@boost@@V?$optional@H@4@@std@@V?$slot1@XAAVMouseEvent@app@cinder@@V?$function@$$A6AXAAVMouseEvent@app@cinder@@@Z@boost@@@signals2@boost@@Vmutex@45@@detail@signals2@boost@@@boost@@@1signals2@2@@Z 0040b600 f i cinder:Window.obj
 0001:0000a6a0       ??$?0V?$grouped_list@HU?$less@H@std@@V?$shared_ptr@V?$connection_body@U?$pair@W4slot_meta_group@detail@signals2@boost@@V?$optional@H@4@@std@@V?$slot1@XAAVTouchEvent@app@cinder@@V?$function@$$A6AXAAVTouchEvent@app@cinder@@@Z@boost@@@signals2@boost@@Vmutex@45@@detail@signals2@boost@@@boost@@@detail@signals2@boost@@@?$shared_ptr@V?$grouped_list@HU?$less@H@std@@V?$shared_ptr@V?$connection_body@U?$pair@W4slot_meta_group@detail@signals2@boost@@V?$optional@H@4@@std@@V?$slot1@XAAVTouchEvent@app@cinder@@V?$function@$$A6AXAAVTouchEvent@app@cinder@@@Z@boost@@@signals2@boost@@Vmutex@45@@detail@signals2@boost@@@boost@@@detail@signals2@boost@@@boost@@QAE@PAV?$grouped_list@HU?$less@H@std@@V?$shared_ptr@V?$connection_body@U?$pair@W4slot_meta_group@detail@signals2@boost@@V?$optional@H@4@@std@@V?$slot1@XAAVTouchEvent@app@cinder@@V?$function@$$A6AXAAVTouchEvent@app@cinder@@@Z@boost@@@signals2@boost@@Vmutex@45@@detail@signals2@boost@@@boost@@@detail@signals2@1@@Z 0040b6a0 f i cinder:Window.obj
 0001:0000a750       ??$?0V?$grouped_list@HU?$less@H@std@@V?$shared_ptr@V?$connection_body@U?$pair@W4slot_meta_group@detail@signals2@boost@@V?$optional@H@4@@std@@V?$slot1@XAAVTouchEvent@app@cinder@@V?$function@$$A6AXAAVTouchEvent@app@cinder@@@Z@boost@@@signals2@boost@@Vmutex@45@@detail@signals2@boost@@@boost@@@detail@signals2@boost@@@shared_count@detail@boost@@QAE@PAV?$grouped_list@HU?$less@H@std@@V?$shared_ptr@V?$connection_body@U?$pair@W4slot_meta_group@detail@signals2@boost@@V?$optional@H@4@@std@@V?$slot1@XAAVTouchEvent@app@cinder@@V?$function@$$A6AXAAVTouchEvent@app@cinder@@@Z@boost@@@signals2@boost@@Vmutex@45@@detail@signals2@boost@@@boost@@@1signals2@2@@Z 0040b750 f i cinder:Window.obj
 0001:0000a7f0       ??$?0Vinvocation_state@?$signal0_impl@XV?$optional_last_value@X@signals2@boost@@HU?$less@H@std@@V?$function@$$A6AXXZ@3@V?$function@$$A6AXABVconnection@signals2@boost@@@Z@3@Vmutex@23@@detail@signals2@boost@@@?$shared_ptr@Vinvocation_state@?$signal0_impl@XV?$optional_last_value@X@signals2@boost@@HU?$less@H@std@@V?$function@$$A6AXXZ@3@V?$function@$$A6AXABVconnection@signals2@boost@@@Z@3@Vmutex@23@@detail@signals2@boost@@@boost@@QAE@PAVinvocation_state@?$signal0_impl@XV?$optional_last_value@X@signals2@boost@@HU?$less@H@std@@V?$function@$$A6AXXZ@3@V?$function@$$A6AXABVconnection@signals2@boost@@@Z@3@Vmutex@23@@detail@signals2@1@@Z 0040b7f0 f i cinder:Window.obj
 0001:0000a8a0       ??$?0Vinvocation_state@?$signal0_impl@XV?$optional_last_value@X@signals2@boost@@HU?$less@H@std@@V?$function@$$A6AXXZ@3@V?$function@$$A6AXABVconnection@signals2@boost@@@Z@3@Vmutex@23@@detail@signals2@boost@@@shared_count@detail@boost@@QAE@PAVinvocation_state@?$signal0_impl@XV?$optional_last_value@X@signals2@boost@@HU?$less@H@std@@V?$function@$$A6AXXZ@3@V?$function@$$A6AXABVconnection@signals2@boost@@@Z@3@Vmutex@23@@1signals2@2@@Z 0040b8a0 f i cinder:Window.obj
 0001:0000a940       ??$?0Vinvocation_state@?$signal1_impl@XAAVFileDropEvent@app@cinder@@U?$EventCombiner@VFileDropEvent@app@cinder@@@23@HU?$less@H@std@@V?$function@$$A6AXAAVFileDropEvent@app@cinder@@@Z@boost@@V?$function@$$A6AXABVconnection@signals2@boost@@AAVFileDropEvent@app@cinder@@@Z@8@Vmutex@signals2@8@@detail@signals2@boost@@@?$shared_ptr@Vinvocation_state@?$signal1_impl@XAAVFileDropEvent@app@cinder@@U?$EventCombiner@VFileDropEvent@app@cinder@@@23@HU?$less@H@std@@V?$function@$$A6AXAAVFileDropEvent@app@cinder@@@Z@boost@@V?$function@$$A6AXABVconnection@signals2@boost@@AAVFileDropEvent@app@cinder@@@Z@8@Vmutex@signals2@8@@detail@signals2@boost@@@boost@@QAE@PAVinvocation_state@?$signal1_impl@XAAVFileDropEvent@app@cinder@@U?$EventCombiner@VFileDropEvent@app@cinder@@@23@HU?$less@H@std@@V?$function@$$A6AXAAVFileDropEvent@app@cinder@@@Z@boost@@V?$function@$$A6AXABVconnection@signals2@boost@@AAVFileDropEvent@app@cinder@@@Z@8@Vmutex@signals2@8@@detail@signals2@1@@Z 0040b940 f i cinder:Window.obj
 0001:0000a9f0       ??$?0Vinvocation_state@?$signal1_impl@XAAVFileDropEvent@app@cinder@@U?$EventCombiner@VFileDropEvent@app@cinder@@@23@HU?$less@H@std@@V?$function@$$A6AXAAVFileDropEvent@app@cinder@@@Z@boost@@V?$function@$$A6AXABVconnection@signals2@boost@@AAVFileDropEvent@app@cinder@@@Z@8@Vmutex@signals2@8@@detail@signals2@boost@@@shared_count@detail@boost@@QAE@PAVinvocation_state@?$signal1_impl@XAAVFileDropEvent@app@cinder@@U?$EventCombiner@VFileDropEvent@app@cinder@@@23@HU?$less@H@std@@V?$function@$$A6AXAAVFileDropEvent@app@cinder@@@Z@boost@@V?$function@$$A6AXABVconnection@signals2@boost@@AAVFileDropEvent@app@cinder@@@Z@8@Vmutex@signals2@8@@1signals2@2@@Z 0040b9f0 f i cinder:Window.obj
 0001:0000aa90       ??$?0Vinvocation_state@?$signal1_impl@XAAVKeyEvent@app@cinder@@U?$EventCombiner@VKeyEvent@app@cinder@@@23@HU?$less@H@std@@V?$function@$$A6AXAAVKeyEvent@app@cinder@@@Z@boost@@V?$function@$$A6AXABVconnection@signals2@boost@@AAVKeyEvent@app@cinder@@@Z@8@Vmutex@signals2@8@@detail@signals2@boost@@@?$shared_ptr@Vinvocation_state@?$signal1_impl@XAAVKeyEvent@app@cinder@@U?$EventCombiner@VKeyEvent@app@cinder@@@23@HU?$less@H@std@@V?$function@$$A6AXAAVKeyEvent@app@cinder@@@Z@boost@@V?$function@$$A6AXABVconnection@signals2@boost@@AAVKeyEvent@app@cinder@@@Z@8@Vmutex@signals2@8@@detail@signals2@boost@@@boost@@QAE@PAVinvocation_state@?$signal1_impl@XAAVKeyEvent@app@cinder@@U?$EventCombiner@VKeyEvent@app@cinder@@@23@HU?$less@H@std@@V?$function@$$A6AXAAVKeyEvent@app@cinder@@@Z@boost@@V?$function@$$A6AXABVconnection@signals2@boost@@AAVKeyEvent@app@cinder@@@Z@8@Vmutex@signals2@8@@detail@signals2@1@@Z 0040ba90 f i cinder:Window.obj
 0001:0000ab40       ??$?0Vinvocation_state@?$signal1_impl@XAAVKeyEvent@app@cinder@@U?$EventCombiner@VKeyEvent@app@cinder@@@23@HU?$less@H@std@@V?$function@$$A6AXAAVKeyEvent@app@cinder@@@Z@boost@@V?$function@$$A6AXABVconnection@signals2@boost@@AAVKeyEvent@app@cinder@@@Z@8@Vmutex@signals2@8@@detail@signals2@boost@@@shared_count@detail@boost@@QAE@PAVinvocation_state@?$signal1_impl@XAAVKeyEvent@app@cinder@@U?$EventCombiner@VKeyEvent@app@cinder@@@23@HU?$less@H@std@@V?$function@$$A6AXAAVKeyEvent@app@cinder@@@Z@boost@@V?$function@$$A6AXABVconnection@signals2@boost@@AAVKeyEvent@app@cinder@@@Z@8@Vmutex@signals2@8@@1signals2@2@@Z 0040bb40 f i cinder:Window.obj
 0001:0000abe0       ??$?0Vinvocation_state@?$signal1_impl@XAAVMouseEvent@app@cinder@@U?$EventCombiner@VMouseEvent@app@cinder@@@23@HU?$less@H@std@@V?$function@$$A6AXAAVMouseEvent@app@cinder@@@Z@boost@@V?$function@$$A6AXABVconnection@signals2@boost@@AAVMouseEvent@app@cinder@@@Z@8@Vmutex@signals2@8@@detail@signals2@boost@@@?$shared_ptr@Vinvocation_state@?$signal1_impl@XAAVMouseEvent@app@cinder@@U?$EventCombiner@VMouseEvent@app@cinder@@@23@HU?$less@H@std@@V?$function@$$A6AXAAVMouseEvent@app@cinder@@@Z@boost@@V?$function@$$A6AXABVconnection@signals2@boost@@AAVMouseEvent@app@cinder@@@Z@8@Vmutex@signals2@8@@detail@signals2@boost@@@boost@@QAE@PAVinvocation_state@?$signal1_impl@XAAVMouseEvent@app@cinder@@U?$EventCombiner@VMouseEvent@app@cinder@@@23@HU?$less@H@std@@V?$function@$$A6AXAAVMouseEvent@app@cinder@@@Z@boost@@V?$function@$$A6AXABVconnection@signals2@boost@@AAVMouseEvent@app@cinder@@@Z@8@Vmutex@signals2@8@@detail@signals2@1@@Z 0040bbe0 f i cinder:Window.obj
 0001:0000ac90       ??$?0Vinvocation_state@?$signal1_impl@XAAVMouseEvent@app@cinder@@U?$EventCombiner@VMouseEvent@app@cinder@@@23@HU?$less@H@std@@V?$function@$$A6AXAAVMouseEvent@app@cinder@@@Z@boost@@V?$function@$$A6AXABVconnection@signals2@boost@@AAVMouseEvent@app@cinder@@@Z@8@Vmutex@signals2@8@@detail@signals2@boost@@@shared_count@detail@boost@@QAE@PAVinvocation_state@?$signal1_impl@XAAVMouseEvent@app@cinder@@U?$EventCombiner@VMouseEvent@app@cinder@@@23@HU?$less@H@std@@V?$function@$$A6AXAAVMouseEvent@app@cinder@@@Z@boost@@V?$function@$$A6AXABVconnection@signals2@boost@@AAVMouseEvent@app@cinder@@@Z@8@Vmutex@signals2@8@@1signals2@2@@Z 0040bc90 f i cinder:Window.obj
 0001:0000ad30       ??$?0Vinvocation_state@?$signal1_impl@XAAVTouchEvent@app@cinder@@U?$EventCombiner@VTouchEvent@app@cinder@@@23@HU?$less@H@std@@V?$function@$$A6AXAAVTouchEvent@app@cinder@@@Z@boost@@V?$function@$$A6AXABVconnection@signals2@boost@@AAVTouchEvent@app@cinder@@@Z@8@Vmutex@signals2@8@@detail@signals2@boost@@@?$shared_ptr@Vinvocation_state@?$signal1_impl@XAAVTouchEvent@app@cinder@@U?$EventCombiner@VTouchEvent@app@cinder@@@23@HU?$less@H@std@@V?$function@$$A6AXAAVTouchEvent@app@cinder@@@Z@boost@@V?$function@$$A6AXABVconnection@signals2@boost@@AAVTouchEvent@app@cinder@@@Z@8@Vmutex@signals2@8@@detail@signals2@boost@@@boost@@QAE@PAVinvocation_state@?$signal1_impl@XAAVTouchEvent@app@cinder@@U?$EventCombiner@VTouchEvent@app@cinder@@@23@HU?$less@H@std@@V?$function@$$A6AXAAVTouchEvent@app@cinder@@@Z@boost@@V?$function@$$A6AXABVconnection@signals2@boost@@AAVTouchEvent@app@cinder@@@Z@8@Vmutex@signals2@8@@detail@signals2@1@@Z 0040bd30 f i cinder:Window.obj
 0001:0000ade0       ??$?0Vinvocation_state@?$signal1_impl@XAAVTouchEvent@app@cinder@@U?$EventCombiner@VTouchEvent@app@cinder@@@23@HU?$less@H@std@@V?$function@$$A6AXAAVTouchEvent@app@cinder@@@Z@boost@@V?$function@$$A6AXABVconnection@signals2@boost@@AAVTouchEvent@app@cinder@@@Z@8@Vmutex@signals2@8@@detail@signals2@boost@@@shared_count@detail@boost@@QAE@PAVinvocation_state@?$signal1_impl@XAAVTouchEvent@app@cinder@@U?$EventCombiner@VTouchEvent@app@cinder@@@23@HU?$less@H@std@@V?$function@$$A6AXAAVTouchEvent@app@cinder@@@Z@boost@@V?$function@$$A6AXABVconnection@signals2@boost@@AAVTouchEvent@app@cinder@@@Z@8@Vmutex@signals2@8@@1signals2@2@@Z 0040bde0 f i cinder:Window.obj
 0001:0000ae80       ??$?0X@?$shared_ptr@X@boost@@QAE@ABV?$weak_ptr@X@1@Usp_nothrow_tag@detail@1@@Z 0040be80 f i cinder:Window.obj
 0001:0000aee0       ??$?RV?$slot_call_iterator_t@Vslot_invoker@?$signal0_impl@XV?$optional_last_value@X@signals2@boost@@HU?$less@H@std@@V?$function@$$A6AXXZ@3@V?$function@$$A6AXABVconnection@signals2@boost@@@Z@3@Vmutex@23@@detail@signals2@boost@@V?$_List_iterator@V?$_List_val@U?$_List_simple_types@V?$shared_ptr@V?$connection_body@U?$pair@W4slot_meta_group@detail@signals2@boost@@V?$optional@H@4@@std@@V?$slot0@XV?$function@$$A6AXXZ@boost@@@signals2@boost@@Vmutex@45@@detail@signals2@boost@@@boost@@@std@@@std@@@std@@V?$connection_body@U?$pair@W4slot_meta_group@detail@signals2@boost@@V?$optional@H@4@@std@@V?$slot0@XV?$function@$$A6AXXZ@boost@@@signals2@boost@@Vmutex@45@@345@@detail@signals2@boost@@@?$optional_last_value@X@signals2@boost@@QBEXV?$slot_call_iterator_t@Vslot_invoker@?$signal0_impl@XV?$optional_last_value@X@signals2@boost@@HU?$less@H@std@@V?$function@$$A6AXXZ@3@V?$function@$$A6AXABVconnection@signals2@boost@@@Z@3@Vmutex@23@@detail@signals2@boost@@V?$_List_iterator@V?$_List_val@U?$_List_simple_types@V?$shared_ptr@V?$connection_body@U?$pair@W4slot_meta_group@detail@signals2@boost@@V?$optional@H@4@@std@@V?$slot0@XV?$function@$$A6AXXZ@boost@@@signals2@boost@@Vmutex@45@@detail@signals2@boost@@@boost@@@std@@@std@@@std@@V?$connection_body@U?$pair@W4slot_meta_group@detail@signals2@boost@@V?$optional@H@4@@std@@V?$slot0@XV?$function@$$A6AXXZ@boost@@@signals2@boost@@Vmutex@45@@345@@detail@12@0@Z 0040bee0 f i cinder:Window.obj
 0001:0000af70       ??$?RV?$slot_call_iterator_t@Vslot_invoker@?$signal1_impl@XAAVTouchEvent@app@cinder@@U?$EventCombiner@VTouchEvent@app@cinder@@@23@HU?$less@H@std@@V?$function@$$A6AXAAVTouchEvent@app@cinder@@@Z@boost@@V?$function@$$A6AXABVconnection@signals2@boost@@AAVTouchEvent@app@cinder@@@Z@8@Vmutex@signals2@8@@detail@signals2@boost@@V?$_List_iterator@V?$_List_val@U?$_List_simple_types@V?$shared_ptr@V?$connection_body@U?$pair@W4slot_meta_group@detail@signals2@boost@@V?$optional@H@4@@std@@V?$slot1@XAAVTouchEvent@app@cinder@@V?$function@$$A6AXAAVTouchEvent@app@cinder@@@Z@boost@@@signals2@boost@@Vmutex@45@@detail@signals2@boost@@@boost@@@std@@@std@@@std@@V?$connection_body@U?$pair@W4slot_meta_group@detail@signals2@boost@@V?$optional@H@4@@std@@V?$slot1@XAAVTouchEvent@app@cinder@@V?$function@$$A6AXAAVTouchEvent@app@cinder@@@Z@boost@@@signals2@boost@@Vmutex@45@@345@@detail@signals2@boost@@@?$EventCombiner@VTouchEvent@app@cinder@@@app@cinder@@QBEXV?$slot_call_iterator_t@Vslot_invoker@?$signal1_impl@XAAVTouchEvent@app@cinder@@U?$EventCombiner@VTouchEvent@app@cinder@@@23@HU?$less@H@std@@V?$function@$$A6AXAAVTouchEvent@app@cinder@@@Z@boost@@V?$function@$$A6AXABVconnection@signals2@boost@@AAVTouchEvent@app@cinder@@@Z@8@Vmutex@signals2@8@@detail@signals2@boost@@V?$_List_iterator@V?$_List_val@U?$_List_simple_types@V?$shared_ptr@V?$connection_body@U?$pair@W4slot_meta_group@detail@signals2@boost@@V?$optional@H@4@@std@@V?$slot1@XAAVTouchEvent@app@cinder@@V?$function@$$A6AXAAVTouchEvent@app@cinder@@@Z@boost@@@signals2@boost@@Vmutex@45@@detail@signals2@boost@@@boost@@@std@@@std@@@std@@V?$connection_body@U?$pair@W4slot_meta_group@detail@signals2@boost@@V?$optional@H@4@@std@@V?$slot1@XAAVTouchEvent@app@cinder@@V?$function@$$A6AXAAVTouchEvent@app@cinder@@@Z@boost@@@signals2@boost@@Vmutex@45@@345@@detail@signals2@boost@@0@Z 0040bf70 f i cinder:Window.obj
 0001:0000af70       ??$?RV?$slot_call_iterator_t@Vslot_invoker@?$signal1_impl@XAAVKeyEvent@app@cinder@@U?$EventCombiner@VKeyEvent@app@cinder@@@23@HU?$less@H@std@@V?$function@$$A6AXAAVKeyEvent@app@cinder@@@Z@boost@@V?$function@$$A6AXABVconnection@signals2@boost@@AAVKeyEvent@app@cinder@@@Z@8@Vmutex@signals2@8@@detail@signals2@boost@@V?$_List_iterator@V?$_List_val@U?$_List_simple_types@V?$shared_ptr@V?$connection_body@U?$pair@W4slot_meta_group@detail@signals2@boost@@V?$optional@H@4@@std@@V?$slot1@XAAVKeyEvent@app@cinder@@V?$function@$$A6AXAAVKeyEvent@app@cinder@@@Z@boost@@@signals2@boost@@Vmutex@45@@detail@signals2@boost@@@boost@@@std@@@std@@@std@@V?$connection_body@U?$pair@W4slot_meta_group@detail@signals2@boost@@V?$optional@H@4@@std@@V?$slot1@XAAVKeyEvent@app@cinder@@V?$function@$$A6AXAAVKeyEvent@app@cinder@@@Z@boost@@@signals2@boost@@Vmutex@45@@345@@detail@signals2@boost@@@?$EventCombiner@VKeyEvent@app@cinder@@@app@cinder@@QBEXV?$slot_call_iterator_t@Vslot_invoker@?$signal1_impl@XAAVKeyEvent@app@cinder@@U?$EventCombiner@VKeyEvent@app@cinder@@@23@HU?$less@H@std@@V?$function@$$A6AXAAVKeyEvent@app@cinder@@@Z@boost@@V?$function@$$A6AXABVconnection@signals2@boost@@AAVKeyEvent@app@cinder@@@Z@8@Vmutex@signals2@8@@detail@signals2@boost@@V?$_List_iterator@V?$_List_val@U?$_List_simple_types@V?$shared_ptr@V?$connection_body@U?$pair@W4slot_meta_group@detail@signals2@boost@@V?$optional@H@4@@std@@V?$slot1@XAAVKeyEvent@app@cinder@@V?$function@$$A6AXAAVKeyEvent@app@cinder@@@Z@boost@@@signals2@boost@@Vmutex@45@@detail@signals2@boost@@@boost@@@std@@@std@@@std@@V?$connection_body@U?$pair@W4slot_meta_group@detail@signals2@boost@@V?$optional@H@4@@std@@V?$slot1@XAAVKeyEvent@app@cinder@@V?$function@$$A6AXAAVKeyEvent@app@cinder@@@Z@boost@@@signals2@boost@@Vmutex@45@@345@@detail@signals2@boost@@0@Z 0040bf70 f i cinder:Window.obj
 0001:0000af70       ??$?RV?$slot_call_iterator_t@Vslot_invoker@?$signal1_impl@XAAVFileDropEvent@app@cinder@@U?$EventCombiner@VFileDropEvent@app@cinder@@@23@HU?$less@H@std@@V?$function@$$A6AXAAVFileDropEvent@app@cinder@@@Z@boost@@V?$function@$$A6AXABVconnection@signals2@boost@@AAVFileDropEvent@app@cinder@@@Z@8@Vmutex@signals2@8@@detail@signals2@boost@@V?$_List_iterator@V?$_List_val@U?$_List_simple_types@V?$shared_ptr@V?$connection_body@U?$pair@W4slot_meta_group@detail@signals2@boost@@V?$optional@H@4@@std@@V?$slot1@XAAVFileDropEvent@app@cinder@@V?$function@$$A6AXAAVFileDropEvent@app@cinder@@@Z@boost@@@signals2@boost@@Vmutex@45@@detail@signals2@boost@@@boost@@@std@@@std@@@std@@V?$connection_body@U?$pair@W4slot_meta_group@detail@signals2@boost@@V?$optional@H@4@@std@@V?$slot1@XAAVFileDropEvent@app@cinder@@V?$function@$$A6AXAAVFileDropEvent@app@cinder@@@Z@boost@@@signals2@boost@@Vmutex@45@@345@@detail@signals2@boost@@@?$EventCombiner@VFileDropEvent@app@cinder@@@app@cinder@@QBEXV?$slot_call_iterator_t@Vslot_invoker@?$signal1_impl@XAAVFileDropEvent@app@cinder@@U?$EventCombiner@VFileDropEvent@app@cinder@@@23@HU?$less@H@std@@V?$function@$$A6AXAAVFileDropEvent@app@cinder@@@Z@boost@@V?$function@$$A6AXABVconnection@signals2@boost@@AAVFileDropEvent@app@cinder@@@Z@8@Vmutex@signals2@8@@detail@signals2@boost@@V?$_List_iterator@V?$_List_val@U?$_List_simple_types@V?$shared_ptr@V?$connection_body@U?$pair@W4slot_meta_group@detail@signals2@boost@@V?$optional@H@4@@std@@V?$slot1@XAAVFileDropEvent@app@cinder@@V?$function@$$A6AXAAVFileDropEvent@app@cinder@@@Z@boost@@@signals2@boost@@Vmutex@45@@detail@signals2@boost@@@boost@@@std@@@std@@@std@@V?$connection_body@U?$pair@W4slot_meta_group@detail@signals2@boost@@V?$optional@H@4@@std@@V?$slot1@XAAVFileDropEvent@app@cinder@@V?$function@$$A6AXAAVFileDropEvent@app@cinder@@@Z@boost@@@signals2@boost@@Vmutex@45@@345@@detail@signals2@boost@@0@Z 0040bf70 f i cinder:Window.obj
 0001:0000af70       ??$?RV?$slot_call_iterator_t@Vslot_invoker@?$signal1_impl@XAAVMouseEvent@app@cinder@@U?$EventCombiner@VMouseEvent@app@cinder@@@23@HU?$less@H@std@@V?$function@$$A6AXAAVMouseEvent@app@cinder@@@Z@boost@@V?$function@$$A6AXABVconnection@signals2@boost@@AAVMouseEvent@app@cinder@@@Z@8@Vmutex@signals2@8@@detail@signals2@boost@@V?$_List_iterator@V?$_List_val@U?$_List_simple_types@V?$shared_ptr@V?$connection_body@U?$pair@W4slot_meta_group@detail@signals2@boost@@V?$optional@H@4@@std@@V?$slot1@XAAVMouseEvent@app@cinder@@V?$function@$$A6AXAAVMouseEvent@app@cinder@@@Z@boost@@@signals2@boost@@Vmutex@45@@detail@signals2@boost@@@boost@@@std@@@std@@@std@@V?$connection_body@U?$pair@W4slot_meta_group@detail@signals2@boost@@V?$optional@H@4@@std@@V?$slot1@XAAVMouseEvent@app@cinder@@V?$function@$$A6AXAAVMouseEvent@app@cinder@@@Z@boost@@@signals2@boost@@Vmutex@45@@345@@detail@signals2@boost@@@?$EventCombiner@VMouseEvent@app@cinder@@@app@cinder@@QBEXV?$slot_call_iterator_t@Vslot_invoker@?$signal1_impl@XAAVMouseEvent@app@cinder@@U?$EventCombiner@VMouseEvent@app@cinder@@@23@HU?$less@H@std@@V?$function@$$A6AXAAVMouseEvent@app@cinder@@@Z@boost@@V?$function@$$A6AXABVconnection@signals2@boost@@AAVMouseEvent@app@cinder@@@Z@8@Vmutex@signals2@8@@detail@signals2@boost@@V?$_List_iterator@V?$_List_val@U?$_List_simple_types@V?$shared_ptr@V?$connection_body@U?$pair@W4slot_meta_group@detail@signals2@boost@@V?$optional@H@4@@std@@V?$slot1@XAAVMouseEvent@app@cinder@@V?$function@$$A6AXAAVMouseEvent@app@cinder@@@Z@boost@@@signals2@boost@@Vmutex@45@@detail@signals2@boost@@@boost@@@std@@@std@@@std@@V?$connection_body@U?$pair@W4slot_meta_group@detail@signals2@boost@@V?$optional@H@4@@std@@V?$slot1@XAAVMouseEvent@app@cinder@@V?$function@$$A6AXAAVMouseEvent@app@cinder@@@Z@boost@@@signals2@boost@@Vmutex@45@@345@@detail@signals2@boost@@0@Z 0040bf70 f i cinder:Window.obj
 0001:0000afc0       ??$?RV?$weak_ptr@X@boost@@@lock_weak_ptr_visitor@detail@signals2@boost@@QBE?AV?$variant@V?$shared_ptr@X@boost@@Vforeign_void_shared_ptr@detail@signals2@2@Uvoid_@042@U6042@U6042@U6042@U6042@U6042@U6042@U6042@U6042@U6042@U6042@U6042@U6042@U6042@U6042@U6042@U6042@U6042@@3@ABV?$weak_ptr@X@3@@Z 0040bfc0 f i cinder:Window.obj
 0001:0000b080       ??$?RVforeign_void_weak_ptr@detail@signals2@boost@@@lock_weak_ptr_visitor@detail@signals2@boost@@QBE?AV?$variant@V?$shared_ptr@X@boost@@Vforeign_void_shared_ptr@detail@signals2@2@Uvoid_@042@U6042@U6042@U6042@U6042@U6042@U6042@U6042@U6042@U6042@U6042@U6042@U6042@U6042@U6042@U6042@U6042@U6042@@3@ABVforeign_void_weak_ptr@123@@Z 0040c080 f i cinder:Window.obj
 0001:0000b120       ??$_Buynode@ABV?$shared_ptr@V?$connection_body@U?$pair@W4slot_meta_group@detail@signals2@boost@@V?$optional@H@4@@std@@V?$slot1@XAAVMouseEvent@app@cinder@@V?$function@$$A6AXAAVMouseEvent@app@cinder@@@Z@boost@@@signals2@boost@@Vmutex@45@@detail@signals2@boost@@@boost@@@?$_List_buy@V?$shared_ptr@V?$connection_body@U?$pair@W4slot_meta_group@detail@signals2@boost@@V?$optional@H@4@@std@@V?$slot1@XAAVMouseEvent@app@cinder@@V?$function@$$A6AXAAVMouseEvent@app@cinder@@@Z@boost@@@signals2@boost@@Vmutex@45@@detail@signals2@boost@@@boost@@V?$allocator@V?$shared_ptr@V?$connection_body@U?$pair@W4slot_meta_group@detail@signals2@boost@@V?$optional@H@4@@std@@V?$slot1@XAAVMouseEvent@app@cinder@@V?$function@$$A6AXAAVMouseEvent@app@cinder@@@Z@boost@@@signals2@boost@@Vmutex@45@@detail@signals2@boost@@@boost@@@std@@@std@@QAEPAU?$_List_node@V?$shared_ptr@V?$connection_body@U?$pair@W4slot_meta_group@detail@signals2@boost@@V?$optional@H@4@@std@@V?$slot1@XAAVMouseEvent@app@cinder@@V?$function@$$A6AXAAVMouseEvent@app@cinder@@@Z@boost@@@signals2@boost@@Vmutex@45@@detail@signals2@boost@@@boost@@PAX@1@PAU21@0ABV?$shared_ptr@V?$connection_body@U?$pair@W4slot_meta_group@detail@signals2@boost@@V?$optional@H@4@@std@@V?$slot1@XAAVMouseEvent@app@cinder@@V?$function@$$A6AXAAVMouseEvent@app@cinder@@@Z@boost@@@signals2@boost@@Vmutex@45@@detail@signals2@boost@@@boost@@@Z 0040c120 f i cinder:Window.obj
 0001:0000b120       ??$_Buynode@ABV?$shared_ptr@V?$connection_body@U?$pair@W4slot_meta_group@detail@signals2@boost@@V?$optional@H@4@@std@@V?$slot0@XV?$function@$$A6AXXZ@boost@@@signals2@boost@@Vmutex@45@@detail@signals2@boost@@@boost@@@?$_List_buy@V?$shared_ptr@V?$connection_body@U?$pair@W4slot_meta_group@detail@signals2@boost@@V?$optional@H@4@@std@@V?$slot0@XV?$function@$$A6AXXZ@boost@@@signals2@boost@@Vmutex@45@@detail@signals2@boost@@@boost@@V?$allocator@V?$shared_ptr@V?$connection_body@U?$pair@W4slot_meta_group@detail@signals2@boost@@V?$optional@H@4@@std@@V?$slot0@XV?$function@$$A6AXXZ@boost@@@signals2@boost@@Vmutex@45@@detail@signals2@boost@@@boost@@@std@@@std@@QAEPAU?$_List_node@V?$shared_ptr@V?$connection_body@U?$pair@W4slot_meta_group@detail@signals2@boost@@V?$optional@H@4@@std@@V?$slot0@XV?$function@$$A6AXXZ@boost@@@signals2@boost@@Vmutex@45@@detail@signals2@boost@@@boost@@PAX@1@PAU21@0ABV?$shared_ptr@V?$connection_body@U?$pair@W4slot_meta_group@detail@signals2@boost@@V?$optional@H@4@@std@@V?$slot0@XV?$function@$$A6AXXZ@boost@@@signals2@boost@@Vmutex@45@@detail@signals2@boost@@@boost@@@Z 0040c120 f i cinder:Window.obj
 0001:0000b120       ??$_Buynode@ABV?$shared_ptr@V?$connection_body@U?$pair@W4slot_meta_group@detail@signals2@boost@@V?$optional@H@4@@std@@V?$slot1@XAAVTouchEvent@app@cinder@@V?$function@$$A6AXAAVTouchEvent@app@cinder@@@Z@boost@@@signals2@boost@@Vmutex@45@@detail@signals2@boost@@@boost@@@?$_List_buy@V?$shared_ptr@V?$connection_body@U?$pair@W4slot_meta_group@detail@signals2@boost@@V?$optional@H@4@@std@@V?$slot1@XAAVTouchEvent@app@cinder@@V?$function@$$A6AXAAVTouchEvent@app@cinder@@@Z@boost@@@signals2@boost@@Vmutex@45@@detail@signals2@boost@@@boost@@V?$allocator@V?$shared_ptr@V?$connection_body@U?$pair@W4slot_meta_group@detail@signals2@boost@@V?$optional@H@4@@std@@V?$slot1@XAAVTouchEvent@app@cinder@@V?$function@$$A6AXAAVTouchEvent@app@cinder@@@Z@boost@@@signals2@boost@@Vmutex@45@@detail@signals2@boost@@@boost@@@std@@@std@@QAEPAU?$_List_node@V?$shared_ptr@V?$connection_body@U?$pair@W4slot_meta_group@detail@signals2@boost@@V?$optional@H@4@@std@@V?$slot1@XAAVTouchEvent@app@cinder@@V?$function@$$A6AXAAVTouchEvent@app@cinder@@@Z@boost@@@signals2@boost@@Vmutex@45@@detail@signals2@boost@@@boost@@PAX@1@PAU21@0ABV?$shared_ptr@V?$connection_body@U?$pair@W4slot_meta_group@detail@signals2@boost@@V?$optional@H@4@@std@@V?$slot1@XAAVTouchEvent@app@cinder@@V?$function@$$A6AXAAVTouchEvent@app@cinder@@@Z@boost@@@signals2@boost@@Vmutex@45@@detail@signals2@boost@@@boost@@@Z 0040c120 f i cinder:Window.obj
 0001:0000b120       ??$_Buynode@ABV?$shared_ptr@V?$connection_body@U?$pair@W4slot_meta_group@detail@signals2@boost@@V?$optional@H@4@@std@@V?$slot0@_NV?$function@$$A6A_NXZ@boost@@@signals2@boost@@Vmutex@45@@detail@signals2@boost@@@boost@@@?$_List_buy@V?$shared_ptr@V?$connection_body@U?$pair@W4slot_meta_group@detail@signals2@boost@@V?$optional@H@4@@std@@V?$slot0@_NV?$function@$$A6A_NXZ@boost@@@signals2@boost@@Vmutex@45@@detail@signals2@boost@@@boost@@V?$allocator@V?$shared_ptr@V?$connection_body@U?$pair@W4slot_meta_group@detail@signals2@boost@@V?$optional@H@4@@std@@V?$slot0@_NV?$function@$$A6A_NXZ@boost@@@signals2@boost@@Vmutex@45@@detail@signals2@boost@@@boost@@@std@@@std@@QAEPAU?$_List_node@V?$shared_ptr@V?$connection_body@U?$pair@W4slot_meta_group@detail@signals2@boost@@V?$optional@H@4@@std@@V?$slot0@_NV?$function@$$A6A_NXZ@boost@@@signals2@boost@@Vmutex@45@@detail@signals2@boost@@@boost@@PAX@1@PAU21@0ABV?$shared_ptr@V?$connection_body@U?$pair@W4slot_meta_group@detail@signals2@boost@@V?$optional@H@4@@std@@V?$slot0@_NV?$function@$$A6A_NXZ@boost@@@signals2@boost@@Vmutex@45@@detail@signals2@boost@@@boost@@@Z 0040c120 f i cinder:AppBasic.obj
 0001:0000b120       ??$_Buynode@ABV?$shared_ptr@V?$connection_body@U?$pair@W4slot_meta_group@detail@signals2@boost@@V?$optional@H@4@@std@@V?$slot1@XAAVFileDropEvent@app@cinder@@V?$function@$$A6AXAAVFileDropEvent@app@cinder@@@Z@boost@@@signals2@boost@@Vmutex@45@@detail@signals2@boost@@@boost@@@?$_List_buy@V?$shared_ptr@V?$connection_body@U?$pair@W4slot_meta_group@detail@signals2@boost@@V?$optional@H@4@@std@@V?$slot1@XAAVFileDropEvent@app@cinder@@V?$function@$$A6AXAAVFileDropEvent@app@cinder@@@Z@boost@@@signals2@boost@@Vmutex@45@@detail@signals2@boost@@@boost@@V?$allocator@V?$shared_ptr@V?$connection_body@U?$pair@W4slot_meta_group@detail@signals2@boost@@V?$optional@H@4@@std@@V?$slot1@XAAVFileDropEvent@app@cinder@@V?$function@$$A6AXAAVFileDropEvent@app@cinder@@@Z@boost@@@signals2@boost@@Vmutex@45@@detail@signals2@boost@@@boost@@@std@@@std@@QAEPAU?$_List_node@V?$shared_ptr@V?$connection_body@U?$pair@W4slot_meta_group@detail@signals2@boost@@V?$optional@H@4@@std@@V?$slot1@XAAVFileDropEvent@app@cinder@@V?$function@$$A6AXAAVFileDropEvent@app@cinder@@@Z@boost@@@signals2@boost@@Vmutex@45@@detail@signals2@boost@@@boost@@PAX@1@PAU21@0ABV?$shared_ptr@V?$connection_body@U?$pair@W4slot_meta_group@detail@signals2@boost@@V?$optional@H@4@@std@@V?$slot1@XAAVFileDropEvent@app@cinder@@V?$function@$$A6AXAAVFileDropEvent@app@cinder@@@Z@boost@@@signals2@boost@@Vmutex@45@@detail@signals2@boost@@@boost@@@Z 0040c120 f i cinder:Window.obj
 0001:0000b120       ??$_Buynode@ABV?$shared_ptr@V?$connection_body@U?$pair@W4slot_meta_group@detail@signals2@boost@@V?$optional@H@4@@std@@V?$slot1@XAAVKeyEvent@app@cinder@@V?$function@$$A6AXAAVKeyEvent@app@cinder@@@Z@boost@@@signals2@boost@@Vmutex@45@@detail@signals2@boost@@@boost@@@?$_List_buy@V?$shared_ptr@V?$connection_body@U?$pair@W4slot_meta_group@detail@signals2@boost@@V?$optional@H@4@@std@@V?$slot1@XAAVKeyEvent@app@cinder@@V?$function@$$A6AXAAVKeyEvent@app@cinder@@@Z@boost@@@signals2@boost@@Vmutex@45@@detail@signals2@boost@@@boost@@V?$allocator@V?$shared_ptr@V?$connection_body@U?$pair@W4slot_meta_group@detail@signals2@boost@@V?$optional@H@4@@std@@V?$slot1@XAAVKeyEvent@app@cinder@@V?$function@$$A6AXAAVKeyEvent@app@cinder@@@Z@boost@@@signals2@boost@@Vmutex@45@@detail@signals2@boost@@@boost@@@std@@@std@@QAEPAU?$_List_node@V?$shared_ptr@V?$connection_body@U?$pair@W4slot_meta_group@detail@signals2@boost@@V?$optional@H@4@@std@@V?$slot1@XAAVKeyEvent@app@cinder@@V?$function@$$A6AXAAVKeyEvent@app@cinder@@@Z@boost@@@signals2@boost@@Vmutex@45@@detail@signals2@boost@@@boost@@PAX@1@PAU21@0ABV?$shared_ptr@V?$connection_body@U?$pair@W4slot_meta_group@detail@signals2@boost@@V?$optional@H@4@@std@@V?$slot1@XAAVKeyEvent@app@cinder@@V?$function@$$A6AXAAVKeyEvent@app@cinder@@@Z@boost@@@signals2@boost@@Vmutex@45@@detail@signals2@boost@@@boost@@@Z 0040c120 f i cinder:Window.obj
 0001:0000b160       ??$_Buynode@U?$pair@U?$pair@W4slot_meta_group@detail@signals2@boost@@V?$optional@H@4@@std@@V?$_List_iterator@V?$_List_val@U?$_List_simple_types@V?$shared_ptr@V?$connection_body@U?$pair@W4slot_meta_group@detail@signals2@boost@@V?$optional@H@4@@std@@V?$slot1@XAAVMouseEvent@app@cinder@@V?$function@$$A6AXAAVMouseEvent@app@cinder@@@Z@boost@@@signals2@boost@@Vmutex@45@@detail@signals2@boost@@@boost@@@std@@@std@@@2@@std@@@?$_Tree_buy@U?$pair@$$CBU?$pair@W4slot_meta_group@detail@signals2@boost@@V?$optional@H@4@@std@@V?$_List_iterator@V?$_List_val@U?$_List_simple_types@V?$shared_ptr@V?$connection_body@U?$pair@W4slot_meta_group@detail@signals2@boost@@V?$optional@H@4@@std@@V?$slot1@XAAVMouseEvent@app@cinder@@V?$function@$$A6AXAAVMouseEvent@app@cinder@@@Z@boost@@@signals2@boost@@Vmutex@45@@detail@signals2@boost@@@boost@@@std@@@std@@@2@@std@@V?$allocator@U?$pair@$$CBU?$pair@W4slot_meta_group@detail@signals2@boost@@V?$optional@H@4@@std@@V?$_List_iterator@V?$_List_val@U?$_List_simple_types@V?$shared_ptr@V?$connection_body@U?$pair@W4slot_meta_group@detail@signals2@boost@@V?$optional@H@4@@std@@V?$slot1@XAAVMouseEvent@app@cinder@@V?$function@$$A6AXAAVMouseEvent@app@cinder@@@Z@boost@@@signals2@boost@@Vmutex@45@@detail@signals2@boost@@@boost@@@std@@@std@@@2@@std@@@2@@std@@QAEPAU?$_Tree_node@U?$pair@$$CBU?$pair@W4slot_meta_group@detail@signals2@boost@@V?$optional@H@4@@std@@V?$_List_iterator@V?$_List_val@U?$_List_simple_types@V?$shared_ptr@V?$connection_body@U?$pair@W4slot_meta_group@detail@signals2@boost@@V?$optional@H@4@@std@@V?$slot1@XAAVMouseEvent@app@cinder@@V?$function@$$A6AXAAVMouseEvent@app@cinder@@@Z@boost@@@signals2@boost@@Vmutex@45@@detail@signals2@boost@@@boost@@@std@@@std@@@2@@std@@PAX@1@$$QAU?$pair@U?$pair@W4slot_meta_group@detail@signals2@boost@@V?$optional@H@4@@std@@V?$_List_iterator@V?$_List_val@U?$_List_simple_types@V?$shared_ptr@V?$connection_body@U?$pair@W4slot_meta_group@detail@signals2@boost@@V?$optional@H@4@@std@@V?$slot1@XAAVMouseEvent@app@cinder@@V?$function@$$A6AXAAVMouseEvent@app@cinder@@@Z@boost@@@signals2@boost@@Vmutex@45@@detail@signals2@boost@@@boost@@@std@@@std@@@2@@1@@Z 0040c160 f i cinder:Window.obj
 0001:0000b160       ??$_Buynode@AAU?$pair@$$CBU?$pair@W4slot_meta_group@detail@signals2@boost@@V?$optional@H@4@@std@@V?$_List_iterator@V?$_List_val@U?$_List_simple_types@V?$shared_ptr@V?$connection_body@U?$pair@W4slot_meta_group@detail@signals2@boost@@V?$optional@H@4@@std@@V?$slot1@XAAVKeyEvent@app@cinder@@V?$function@$$A6AXAAVKeyEvent@app@cinder@@@Z@boost@@@signals2@boost@@Vmutex@45@@detail@signals2@boost@@@boost@@@std@@@std@@@2@@std@@@?$_Tree_buy@U?$pair@$$CBU?$pair@W4slot_meta_group@detail@signals2@boost@@V?$optional@H@4@@std@@V?$_List_iterator@V?$_List_val@U?$_List_simple_types@V?$shared_ptr@V?$connection_body@U?$pair@W4slot_meta_group@detail@signals2@boost@@V?$optional@H@4@@std@@V?$slot1@XAAVKeyEvent@app@cinder@@V?$function@$$A6AXAAVKeyEvent@app@cinder@@@Z@boost@@@signals2@boost@@Vmutex@45@@detail@signals2@boost@@@boost@@@std@@@std@@@2@@std@@V?$allocator@U?$pair@$$CBU?$pair@W4slot_meta_group@detail@signals2@boost@@V?$optional@H@4@@std@@V?$_List_iterator@V?$_List_val@U?$_List_simple_types@V?$shared_ptr@V?$connection_body@U?$pair@W4slot_meta_group@detail@signals2@boost@@V?$optional@H@4@@std@@V?$slot1@XAAVKeyEvent@app@cinder@@V?$function@$$A6AXAAVKeyEvent@app@cinder@@@Z@boost@@@signals2@boost@@Vmutex@45@@detail@signals2@boost@@@boost@@@std@@@std@@@2@@std@@@2@@std@@QAEPAU?$_Tree_node@U?$pair@$$CBU?$pair@W4slot_meta_group@detail@signals2@boost@@V?$optional@H@4@@std@@V?$_List_iterator@V?$_List_val@U?$_List_simple_types@V?$shared_ptr@V?$connection_body@U?$pair@W4slot_meta_group@detail@signals2@boost@@V?$optional@H@4@@std@@V?$slot1@XAAVKeyEvent@app@cinder@@V?$function@$$A6AXAAVKeyEvent@app@cinder@@@Z@boost@@@signals2@boost@@Vmutex@45@@detail@signals2@boost@@@boost@@@std@@@std@@@2@@std@@PAX@1@AAU?$pair@$$CBU?$pair@W4slot_meta_group@detail@signals2@boost@@V?$optional@H@4@@std@@V?$_List_iterator@V?$_List_val@U?$_List_simple_types@V?$shared_ptr@V?$connection_body@U?$pair@W4slot_meta_group@detail@signals2@boost@@V?$optional@H@4@@std@@V?$slot1@XAAVKeyEvent@app@cinder@@V?$function@$$A6AXAAVKeyEvent@app@cinder@@@Z@boost@@@signals2@boost@@Vmutex@45@@detail@signals2@boost@@@boost@@@std@@@std@@@2@@1@@Z 0040c160 f i cinder:Window.obj
 0001:0000b160       ??$_Buynode@U?$pair@U?$pair@W4slot_meta_group@detail@signals2@boost@@V?$optional@H@4@@std@@V?$_List_iterator@V?$_List_val@U?$_List_simple_types@V?$shared_ptr@V?$connection_body@U?$pair@W4slot_meta_group@detail@signals2@boost@@V?$optional@H@4@@std@@V?$slot1@XAAVTouchEvent@app@cinder@@V?$function@$$A6AXAAVTouchEvent@app@cinder@@@Z@boost@@@signals2@boost@@Vmutex@45@@detail@signals2@boost@@@boost@@@std@@@std@@@2@@std@@@?$_Tree_buy@U?$pair@$$CBU?$pair@W4slot_meta_group@detail@signals2@boost@@V?$optional@H@4@@std@@V?$_List_iterator@V?$_List_val@U?$_List_simple_types@V?$shared_ptr@V?$connection_body@U?$pair@W4slot_meta_group@detail@signals2@boost@@V?$optional@H@4@@std@@V?$slot1@XAAVTouchEvent@app@cinder@@V?$function@$$A6AXAAVTouchEvent@app@cinder@@@Z@boost@@@signals2@boost@@Vmutex@45@@detail@signals2@boost@@@boost@@@std@@@std@@@2@@std@@V?$allocator@U?$pair@$$CBU?$pair@W4slot_meta_group@detail@signals2@boost@@V?$optional@H@4@@std@@V?$_List_iterator@V?$_List_val@U?$_List_simple_types@V?$shared_ptr@V?$connection_body@U?$pair@W4slot_meta_group@detail@signals2@boost@@V?$optional@H@4@@std@@V?$slot1@XAAVTouchEvent@app@cinder@@V?$function@$$A6AXAAVTouchEvent@app@cinder@@@Z@boost@@@signals2@boost@@Vmutex@45@@detail@signals2@boost@@@boost@@@std@@@std@@@2@@std@@@2@@std@@QAEPAU?$_Tree_node@U?$pair@$$CBU?$pair@W4slot_meta_group@detail@signals2@boost@@V?$optional@H@4@@std@@V?$_List_iterator@V?$_List_val@U?$_List_simple_types@V?$shared_ptr@V?$connection_body@U?$pair@W4slot_meta_group@detail@signals2@boost@@V?$optional@H@4@@std@@V?$slot1@XAAVTouchEvent@app@cinder@@V?$function@$$A6AXAAVTouchEvent@app@cinder@@@Z@boost@@@signals2@boost@@Vmutex@45@@detail@signals2@boost@@@boost@@@std@@@std@@@2@@std@@PAX@1@$$QAU?$pair@U?$pair@W4slot_meta_group@detail@signals2@boost@@V?$optional@H@4@@std@@V?$_List_iterator@V?$_List_val@U?$_List_simple_types@V?$shared_ptr@V?$connection_body@U?$pair@W4slot_meta_group@detail@signals2@boost@@V?$optional@H@4@@std@@V?$slot1@XAAVTouchEvent@app@cinder@@V?$function@$$A6AXAAVTouchEvent@app@cinder@@@Z@boost@@@signals2@boost@@Vmutex@45@@detail@signals2@boost@@@boost@@@std@@@std@@@2@@1@@Z 0040c160 f i cinder:Window.obj
 0001:0000b160       ??$_Buynode@AAU?$pair@$$CBU?$pair@W4slot_meta_group@detail@signals2@boost@@V?$optional@H@4@@std@@V?$_List_iterator@V?$_List_val@U?$_List_simple_types@V?$shared_ptr@V?$connection_body@U?$pair@W4slot_meta_group@detail@signals2@boost@@V?$optional@H@4@@std@@V?$slot1@XAAVFileDropEvent@app@cinder@@V?$function@$$A6AXAAVFileDropEvent@app@cinder@@@Z@boost@@@signals2@boost@@Vmutex@45@@detail@signals2@boost@@@boost@@@std@@@std@@@2@@std@@@?$_Tree_buy@U?$pair@$$CBU?$pair@W4slot_meta_group@detail@signals2@boost@@V?$optional@H@4@@std@@V?$_List_iterator@V?$_List_val@U?$_List_simple_types@V?$shared_ptr@V?$connection_body@U?$pair@W4slot_meta_group@detail@signals2@boost@@V?$optional@H@4@@std@@V?$slot1@XAAVFileDropEvent@app@cinder@@V?$function@$$A6AXAAVFileDropEvent@app@cinder@@@Z@boost@@@signals2@boost@@Vmutex@45@@detail@signals2@boost@@@boost@@@std@@@std@@@2@@std@@V?$allocator@U?$pair@$$CBU?$pair@W4slot_meta_group@detail@signals2@boost@@V?$optional@H@4@@std@@V?$_List_iterator@V?$_List_val@U?$_List_simple_types@V?$shared_ptr@V?$connection_body@U?$pair@W4slot_meta_group@detail@signals2@boost@@V?$optional@H@4@@std@@V?$slot1@XAAVFileDropEvent@app@cinder@@V?$function@$$A6AXAAVFileDropEvent@app@cinder@@@Z@boost@@@signals2@boost@@Vmutex@45@@detail@signals2@boost@@@boost@@@std@@@std@@@2@@std@@@2@@std@@QAEPAU?$_Tree_node@U?$pair@$$CBU?$pair@W4slot_meta_group@detail@signals2@boost@@V?$optional@H@4@@std@@V?$_List_iterator@V?$_List_val@U?$_List_simple_types@V?$shared_ptr@V?$connection_body@U?$pair@W4slot_meta_group@detail@signals2@boost@@V?$optional@H@4@@std@@V?$slot1@XAAVFileDropEvent@app@cinder@@V?$function@$$A6AXAAVFileDropEvent@app@cinder@@@Z@boost@@@signals2@boost@@Vmutex@45@@detail@signals2@boost@@@boost@@@std@@@std@@@2@@std@@PAX@1@AAU?$pair@$$CBU?$pair@W4slot_meta_group@detail@signals2@boost@@V?$optional@H@4@@std@@V?$_List_iterator@V?$_List_val@U?$_List_simple_types@V?$shared_ptr@V?$connection_body@U?$pair@W4slot_meta_group@detail@signals2@boost@@V?$optional@H@4@@std@@V?$slot1@XAAVFileDropEvent@app@cinder@@V?$function@$$A6AXAAVFileDropEvent@app@cinder@@@Z@boost@@@signals2@boost@@Vmutex@45@@detail@signals2@boost@@@boost@@@std@@@std@@@2@@1@@Z 0040c160 f i cinder:Window.obj
 0001:0000b160       ??$_Buynode@AAU?$pair@$$CBU?$pair@W4slot_meta_group@detail@signals2@boost@@V?$optional@H@4@@std@@V?$_List_iterator@V?$_List_val@U?$_List_simple_types@V?$shared_ptr@V?$connection_body@U?$pair@W4slot_meta_group@detail@signals2@boost@@V?$optional@H@4@@std@@V?$slot1@XAAVMouseEvent@app@cinder@@V?$function@$$A6AXAAVMouseEvent@app@cinder@@@Z@boost@@@signals2@boost@@Vmutex@45@@detail@signals2@boost@@@boost@@@std@@@std@@@2@@std@@@?$_Tree_buy@U?$pair@$$CBU?$pair@W4slot_meta_group@detail@signals2@boost@@V?$optional@H@4@@std@@V?$_List_iterator@V?$_List_val@U?$_List_simple_types@V?$shared_ptr@V?$connection_body@U?$pair@W4slot_meta_group@detail@signals2@boost@@V?$optional@H@4@@std@@V?$slot1@XAAVMouseEvent@app@cinder@@V?$function@$$A6AXAAVMouseEvent@app@cinder@@@Z@boost@@@signals2@boost@@Vmutex@45@@detail@signals2@boost@@@boost@@@std@@@std@@@2@@std@@V?$allocator@U?$pair@$$CBU?$pair@W4slot_meta_group@detail@signals2@boost@@V?$optional@H@4@@std@@V?$_List_iterator@V?$_List_val@U?$_List_simple_types@V?$shared_ptr@V?$connection_body@U?$pair@W4slot_meta_group@detail@signals2@boost@@V?$optional@H@4@@std@@V?$slot1@XAAVMouseEvent@app@cinder@@V?$function@$$A6AXAAVMouseEvent@app@cinder@@@Z@boost@@@signals2@boost@@Vmutex@45@@detail@signals2@boost@@@boost@@@std@@@std@@@2@@std@@@2@@std@@QAEPAU?$_Tree_node@U?$pair@$$CBU?$pair@W4slot_meta_group@detail@signals2@boost@@V?$optional@H@4@@std@@V?$_List_iterator@V?$_List_val@U?$_List_simple_types@V?$shared_ptr@V?$connection_body@U?$pair@W4slot_meta_group@detail@signals2@boost@@V?$optional@H@4@@std@@V?$slot1@XAAVMouseEvent@app@cinder@@V?$function@$$A6AXAAVMouseEvent@app@cinder@@@Z@boost@@@signals2@boost@@Vmutex@45@@detail@signals2@boost@@@boost@@@std@@@std@@@2@@std@@PAX@1@AAU?$pair@$$CBU?$pair@W4slot_meta_group@detail@signals2@boost@@V?$optional@H@4@@std@@V?$_List_iterator@V?$_List_val@U?$_List_simple_types@V?$shared_ptr@V?$connection_body@U?$pair@W4slot_meta_group@detail@signals2@boost@@V?$optional@H@4@@std@@V?$slot1@XAAVMouseEvent@app@cinder@@V?$function@$$A6AXAAVMouseEvent@app@cinder@@@Z@boost@@@signals2@boost@@Vmutex@45@@detail@signals2@boost@@@boost@@@std@@@std@@@2@@1@@Z 0040c160 f i cinder:Window.obj
 0001:0000b160       ??$_Buynode@U?$pair@U?$pair@W4slot_meta_group@detail@signals2@boost@@V?$optional@H@4@@std@@V?$_List_iterator@V?$_List_val@U?$_List_simple_types@V?$shared_ptr@V?$connection_body@U?$pair@W4slot_meta_group@detail@signals2@boost@@V?$optional@H@4@@std@@V?$slot1@XAAVKeyEvent@app@cinder@@V?$function@$$A6AXAAVKeyEvent@app@cinder@@@Z@boost@@@signals2@boost@@Vmutex@45@@detail@signals2@boost@@@boost@@@std@@@std@@@2@@std@@@?$_Tree_buy@U?$pair@$$CBU?$pair@W4slot_meta_group@detail@signals2@boost@@V?$optional@H@4@@std@@V?$_List_iterator@V?$_List_val@U?$_List_simple_types@V?$shared_ptr@V?$connection_body@U?$pair@W4slot_meta_group@detail@signals2@boost@@V?$optional@H@4@@std@@V?$slot1@XAAVKeyEvent@app@cinder@@V?$function@$$A6AXAAVKeyEvent@app@cinder@@@Z@boost@@@signals2@boost@@Vmutex@45@@detail@signals2@boost@@@boost@@@std@@@std@@@2@@std@@V?$allocator@U?$pair@$$CBU?$pair@W4slot_meta_group@detail@signals2@boost@@V?$optional@H@4@@std@@V?$_List_iterator@V?$_List_val@U?$_List_simple_types@V?$shared_ptr@V?$connection_body@U?$pair@W4slot_meta_group@detail@signals2@boost@@V?$optional@H@4@@std@@V?$slot1@XAAVKeyEvent@app@cinder@@V?$function@$$A6AXAAVKeyEvent@app@cinder@@@Z@boost@@@signals2@boost@@Vmutex@45@@detail@signals2@boost@@@boost@@@std@@@std@@@2@@std@@@2@@std@@QAEPAU?$_Tree_node@U?$pair@$$CBU?$pair@W4slot_meta_group@detail@signals2@boost@@V?$optional@H@4@@std@@V?$_List_iterator@V?$_List_val@U?$_List_simple_types@V?$shared_ptr@V?$connection_body@U?$pair@W4slot_meta_group@detail@signals2@boost@@V?$optional@H@4@@std@@V?$slot1@XAAVKeyEvent@app@cinder@@V?$function@$$A6AXAAVKeyEvent@app@cinder@@@Z@boost@@@signals2@boost@@Vmutex@45@@detail@signals2@boost@@@boost@@@std@@@std@@@2@@std@@PAX@1@$$QAU?$pair@U?$pair@W4slot_meta_group@detail@signals2@boost@@V?$optional@H@4@@std@@V?$_List_iterator@V?$_List_val@U?$_List_simple_types@V?$shared_ptr@V?$connection_body@U?$pair@W4slot_meta_group@detail@signals2@boost@@V?$optional@H@4@@std@@V?$slot1@XAAVKeyEvent@app@cinder@@V?$function@$$A6AXAAVKeyEvent@app@cinder@@@Z@boost@@@signals2@boost@@Vmutex@45@@detail@signals2@boost@@@boost@@@std@@@std@@@2@@1@@Z 0040c160 f i cinder:Window.obj
 0001:0000b160       ??$_Buynode@AAU?$pair@$$CBU?$pair@W4slot_meta_group@detail@signals2@boost@@V?$optional@H@4@@std@@V?$_List_iterator@V?$_List_val@U?$_List_simple_types@V?$shared_ptr@V?$connection_body@U?$pair@W4slot_meta_group@detail@signals2@boost@@V?$optional@H@4@@std@@V?$slot0@_NV?$function@$$A6A_NXZ@boost@@@signals2@boost@@Vmutex@45@@detail@signals2@boost@@@boost@@@std@@@std@@@2@@std@@@?$_Tree_buy@U?$pair@$$CBU?$pair@W4slot_meta_group@detail@signals2@boost@@V?$optional@H@4@@std@@V?$_List_iterator@V?$_List_val@U?$_List_simple_types@V?$shared_ptr@V?$connection_body@U?$pair@W4slot_meta_group@detail@signals2@boost@@V?$optional@H@4@@std@@V?$slot0@_NV?$function@$$A6A_NXZ@boost@@@signals2@boost@@Vmutex@45@@detail@signals2@boost@@@boost@@@std@@@std@@@2@@std@@V?$allocator@U?$pair@$$CBU?$pair@W4slot_meta_group@detail@signals2@boost@@V?$optional@H@4@@std@@V?$_List_iterator@V?$_List_val@U?$_List_simple_types@V?$shared_ptr@V?$connection_body@U?$pair@W4slot_meta_group@detail@signals2@boost@@V?$optional@H@4@@std@@V?$slot0@_NV?$function@$$A6A_NXZ@boost@@@signals2@boost@@Vmutex@45@@detail@signals2@boost@@@boost@@@std@@@std@@@2@@std@@@2@@std@@QAEPAU?$_Tree_node@U?$pair@$$CBU?$pair@W4slot_meta_group@detail@signals2@boost@@V?$optional@H@4@@std@@V?$_List_iterator@V?$_List_val@U?$_List_simple_types@V?$shared_ptr@V?$connection_body@U?$pair@W4slot_meta_group@detail@signals2@boost@@V?$optional@H@4@@std@@V?$slot0@_NV?$function@$$A6A_NXZ@boost@@@signals2@boost@@Vmutex@45@@detail@signals2@boost@@@boost@@@std@@@std@@@2@@std@@PAX@1@AAU?$pair@$$CBU?$pair@W4slot_meta_group@detail@signals2@boost@@V?$optional@H@4@@std@@V?$_List_iterator@V?$_List_val@U?$_List_simple_types@V?$shared_ptr@V?$connection_body@U?$pair@W4slot_meta_group@detail@signals2@boost@@V?$optional@H@4@@std@@V?$slot0@_NV?$function@$$A6A_NXZ@boost@@@signals2@boost@@Vmutex@45@@detail@signals2@boost@@@boost@@@std@@@std@@@2@@1@@Z 0040c160 f i cinder:AppBasic.obj
 0001:0000b160       ??$_Buynode@U?$pair@U?$pair@W4slot_meta_group@detail@signals2@boost@@V?$optional@H@4@@std@@V?$_List_iterator@V?$_List_val@U?$_List_simple_types@V?$shared_ptr@V?$connection_body@U?$pair@W4slot_meta_group@detail@signals2@boost@@V?$optional@H@4@@std@@V?$slot1@XAAVFileDropEvent@app@cinder@@V?$function@$$A6AXAAVFileDropEvent@app@cinder@@@Z@boost@@@signals2@boost@@Vmutex@45@@detail@signals2@boost@@@boost@@@std@@@std@@@2@@std@@@?$_Tree_buy@U?$pair@$$CBU?$pair@W4slot_meta_group@detail@signals2@boost@@V?$optional@H@4@@std@@V?$_List_iterator@V?$_List_val@U?$_List_simple_types@V?$shared_ptr@V?$connection_body@U?$pair@W4slot_meta_group@detail@signals2@boost@@V?$optional@H@4@@std@@V?$slot1@XAAVFileDropEvent@app@cinder@@V?$function@$$A6AXAAVFileDropEvent@app@cinder@@@Z@boost@@@signals2@boost@@Vmutex@45@@detail@signals2@boost@@@boost@@@std@@@std@@@2@@std@@V?$allocator@U?$pair@$$CBU?$pair@W4slot_meta_group@detail@signals2@boost@@V?$optional@H@4@@std@@V?$_List_iterator@V?$_List_val@U?$_List_simple_types@V?$shared_ptr@V?$connection_body@U?$pair@W4slot_meta_group@detail@signals2@boost@@V?$optional@H@4@@std@@V?$slot1@XAAVFileDropEvent@app@cinder@@V?$function@$$A6AXAAVFileDropEvent@app@cinder@@@Z@boost@@@signals2@boost@@Vmutex@45@@detail@signals2@boost@@@boost@@@std@@@std@@@2@@std@@@2@@std@@QAEPAU?$_Tree_node@U?$pair@$$CBU?$pair@W4slot_meta_group@detail@signals2@boost@@V?$optional@H@4@@std@@V?$_List_iterator@V?$_List_val@U?$_List_simple_types@V?$shared_ptr@V?$connection_body@U?$pair@W4slot_meta_group@detail@signals2@boost@@V?$optional@H@4@@std@@V?$slot1@XAAVFileDropEvent@app@cinder@@V?$function@$$A6AXAAVFileDropEvent@app@cinder@@@Z@boost@@@signals2@boost@@Vmutex@45@@detail@signals2@boost@@@boost@@@std@@@std@@@2@@std@@PAX@1@$$QAU?$pair@U?$pair@W4slot_meta_group@detail@signals2@boost@@V?$optional@H@4@@std@@V?$_List_iterator@V?$_List_val@U?$_List_simple_types@V?$shared_ptr@V?$connection_body@U?$pair@W4slot_meta_group@detail@signals2@boost@@V?$optional@H@4@@std@@V?$slot1@XAAVFileDropEvent@app@cinder@@V?$function@$$A6AXAAVFileDropEvent@app@cinder@@@Z@boost@@@signals2@boost@@Vmutex@45@@detail@signals2@boost@@@boost@@@std@@@std@@@2@@1@@Z 0040c160 f i cinder:Window.obj
 0001:0000b160       ??$_Buynode@U?$pair@U?$pair@W4slot_meta_group@detail@signals2@boost@@V?$optional@H@4@@std@@V?$_List_iterator@V?$_List_val@U?$_List_simple_types@V?$shared_ptr@V?$connection_body@U?$pair@W4slot_meta_group@detail@signals2@boost@@V?$optional@H@4@@std@@V?$slot0@XV?$function@$$A6AXXZ@boost@@@signals2@boost@@Vmutex@45@@detail@signals2@boost@@@boost@@@std@@@std@@@2@@std@@@?$_Tree_buy@U?$pair@$$CBU?$pair@W4slot_meta_group@detail@signals2@boost@@V?$optional@H@4@@std@@V?$_List_iterator@V?$_List_val@U?$_List_simple_types@V?$shared_ptr@V?$connection_body@U?$pair@W4slot_meta_group@detail@signals2@boost@@V?$optional@H@4@@std@@V?$slot0@XV?$function@$$A6AXXZ@boost@@@signals2@boost@@Vmutex@45@@detail@signals2@boost@@@boost@@@std@@@std@@@2@@std@@V?$allocator@U?$pair@$$CBU?$pair@W4slot_meta_group@detail@signals2@boost@@V?$optional@H@4@@std@@V?$_List_iterator@V?$_List_val@U?$_List_simple_types@V?$shared_ptr@V?$connection_body@U?$pair@W4slot_meta_group@detail@signals2@boost@@V?$optional@H@4@@std@@V?$slot0@XV?$function@$$A6AXXZ@boost@@@signals2@boost@@Vmutex@45@@detail@signals2@boost@@@boost@@@std@@@std@@@2@@std@@@2@@std@@QAEPAU?$_Tree_node@U?$pair@$$CBU?$pair@W4slot_meta_group@detail@signals2@boost@@V?$optional@H@4@@std@@V?$_List_iterator@V?$_List_val@U?$_List_simple_types@V?$shared_ptr@V?$connection_body@U?$pair@W4slot_meta_group@detail@signals2@boost@@V?$optional@H@4@@std@@V?$slot0@XV?$function@$$A6AXXZ@boost@@@signals2@boost@@Vmutex@45@@detail@signals2@boost@@@boost@@@std@@@std@@@2@@std@@PAX@1@$$QAU?$pair@U?$pair@W4slot_meta_group@detail@signals2@boost@@V?$optional@H@4@@std@@V?$_List_iterator@V?$_List_val@U?$_List_simple_types@V?$shared_ptr@V?$connection_body@U?$pair@W4slot_meta_group@detail@signals2@boost@@V?$optional@H@4@@std@@V?$slot0@XV?$function@$$A6AXXZ@boost@@@signals2@boost@@Vmutex@45@@detail@signals2@boost@@@boost@@@std@@@std@@@2@@1@@Z 0040c160 f i cinder:Window.obj
 0001:0000b160       ??$_Buynode@AAU?$pair@$$CBU?$pair@W4slot_meta_group@detail@signals2@boost@@V?$optional@H@4@@std@@V?$_List_iterator@V?$_List_val@U?$_List_simple_types@V?$shared_ptr@V?$connection_body@U?$pair@W4slot_meta_group@detail@signals2@boost@@V?$optional@H@4@@std@@V?$slot0@XV?$function@$$A6AXXZ@boost@@@signals2@boost@@Vmutex@45@@detail@signals2@boost@@@boost@@@std@@@std@@@2@@std@@@?$_Tree_buy@U?$pair@$$CBU?$pair@W4slot_meta_group@detail@signals2@boost@@V?$optional@H@4@@std@@V?$_List_iterator@V?$_List_val@U?$_List_simple_types@V?$shared_ptr@V?$connection_body@U?$pair@W4slot_meta_group@detail@signals2@boost@@V?$optional@H@4@@std@@V?$slot0@XV?$function@$$A6AXXZ@boost@@@signals2@boost@@Vmutex@45@@detail@signals2@boost@@@boost@@@std@@@std@@@2@@std@@V?$allocator@U?$pair@$$CBU?$pair@W4slot_meta_group@detail@signals2@boost@@V?$optional@H@4@@std@@V?$_List_iterator@V?$_List_val@U?$_List_simple_types@V?$shared_ptr@V?$connection_body@U?$pair@W4slot_meta_group@detail@signals2@boost@@V?$optional@H@4@@std@@V?$slot0@XV?$function@$$A6AXXZ@boost@@@signals2@boost@@Vmutex@45@@detail@signals2@boost@@@boost@@@std@@@std@@@2@@std@@@2@@std@@QAEPAU?$_Tree_node@U?$pair@$$CBU?$pair@W4slot_meta_group@detail@signals2@boost@@V?$optional@H@4@@std@@V?$_List_iterator@V?$_List_val@U?$_List_simple_types@V?$shared_ptr@V?$connection_body@U?$pair@W4slot_meta_group@detail@signals2@boost@@V?$optional@H@4@@std@@V?$slot0@XV?$function@$$A6AXXZ@boost@@@signals2@boost@@Vmutex@45@@detail@signals2@boost@@@boost@@@std@@@std@@@2@@std@@PAX@1@AAU?$pair@$$CBU?$pair@W4slot_meta_group@detail@signals2@boost@@V?$optional@H@4@@std@@V?$_List_iterator@V?$_List_val@U?$_List_simple_types@V?$shared_ptr@V?$connection_body@U?$pair@W4slot_meta_group@detail@signals2@boost@@V?$optional@H@4@@std@@V?$slot0@XV?$function@$$A6AXXZ@boost@@@signals2@boost@@Vmutex@45@@detail@signals2@boost@@@boost@@@std@@@std@@@2@@1@@Z 0040c160 f i cinder:Window.obj
 0001:0000b160       ??$_Buynode@AAU?$pair@$$CBU?$pair@W4slot_meta_group@detail@signals2@boost@@V?$optional@H@4@@std@@V?$_List_iterator@V?$_List_val@U?$_List_simple_types@V?$shared_ptr@V?$connection_body@U?$pair@W4slot_meta_group@detail@signals2@boost@@V?$optional@H@4@@std@@V?$slot1@XAAVTouchEvent@app@cinder@@V?$function@$$A6AXAAVTouchEvent@app@cinder@@@Z@boost@@@signals2@boost@@Vmutex@45@@detail@signals2@boost@@@boost@@@std@@@std@@@2@@std@@@?$_Tree_buy@U?$pair@$$CBU?$pair@W4slot_meta_group@detail@signals2@boost@@V?$optional@H@4@@std@@V?$_List_iterator@V?$_List_val@U?$_List_simple_types@V?$shared_ptr@V?$connection_body@U?$pair@W4slot_meta_group@detail@signals2@boost@@V?$optional@H@4@@std@@V?$slot1@XAAVTouchEvent@app@cinder@@V?$function@$$A6AXAAVTouchEvent@app@cinder@@@Z@boost@@@signals2@boost@@Vmutex@45@@detail@signals2@boost@@@boost@@@std@@@std@@@2@@std@@V?$allocator@U?$pair@$$CBU?$pair@W4slot_meta_group@detail@signals2@boost@@V?$optional@H@4@@std@@V?$_List_iterator@V?$_List_val@U?$_List_simple_types@V?$shared_ptr@V?$connection_body@U?$pair@W4slot_meta_group@detail@signals2@boost@@V?$optional@H@4@@std@@V?$slot1@XAAVTouchEvent@app@cinder@@V?$function@$$A6AXAAVTouchEvent@app@cinder@@@Z@boost@@@signals2@boost@@Vmutex@45@@detail@signals2@boost@@@boost@@@std@@@std@@@2@@std@@@2@@std@@QAEPAU?$_Tree_node@U?$pair@$$CBU?$pair@W4slot_meta_group@detail@signals2@boost@@V?$optional@H@4@@std@@V?$_List_iterator@V?$_List_val@U?$_List_simple_types@V?$shared_ptr@V?$connection_body@U?$pair@W4slot_meta_group@detail@signals2@boost@@V?$optional@H@4@@std@@V?$slot1@XAAVTouchEvent@app@cinder@@V?$function@$$A6AXAAVTouchEvent@app@cinder@@@Z@boost@@@signals2@boost@@Vmutex@45@@detail@signals2@boost@@@boost@@@std@@@std@@@2@@std@@PAX@1@AAU?$pair@$$CBU?$pair@W4slot_meta_group@detail@signals2@boost@@V?$optional@H@4@@std@@V?$_List_iterator@V?$_List_val@U?$_List_simple_types@V?$shared_ptr@V?$connection_body@U?$pair@W4slot_meta_group@detail@signals2@boost@@V?$optional@H@4@@std@@V?$slot1@XAAVTouchEvent@app@cinder@@V?$function@$$A6AXAAVTouchEvent@app@cinder@@@Z@boost@@@signals2@boost@@Vmutex@45@@detail@signals2@boost@@@boost@@@std@@@std@@@2@@1@@Z 0040c160 f i cinder:Window.obj
 0001:0000b1b0       ??$_Destroy@V?$variant@V?$shared_ptr@X@boost@@Vforeign_void_shared_ptr@detail@signals2@2@Uvoid_@042@U6042@U6042@U6042@U6042@U6042@U6042@U6042@U6042@U6042@U6042@U6042@U6042@U6042@U6042@U6042@U6042@U6042@@boost@@@std@@YAXPAV?$variant@V?$shared_ptr@X@boost@@Vforeign_void_shared_ptr@detail@signals2@2@Uvoid_@042@U6042@U6042@U6042@U6042@U6042@U6042@U6042@U6042@U6042@U6042@U6042@U6042@U6042@U6042@U6042@U6042@U6042@@boost@@@Z 0040c1b0 f i cinder:Window.obj
 0001:0000b1f0       ??$_Insert_at@AAU?$pair@$$CBU?$pair@W4slot_meta_group@detail@signals2@boost@@V?$optional@H@4@@std@@V?$_List_iterator@V?$_List_val@U?$_List_simple_types@V?$shared_ptr@V?$connection_body@U?$pair@W4slot_meta_group@detail@signals2@boost@@V?$optional@H@4@@std@@V?$slot0@XV?$function@$$A6AXXZ@boost@@@signals2@boost@@Vmutex@45@@detail@signals2@boost@@@boost@@@std@@@std@@@2@@std@@PAU?$_Tree_node@U?$pair@$$CBU?$pair@W4slot_meta_group@detail@signals2@boost@@V?$optional@H@4@@std@@V?$_List_iterator@V?$_List_val@U?$_List_simple_types@V?$shared_ptr@V?$connection_body@U?$pair@W4slot_meta_group@detail@signals2@boost@@V?$optional@H@4@@std@@V?$slot0@XV?$function@$$A6AXXZ@boost@@@signals2@boost@@Vmutex@45@@detail@signals2@boost@@@boost@@@std@@@std@@@2@@std@@PAX@2@@?$_Tree@V?$_Tmap_traits@U?$pair@W4slot_meta_group@detail@signals2@boost@@V?$optional@H@4@@std@@V?$_List_iterator@V?$_List_val@U?$_List_simple_types@V?$shared_ptr@V?$connection_body@U?$pair@W4slot_meta_group@detail@signals2@boost@@V?$optional@H@4@@std@@V?$slot0@XV?$function@$$A6AXXZ@boost@@@signals2@boost@@Vmutex@45@@detail@signals2@boost@@@boost@@@std@@@std@@@2@V?$group_key_less@HU?$less@H@std@@@detail@signals2@boost@@V?$allocator@U?$pair@$$CBU?$pair@W4slot_meta_group@detail@signals2@boost@@V?$optional@H@4@@std@@V?$_List_iterator@V?$_List_val@U?$_List_simple_types@V?$shared_ptr@V?$connection_body@U?$pair@W4slot_meta_group@detail@signals2@boost@@V?$optional@H@4@@std@@V?$slot0@XV?$function@$$A6AXXZ@boost@@@signals2@boost@@Vmutex@45@@detail@signals2@boost@@@boost@@@std@@@std@@@2@@std@@@2@$0A@@std@@@std@@IAE?AV?$_Tree_iterator@V?$_Tree_val@U?$_Tree_simple_types@U?$pair@$$CBU?$pair@W4slot_meta_group@detail@signals2@boost@@V?$optional@H@4@@std@@V?$_List_iterator@V?$_List_val@U?$_List_simple_types@V?$shared_ptr@V?$connection_body@U?$pair@W4slot_meta_group@detail@signals2@boost@@V?$optional@H@4@@std@@V?$slot0@XV?$function@$$A6AXXZ@boost@@@signals2@boost@@Vmutex@45@@detail@signals2@boost@@@boost@@@std@@@std@@@2@@std@@@std@@@std@@@1@_NPAU?$_Tree_node@U?$pair@$$CBU?$pair@W4slot_meta_group@detail@signals2@boost@@V?$optional@H@4@@std@@V?$_List_iterator@V?$_List_val@U?$_List_simple_types@V?$shared_ptr@V?$connection_body@U?$pair@W4slot_meta_group@detail@signals2@boost@@V?$optional@H@4@@std@@V?$slot0@XV?$function@$$A6AXXZ@boost@@@signals2@boost@@Vmutex@45@@detail@signals2@boost@@@boost@@@std@@@std@@@2@@std@@PAX@1@AAU?$pair@$$CBU?$pair@W4slot_meta_group@detail@signals2@boost@@V?$optional@H@4@@std@@V?$_List_iterator@V?$_List_val@U?$_List_simple_types@V?$shared_ptr@V?$connection_body@U?$pair@W4slot_meta_group@detail@signals2@boost@@V?$optional@H@4@@std@@V?$slot0@XV?$function@$$A6AXXZ@boost@@@signals2@boost@@Vmutex@45@@detail@signals2@boost@@@boost@@@std@@@std@@@2@@1@1@Z 0040c1f0 f i cinder:Window.obj
 0001:0000b1f0       ??$_Insert_at@AAU?$pair@$$CBU?$pair@W4slot_meta_group@detail@signals2@boost@@V?$optional@H@4@@std@@V?$_List_iterator@V?$_List_val@U?$_List_simple_types@V?$shared_ptr@V?$connection_body@U?$pair@W4slot_meta_group@detail@signals2@boost@@V?$optional@H@4@@std@@V?$slot1@XAAVKeyEvent@app@cinder@@V?$function@$$A6AXAAVKeyEvent@app@cinder@@@Z@boost@@@signals2@boost@@Vmutex@45@@detail@signals2@boost@@@boost@@@std@@@std@@@2@@std@@PAU?$_Tree_node@U?$pair@$$CBU?$pair@W4slot_meta_group@detail@signals2@boost@@V?$optional@H@4@@std@@V?$_List_iterator@V?$_List_val@U?$_List_simple_types@V?$shared_ptr@V?$connection_body@U?$pair@W4slot_meta_group@detail@signals2@boost@@V?$optional@H@4@@std@@V?$slot1@XAAVKeyEvent@app@cinder@@V?$function@$$A6AXAAVKeyEvent@app@cinder@@@Z@boost@@@signals2@boost@@Vmutex@45@@detail@signals2@boost@@@boost@@@std@@@std@@@2@@std@@PAX@2@@?$_Tree@V?$_Tmap_traits@U?$pair@W4slot_meta_group@detail@signals2@boost@@V?$optional@H@4@@std@@V?$_List_iterator@V?$_List_val@U?$_List_simple_types@V?$shared_ptr@V?$connection_body@U?$pair@W4slot_meta_group@detail@signals2@boost@@V?$optional@H@4@@std@@V?$slot1@XAAVKeyEvent@app@cinder@@V?$function@$$A6AXAAVKeyEvent@app@cinder@@@Z@boost@@@signals2@boost@@Vmutex@45@@detail@signals2@boost@@@boost@@@std@@@std@@@2@V?$group_key_less@HU?$less@H@std@@@detail@signals2@boost@@V?$allocator@U?$pair@$$CBU?$pair@W4slot_meta_group@detail@signals2@boost@@V?$optional@H@4@@std@@V?$_List_iterator@V?$_List_val@U?$_List_simple_types@V?$shared_ptr@V?$connection_body@U?$pair@W4slot_meta_group@detail@signals2@boost@@V?$optional@H@4@@std@@V?$slot1@XAAVKeyEvent@app@cinder@@V?$function@$$A6AXAAVKeyEvent@app@cinder@@@Z@boost@@@signals2@boost@@Vmutex@45@@detail@signals2@boost@@@boost@@@std@@@std@@@2@@std@@@2@$0A@@std@@@std@@IAE?AV?$_Tree_iterator@V?$_Tree_val@U?$_Tree_simple_types@U?$pair@$$CBU?$pair@W4slot_meta_group@detail@signals2@boost@@V?$optional@H@4@@std@@V?$_List_iterator@V?$_List_val@U?$_List_simple_types@V?$shared_ptr@V?$connection_body@U?$pair@W4slot_meta_group@detail@signals2@boost@@V?$optional@H@4@@std@@V?$slot1@XAAVKeyEvent@app@cinder@@V?$function@$$A6AXAAVKeyEvent@app@cinder@@@Z@boost@@@signals2@boost@@Vmutex@45@@detail@signals2@boost@@@boost@@@std@@@std@@@2@@std@@@std@@@std@@@1@_NPAU?$_Tree_node@U?$pair@$$CBU?$pair@W4slot_meta_group@detail@signals2@boost@@V?$optional@H@4@@std@@V?$_List_iterator@V?$_List_val@U?$_List_simple_types@V?$shared_ptr@V?$connection_body@U?$pair@W4slot_meta_group@detail@signals2@boost@@V?$optional@H@4@@std@@V?$slot1@XAAVKeyEvent@app@cinder@@V?$function@$$A6AXAAVKeyEvent@app@cinder@@@Z@boost@@@signals2@boost@@Vmutex@45@@detail@signals2@boost@@@boost@@@std@@@std@@@2@@std@@PAX@1@AAU?$pair@$$CBU?$pair@W4slot_meta_group@detail@signals2@boost@@V?$optional@H@4@@std@@V?$_List_iterator@V?$_List_val@U?$_List_simple_types@V?$shared_ptr@V?$connection_body@U?$pair@W4slot_meta_group@detail@signals2@boost@@V?$optional@H@4@@std@@V?$slot1@XAAVKeyEvent@app@cinder@@V?$function@$$A6AXAAVKeyEvent@app@cinder@@@Z@boost@@@signals2@boost@@Vmutex@45@@detail@signals2@boost@@@boost@@@std@@@std@@@2@@1@1@Z 0040c1f0 f i cinder:Window.obj
 0001:0000b1f0       ??$_Insert_at@AAU?$pair@$$CBU?$pair@W4slot_meta_group@detail@signals2@boost@@V?$optional@H@4@@std@@V?$_List_iterator@V?$_List_val@U?$_List_simple_types@V?$shared_ptr@V?$connection_body@U?$pair@W4slot_meta_group@detail@signals2@boost@@V?$optional@H@4@@std@@V?$slot1@XAAVTouchEvent@app@cinder@@V?$function@$$A6AXAAVTouchEvent@app@cinder@@@Z@boost@@@signals2@boost@@Vmutex@45@@detail@signals2@boost@@@boost@@@std@@@std@@@2@@std@@PAU?$_Tree_node@U?$pair@$$CBU?$pair@W4slot_meta_group@detail@signals2@boost@@V?$optional@H@4@@std@@V?$_List_iterator@V?$_List_val@U?$_List_simple_types@V?$shared_ptr@V?$connection_body@U?$pair@W4slot_meta_group@detail@signals2@boost@@V?$optional@H@4@@std@@V?$slot1@XAAVTouchEvent@app@cinder@@V?$function@$$A6AXAAVTouchEvent@app@cinder@@@Z@boost@@@signals2@boost@@Vmutex@45@@detail@signals2@boost@@@boost@@@std@@@std@@@2@@std@@PAX@2@@?$_Tree@V?$_Tmap_traits@U?$pair@W4slot_meta_group@detail@signals2@boost@@V?$optional@H@4@@std@@V?$_List_iterator@V?$_List_val@U?$_List_simple_types@V?$shared_ptr@V?$connection_body@U?$pair@W4slot_meta_group@detail@signals2@boost@@V?$optional@H@4@@std@@V?$slot1@XAAVTouchEvent@app@cinder@@V?$function@$$A6AXAAVTouchEvent@app@cinder@@@Z@boost@@@signals2@boost@@Vmutex@45@@detail@signals2@boost@@@boost@@@std@@@std@@@2@V?$group_key_less@HU?$less@H@std@@@detail@signals2@boost@@V?$allocator@U?$pair@$$CBU?$pair@W4slot_meta_group@detail@signals2@boost@@V?$optional@H@4@@std@@V?$_List_iterator@V?$_List_val@U?$_List_simple_types@V?$shared_ptr@V?$connection_body@U?$pair@W4slot_meta_group@detail@signals2@boost@@V?$optional@H@4@@std@@V?$slot1@XAAVTouchEvent@app@cinder@@V?$function@$$A6AXAAVTouchEvent@app@cinder@@@Z@boost@@@signals2@boost@@Vmutex@45@@detail@signals2@boost@@@boost@@@std@@@std@@@2@@std@@@2@$0A@@std@@@std@@IAE?AV?$_Tree_iterator@V?$_Tree_val@U?$_Tree_simple_types@U?$pair@$$CBU?$pair@W4slot_meta_group@detail@signals2@boost@@V?$optional@H@4@@std@@V?$_List_iterator@V?$_List_val@U?$_List_simple_types@V?$shared_ptr@V?$connection_body@U?$pair@W4slot_meta_group@detail@signals2@boost@@V?$optional@H@4@@std@@V?$slot1@XAAVTouchEvent@app@cinder@@V?$function@$$A6AXAAVTouchEvent@app@cinder@@@Z@boost@@@signals2@boost@@Vmutex@45@@detail@signals2@boost@@@boost@@@std@@@std@@@2@@std@@@std@@@std@@@1@_NPAU?$_Tree_node@U?$pair@$$CBU?$pair@W4slot_meta_group@detail@signals2@boost@@V?$optional@H@4@@std@@V?$_List_iterator@V?$_List_val@U?$_List_simple_types@V?$shared_ptr@V?$connection_body@U?$pair@W4slot_meta_group@detail@signals2@boost@@V?$optional@H@4@@std@@V?$slot1@XAAVTouchEvent@app@cinder@@V?$function@$$A6AXAAVTouchEvent@app@cinder@@@Z@boost@@@signals2@boost@@Vmutex@45@@detail@signals2@boost@@@boost@@@std@@@std@@@2@@std@@PAX@1@AAU?$pair@$$CBU?$pair@W4slot_meta_group@detail@signals2@boost@@V?$optional@H@4@@std@@V?$_List_iterator@V?$_List_val@U?$_List_simple_types@V?$shared_ptr@V?$connection_body@U?$pair@W4slot_meta_group@detail@signals2@boost@@V?$optional@H@4@@std@@V?$slot1@XAAVTouchEvent@app@cinder@@V?$function@$$A6AXAAVTouchEvent@app@cinder@@@Z@boost@@@signals2@boost@@Vmutex@45@@detail@signals2@boost@@@boost@@@std@@@std@@@2@@1@1@Z 0040c1f0 f i cinder:Window.obj
 0001:0000b1f0       ??$_Insert_at@AAU?$pair@$$CBU?$pair@W4slot_meta_group@detail@signals2@boost@@V?$optional@H@4@@std@@V?$_List_iterator@V?$_List_val@U?$_List_simple_types@V?$shared_ptr@V?$connection_body@U?$pair@W4slot_meta_group@detail@signals2@boost@@V?$optional@H@4@@std@@V?$slot1@XAAVMouseEvent@app@cinder@@V?$function@$$A6AXAAVMouseEvent@app@cinder@@@Z@boost@@@signals2@boost@@Vmutex@45@@detail@signals2@boost@@@boost@@@std@@@std@@@2@@std@@PAU?$_Tree_node@U?$pair@$$CBU?$pair@W4slot_meta_group@detail@signals2@boost@@V?$optional@H@4@@std@@V?$_List_iterator@V?$_List_val@U?$_List_simple_types@V?$shared_ptr@V?$connection_body@U?$pair@W4slot_meta_group@detail@signals2@boost@@V?$optional@H@4@@std@@V?$slot1@XAAVMouseEvent@app@cinder@@V?$function@$$A6AXAAVMouseEvent@app@cinder@@@Z@boost@@@signals2@boost@@Vmutex@45@@detail@signals2@boost@@@boost@@@std@@@std@@@2@@std@@PAX@2@@?$_Tree@V?$_Tmap_traits@U?$pair@W4slot_meta_group@detail@signals2@boost@@V?$optional@H@4@@std@@V?$_List_iterator@V?$_List_val@U?$_List_simple_types@V?$shared_ptr@V?$connection_body@U?$pair@W4slot_meta_group@detail@signals2@boost@@V?$optional@H@4@@std@@V?$slot1@XAAVMouseEvent@app@cinder@@V?$function@$$A6AXAAVMouseEvent@app@cinder@@@Z@boost@@@signals2@boost@@Vmutex@45@@detail@signals2@boost@@@boost@@@std@@@std@@@2@V?$group_key_less@HU?$less@H@std@@@detail@signals2@boost@@V?$allocator@U?$pair@$$CBU?$pair@W4slot_meta_group@detail@signals2@boost@@V?$optional@H@4@@std@@V?$_List_iterator@V?$_List_val@U?$_List_simple_types@V?$shared_ptr@V?$connection_body@U?$pair@W4slot_meta_group@detail@signals2@boost@@V?$optional@H@4@@std@@V?$slot1@XAAVMouseEvent@app@cinder@@V?$function@$$A6AXAAVMouseEvent@app@cinder@@@Z@boost@@@signals2@boost@@Vmutex@45@@detail@signals2@boost@@@boost@@@std@@@std@@@2@@std@@@2@$0A@@std@@@std@@IAE?AV?$_Tree_iterator@V?$_Tree_val@U?$_Tree_simple_types@U?$pair@$$CBU?$pair@W4slot_meta_group@detail@signals2@boost@@V?$optional@H@4@@std@@V?$_List_iterator@V?$_List_val@U?$_List_simple_types@V?$shared_ptr@V?$connection_body@U?$pair@W4slot_meta_group@detail@signals2@boost@@V?$optional@H@4@@std@@V?$slot1@XAAVMouseEvent@app@cinder@@V?$function@$$A6AXAAVMouseEvent@app@cinder@@@Z@boost@@@signals2@boost@@Vmutex@45@@detail@signals2@boost@@@boost@@@std@@@std@@@2@@std@@@std@@@std@@@1@_NPAU?$_Tree_node@U?$pair@$$CBU?$pair@W4slot_meta_group@detail@signals2@boost@@V?$optional@H@4@@std@@V?$_List_iterator@V?$_List_val@U?$_List_simple_types@V?$shared_ptr@V?$connection_body@U?$pair@W4slot_meta_group@detail@signals2@boost@@V?$optional@H@4@@std@@V?$slot1@XAAVMouseEvent@app@cinder@@V?$function@$$A6AXAAVMouseEvent@app@cinder@@@Z@boost@@@signals2@boost@@Vmutex@45@@detail@signals2@boost@@@boost@@@std@@@std@@@2@@std@@PAX@1@AAU?$pair@$$CBU?$pair@W4slot_meta_group@detail@signals2@boost@@V?$optional@H@4@@std@@V?$_List_iterator@V?$_List_val@U?$_List_simple_types@V?$shared_ptr@V?$connection_body@U?$pair@W4slot_meta_group@detail@signals2@boost@@V?$optional@H@4@@std@@V?$slot1@XAAVMouseEvent@app@cinder@@V?$function@$$A6AXAAVMouseEvent@app@cinder@@@Z@boost@@@signals2@boost@@Vmutex@45@@detail@signals2@boost@@@boost@@@std@@@std@@@2@@1@1@Z 0040c1f0 f i cinder:Window.obj
 0001:0000b1f0       ??$_Insert_at@AAU?$pair@$$CBU?$pair@W4slot_meta_group@detail@signals2@boost@@V?$optional@H@4@@std@@V?$_List_iterator@V?$_List_val@U?$_List_simple_types@V?$shared_ptr@V?$connection_body@U?$pair@W4slot_meta_group@detail@signals2@boost@@V?$optional@H@4@@std@@V?$slot1@XAAVFileDropEvent@app@cinder@@V?$function@$$A6AXAAVFileDropEvent@app@cinder@@@Z@boost@@@signals2@boost@@Vmutex@45@@detail@signals2@boost@@@boost@@@std@@@std@@@2@@std@@PAU?$_Tree_node@U?$pair@$$CBU?$pair@W4slot_meta_group@detail@signals2@boost@@V?$optional@H@4@@std@@V?$_List_iterator@V?$_List_val@U?$_List_simple_types@V?$shared_ptr@V?$connection_body@U?$pair@W4slot_meta_group@detail@signals2@boost@@V?$optional@H@4@@std@@V?$slot1@XAAVFileDropEvent@app@cinder@@V?$function@$$A6AXAAVFileDropEvent@app@cinder@@@Z@boost@@@signals2@boost@@Vmutex@45@@detail@signals2@boost@@@boost@@@std@@@std@@@2@@std@@PAX@2@@?$_Tree@V?$_Tmap_traits@U?$pair@W4slot_meta_group@detail@signals2@boost@@V?$optional@H@4@@std@@V?$_List_iterator@V?$_List_val@U?$_List_simple_types@V?$shared_ptr@V?$connection_body@U?$pair@W4slot_meta_group@detail@signals2@boost@@V?$optional@H@4@@std@@V?$slot1@XAAVFileDropEvent@app@cinder@@V?$function@$$A6AXAAVFileDropEvent@app@cinder@@@Z@boost@@@signals2@boost@@Vmutex@45@@detail@signals2@boost@@@boost@@@std@@@std@@@2@V?$group_key_less@HU?$less@H@std@@@detail@signals2@boost@@V?$allocator@U?$pair@$$CBU?$pair@W4slot_meta_group@detail@signals2@boost@@V?$optional@H@4@@std@@V?$_List_iterator@V?$_List_val@U?$_List_simple_types@V?$shared_ptr@V?$connection_body@U?$pair@W4slot_meta_group@detail@signals2@boost@@V?$optional@H@4@@std@@V?$slot1@XAAVFileDropEvent@app@cinder@@V?$function@$$A6AXAAVFileDropEvent@app@cinder@@@Z@boost@@@signals2@boost@@Vmutex@45@@detail@signals2@boost@@@boost@@@std@@@std@@@2@@std@@@2@$0A@@std@@@std@@IAE?AV?$_Tree_iterator@V?$_Tree_val@U?$_Tree_simple_types@U?$pair@$$CBU?$pair@W4slot_meta_group@detail@signals2@boost@@V?$optional@H@4@@std@@V?$_List_iterator@V?$_List_val@U?$_List_simple_types@V?$shared_ptr@V?$connection_body@U?$pair@W4slot_meta_group@detail@signals2@boost@@V?$optional@H@4@@std@@V?$slot1@XAAVFileDropEvent@app@cinder@@V?$function@$$A6AXAAVFileDropEvent@app@cinder@@@Z@boost@@@signals2@boost@@Vmutex@45@@detail@signals2@boost@@@boost@@@std@@@std@@@2@@std@@@std@@@std@@@1@_NPAU?$_Tree_node@U?$pair@$$CBU?$pair@W4slot_meta_group@detail@signals2@boost@@V?$optional@H@4@@std@@V?$_List_iterator@V?$_List_val@U?$_List_simple_types@V?$shared_ptr@V?$connection_body@U?$pair@W4slot_meta_group@detail@signals2@boost@@V?$optional@H@4@@std@@V?$slot1@XAAVFileDropEvent@app@cinder@@V?$function@$$A6AXAAVFileDropEvent@app@cinder@@@Z@boost@@@signals2@boost@@Vmutex@45@@detail@signals2@boost@@@boost@@@std@@@std@@@2@@std@@PAX@1@AAU?$pair@$$CBU?$pair@W4slot_meta_group@detail@signals2@boost@@V?$optional@H@4@@std@@V?$_List_iterator@V?$_List_val@U?$_List_simple_types@V?$shared_ptr@V?$connection_body@U?$pair@W4slot_meta_group@detail@signals2@boost@@V?$optional@H@4@@std@@V?$slot1@XAAVFileDropEvent@app@cinder@@V?$function@$$A6AXAAVFileDropEvent@app@cinder@@@Z@boost@@@signals2@boost@@Vmutex@45@@detail@signals2@boost@@@boost@@@std@@@std@@@2@@1@1@Z 0040c1f0 f i cinder:Window.obj
 0001:0000b410       ??$_Insert_hint@AAU?$pair@$$CBU?$pair@W4slot_meta_group@detail@signals2@boost@@V?$optional@H@4@@std@@V?$_List_iterator@V?$_List_val@U?$_List_simple_types@V?$shared_ptr@V?$connection_body@U?$pair@W4slot_meta_group@detail@signals2@boost@@V?$optional@H@4@@std@@V?$slot1@XAAVFileDropEvent@app@cinder@@V?$function@$$A6AXAAVFileDropEvent@app@cinder@@@Z@boost@@@signals2@boost@@Vmutex@45@@detail@signals2@boost@@@boost@@@std@@@std@@@2@@std@@PAU?$_Tree_node@U?$pair@$$CBU?$pair@W4slot_meta_group@detail@signals2@boost@@V?$optional@H@4@@std@@V?$_List_iterator@V?$_List_val@U?$_List_simple_types@V?$shared_ptr@V?$connection_body@U?$pair@W4slot_meta_group@detail@signals2@boost@@V?$optional@H@4@@std@@V?$slot1@XAAVFileDropEvent@app@cinder@@V?$function@$$A6AXAAVFileDropEvent@app@cinder@@@Z@boost@@@signals2@boost@@Vmutex@45@@detail@signals2@boost@@@boost@@@std@@@std@@@2@@std@@PAX@2@@?$_Tree@V?$_Tmap_traits@U?$pair@W4slot_meta_group@detail@signals2@boost@@V?$optional@H@4@@std@@V?$_List_iterator@V?$_List_val@U?$_List_simple_types@V?$shared_ptr@V?$connection_body@U?$pair@W4slot_meta_group@detail@signals2@boost@@V?$optional@H@4@@std@@V?$slot1@XAAVFileDropEvent@app@cinder@@V?$function@$$A6AXAAVFileDropEvent@app@cinder@@@Z@boost@@@signals2@boost@@Vmutex@45@@detail@signals2@boost@@@boost@@@std@@@std@@@2@V?$group_key_less@HU?$less@H@std@@@detail@signals2@boost@@V?$allocator@U?$pair@$$CBU?$pair@W4slot_meta_group@detail@signals2@boost@@V?$optional@H@4@@std@@V?$_List_iterator@V?$_List_val@U?$_List_simple_types@V?$shared_ptr@V?$connection_body@U?$pair@W4slot_meta_group@detail@signals2@boost@@V?$optional@H@4@@std@@V?$slot1@XAAVFileDropEvent@app@cinder@@V?$function@$$A6AXAAVFileDropEvent@app@cinder@@@Z@boost@@@signals2@boost@@Vmutex@45@@detail@signals2@boost@@@boost@@@std@@@std@@@2@@std@@@2@$0A@@std@@@std@@IAE?AV?$_Tree_iterator@V?$_Tree_val@U?$_Tree_simple_types@U?$pair@$$CBU?$pair@W4slot_meta_group@detail@signals2@boost@@V?$optional@H@4@@std@@V?$_List_iterator@V?$_List_val@U?$_List_simple_types@V?$shared_ptr@V?$connection_body@U?$pair@W4slot_meta_group@detail@signals2@boost@@V?$optional@H@4@@std@@V?$slot1@XAAVFileDropEvent@app@cinder@@V?$function@$$A6AXAAVFileDropEvent@app@cinder@@@Z@boost@@@signals2@boost@@Vmutex@45@@detail@signals2@boost@@@boost@@@std@@@std@@@2@@std@@@std@@@std@@@1@V?$_Tree_const_iterator@V?$_Tree_val@U?$_Tree_simple_types@U?$pair@$$CBU?$pair@W4slot_meta_group@detail@signals2@boost@@V?$optional@H@4@@std@@V?$_List_iterator@V?$_List_val@U?$_List_simple_types@V?$shared_ptr@V?$connection_body@U?$pair@W4slot_meta_group@detail@signals2@boost@@V?$optional@H@4@@std@@V?$slot1@XAAVFileDropEvent@app@cinder@@V?$function@$$A6AXAAVFileDropEvent@app@cinder@@@Z@boost@@@signals2@boost@@Vmutex@45@@detail@signals2@boost@@@boost@@@std@@@std@@@2@@std@@@std@@@std@@@1@AAU?$pair@$$CBU?$pair@W4slot_meta_group@detail@signals2@boost@@V?$optional@H@4@@std@@V?$_List_iterator@V?$_List_val@U?$_List_simple_types@V?$shared_ptr@V?$connection_body@U?$pair@W4slot_meta_group@detail@signals2@boost@@V?$optional@H@4@@std@@V?$slot1@XAAVFileDropEvent@app@cinder@@V?$function@$$A6AXAAVFileDropEvent@app@cinder@@@Z@boost@@@signals2@boost@@Vmutex@45@@detail@signals2@boost@@@boost@@@std@@@std@@@2@@1@PAU?$_Tree_node@U?$pair@$$CBU?$pair@W4slot_meta_group@detail@signals2@boost@@V?$optional@H@4@@std@@V?$_List_iterator@V?$_List_val@U?$_List_simple_types@V?$shared_ptr@V?$connection_body@U?$pair@W4slot_meta_group@detail@signals2@boost@@V?$optional@H@4@@std@@V?$slot1@XAAVFileDropEvent@app@cinder@@V?$function@$$A6AXAAVFileDropEvent@app@cinder@@@Z@boost@@@signals2@boost@@Vmutex@45@@detail@signals2@boost@@@boost@@@std@@@std@@@2@@std@@PAX@1@@Z 0040c410 f i cinder:Window.obj
 0001:0000b410       ??$_Insert_hint@AAU?$pair@$$CBU?$pair@W4slot_meta_group@detail@signals2@boost@@V?$optional@H@4@@std@@V?$_List_iterator@V?$_List_val@U?$_List_simple_types@V?$shared_ptr@V?$connection_body@U?$pair@W4slot_meta_group@detail@signals2@boost@@V?$optional@H@4@@std@@V?$slot0@XV?$function@$$A6AXXZ@boost@@@signals2@boost@@Vmutex@45@@detail@signals2@boost@@@boost@@@std@@@std@@@2@@std@@PAU?$_Tree_node@U?$pair@$$CBU?$pair@W4slot_meta_group@detail@signals2@boost@@V?$optional@H@4@@std@@V?$_List_iterator@V?$_List_val@U?$_List_simple_types@V?$shared_ptr@V?$connection_body@U?$pair@W4slot_meta_group@detail@signals2@boost@@V?$optional@H@4@@std@@V?$slot0@XV?$function@$$A6AXXZ@boost@@@signals2@boost@@Vmutex@45@@detail@signals2@boost@@@boost@@@std@@@std@@@2@@std@@PAX@2@@?$_Tree@V?$_Tmap_traits@U?$pair@W4slot_meta_group@detail@signals2@boost@@V?$optional@H@4@@std@@V?$_List_iterator@V?$_List_val@U?$_List_simple_types@V?$shared_ptr@V?$connection_body@U?$pair@W4slot_meta_group@detail@signals2@boost@@V?$optional@H@4@@std@@V?$slot0@XV?$function@$$A6AXXZ@boost@@@signals2@boost@@Vmutex@45@@detail@signals2@boost@@@boost@@@std@@@std@@@2@V?$group_key_less@HU?$less@H@std@@@detail@signals2@boost@@V?$allocator@U?$pair@$$CBU?$pair@W4slot_meta_group@detail@signals2@boost@@V?$optional@H@4@@std@@V?$_List_iterator@V?$_List_val@U?$_List_simple_types@V?$shared_ptr@V?$connection_body@U?$pair@W4slot_meta_group@detail@signals2@boost@@V?$optional@H@4@@std@@V?$slot0@XV?$function@$$A6AXXZ@boost@@@signals2@boost@@Vmutex@45@@detail@signals2@boost@@@boost@@@std@@@std@@@2@@std@@@2@$0A@@std@@@std@@IAE?AV?$_Tree_iterator@V?$_Tree_val@U?$_Tree_simple_types@U?$pair@$$CBU?$pair@W4slot_meta_group@detail@signals2@boost@@V?$optional@H@4@@std@@V?$_List_iterator@V?$_List_val@U?$_List_simple_types@V?$shared_ptr@V?$connection_body@U?$pair@W4slot_meta_group@detail@signals2@boost@@V?$optional@H@4@@std@@V?$slot0@XV?$function@$$A6AXXZ@boost@@@signals2@boost@@Vmutex@45@@detail@signals2@boost@@@boost@@@std@@@std@@@2@@std@@@std@@@std@@@1@V?$_Tree_const_iterator@V?$_Tree_val@U?$_Tree_simple_types@U?$pair@$$CBU?$pair@W4slot_meta_group@detail@signals2@boost@@V?$optional@H@4@@std@@V?$_List_iterator@V?$_List_val@U?$_List_simple_types@V?$shared_ptr@V?$connection_body@U?$pair@W4slot_meta_group@detail@signals2@boost@@V?$optional@H@4@@std@@V?$slot0@XV?$function@$$A6AXXZ@boost@@@signals2@boost@@Vmutex@45@@detail@signals2@boost@@@boost@@@std@@@std@@@2@@std@@@std@@@std@@@1@AAU?$pair@$$CBU?$pair@W4slot_meta_group@detail@signals2@boost@@V?$optional@H@4@@std@@V?$_List_iterator@V?$_List_val@U?$_List_simple_types@V?$shared_ptr@V?$connection_body@U?$pair@W4slot_meta_group@detail@signals2@boost@@V?$optional@H@4@@std@@V?$slot0@XV?$function@$$A6AXXZ@boost@@@signals2@boost@@Vmutex@45@@detail@signals2@boost@@@boost@@@std@@@std@@@2@@1@PAU?$_Tree_node@U?$pair@$$CBU?$pair@W4slot_meta_group@detail@signals2@boost@@V?$optional@H@4@@std@@V?$_List_iterator@V?$_List_val@U?$_List_simple_types@V?$shared_ptr@V?$connection_body@U?$pair@W4slot_meta_group@detail@signals2@boost@@V?$optional@H@4@@std@@V?$slot0@XV?$function@$$A6AXXZ@boost@@@signals2@boost@@Vmutex@45@@detail@signals2@boost@@@boost@@@std@@@std@@@2@@std@@PAX@1@@Z 0040c410 f i cinder:Window.obj
 0001:0000b410       ??$_Insert_hint@AAU?$pair@$$CBU?$pair@W4slot_meta_group@detail@signals2@boost@@V?$optional@H@4@@std@@V?$_List_iterator@V?$_List_val@U?$_List_simple_types@V?$shared_ptr@V?$connection_body@U?$pair@W4slot_meta_group@detail@signals2@boost@@V?$optional@H@4@@std@@V?$slot1@XAAVKeyEvent@app@cinder@@V?$function@$$A6AXAAVKeyEvent@app@cinder@@@Z@boost@@@signals2@boost@@Vmutex@45@@detail@signals2@boost@@@boost@@@std@@@std@@@2@@std@@PAU?$_Tree_node@U?$pair@$$CBU?$pair@W4slot_meta_group@detail@signals2@boost@@V?$optional@H@4@@std@@V?$_List_iterator@V?$_List_val@U?$_List_simple_types@V?$shared_ptr@V?$connection_body@U?$pair@W4slot_meta_group@detail@signals2@boost@@V?$optional@H@4@@std@@V?$slot1@XAAVKeyEvent@app@cinder@@V?$function@$$A6AXAAVKeyEvent@app@cinder@@@Z@boost@@@signals2@boost@@Vmutex@45@@detail@signals2@boost@@@boost@@@std@@@std@@@2@@std@@PAX@2@@?$_Tree@V?$_Tmap_traits@U?$pair@W4slot_meta_group@detail@signals2@boost@@V?$optional@H@4@@std@@V?$_List_iterator@V?$_List_val@U?$_List_simple_types@V?$shared_ptr@V?$connection_body@U?$pair@W4slot_meta_group@detail@signals2@boost@@V?$optional@H@4@@std@@V?$slot1@XAAVKeyEvent@app@cinder@@V?$function@$$A6AXAAVKeyEvent@app@cinder@@@Z@boost@@@signals2@boost@@Vmutex@45@@detail@signals2@boost@@@boost@@@std@@@std@@@2@V?$group_key_less@HU?$less@H@std@@@detail@signals2@boost@@V?$allocator@U?$pair@$$CBU?$pair@W4slot_meta_group@detail@signals2@boost@@V?$optional@H@4@@std@@V?$_List_iterator@V?$_List_val@U?$_List_simple_types@V?$shared_ptr@V?$connection_body@U?$pair@W4slot_meta_group@detail@signals2@boost@@V?$optional@H@4@@std@@V?$slot1@XAAVKeyEvent@app@cinder@@V?$function@$$A6AXAAVKeyEvent@app@cinder@@@Z@boost@@@signals2@boost@@Vmutex@45@@detail@signals2@boost@@@boost@@@std@@@std@@@2@@std@@@2@$0A@@std@@@std@@IAE?AV?$_Tree_iterator@V?$_Tree_val@U?$_Tree_simple_types@U?$pair@$$CBU?$pair@W4slot_meta_group@detail@signals2@boost@@V?$optional@H@4@@std@@V?$_List_iterator@V?$_List_val@U?$_List_simple_types@V?$shared_ptr@V?$connection_body@U?$pair@W4slot_meta_group@detail@signals2@boost@@V?$optional@H@4@@std@@V?$slot1@XAAVKeyEvent@app@cinder@@V?$function@$$A6AXAAVKeyEvent@app@cinder@@@Z@boost@@@signals2@boost@@Vmutex@45@@detail@signals2@boost@@@boost@@@std@@@std@@@2@@std@@@std@@@std@@@1@V?$_Tree_const_iterator@V?$_Tree_val@U?$_Tree_simple_types@U?$pair@$$CBU?$pair@W4slot_meta_group@detail@signals2@boost@@V?$optional@H@4@@std@@V?$_List_iterator@V?$_List_val@U?$_List_simple_types@V?$shared_ptr@V?$connection_body@U?$pair@W4slot_meta_group@detail@signals2@boost@@V?$optional@H@4@@std@@V?$slot1@XAAVKeyEvent@app@cinder@@V?$function@$$A6AXAAVKeyEvent@app@cinder@@@Z@boost@@@signals2@boost@@Vmutex@45@@detail@signals2@boost@@@boost@@@std@@@std@@@2@@std@@@std@@@std@@@1@AAU?$pair@$$CBU?$pair@W4slot_meta_group@detail@signals2@boost@@V?$optional@H@4@@std@@V?$_List_iterator@V?$_List_val@U?$_List_simple_types@V?$shared_ptr@V?$connection_body@U?$pair@W4slot_meta_group@detail@signals2@boost@@V?$optional@H@4@@std@@V?$slot1@XAAVKeyEvent@app@cinder@@V?$function@$$A6AXAAVKeyEvent@app@cinder@@@Z@boost@@@signals2@boost@@Vmutex@45@@detail@signals2@boost@@@boost@@@std@@@std@@@2@@1@PAU?$_Tree_node@U?$pair@$$CBU?$pair@W4slot_meta_group@detail@signals2@boost@@V?$optional@H@4@@std@@V?$_List_iterator@V?$_List_val@U?$_List_simple_types@V?$shared_ptr@V?$connection_body@U?$pair@W4slot_meta_group@detail@signals2@boost@@V?$optional@H@4@@std@@V?$slot1@XAAVKeyEvent@app@cinder@@V?$function@$$A6AXAAVKeyEvent@app@cinder@@@Z@boost@@@signals2@boost@@Vmutex@45@@detail@signals2@boost@@@boost@@@std@@@std@@@2@@std@@PAX@1@@Z 0040c410 f i cinder:Window.obj
 0001:0000b410       ??$_Insert_hint@AAU?$pair@$$CBU?$pair@W4slot_meta_group@detail@signals2@boost@@V?$optional@H@4@@std@@V?$_List_iterator@V?$_List_val@U?$_List_simple_types@V?$shared_ptr@V?$connection_body@U?$pair@W4slot_meta_group@detail@signals2@boost@@V?$optional@H@4@@std@@V?$slot1@XAAVTouchEvent@app@cinder@@V?$function@$$A6AXAAVTouchEvent@app@cinder@@@Z@boost@@@signals2@boost@@Vmutex@45@@detail@signals2@boost@@@boost@@@std@@@std@@@2@@std@@PAU?$_Tree_node@U?$pair@$$CBU?$pair@W4slot_meta_group@detail@signals2@boost@@V?$optional@H@4@@std@@V?$_List_iterator@V?$_List_val@U?$_List_simple_types@V?$shared_ptr@V?$connection_body@U?$pair@W4slot_meta_group@detail@signals2@boost@@V?$optional@H@4@@std@@V?$slot1@XAAVTouchEvent@app@cinder@@V?$function@$$A6AXAAVTouchEvent@app@cinder@@@Z@boost@@@signals2@boost@@Vmutex@45@@detail@signals2@boost@@@boost@@@std@@@std@@@2@@std@@PAX@2@@?$_Tree@V?$_Tmap_traits@U?$pair@W4slot_meta_group@detail@signals2@boost@@V?$optional@H@4@@std@@V?$_List_iterator@V?$_List_val@U?$_List_simple_types@V?$shared_ptr@V?$connection_body@U?$pair@W4slot_meta_group@detail@signals2@boost@@V?$optional@H@4@@std@@V?$slot1@XAAVTouchEvent@app@cinder@@V?$function@$$A6AXAAVTouchEvent@app@cinder@@@Z@boost@@@signals2@boost@@Vmutex@45@@detail@signals2@boost@@@boost@@@std@@@std@@@2@V?$group_key_less@HU?$less@H@std@@@detail@signals2@boost@@V?$allocator@U?$pair@$$CBU?$pair@W4slot_meta_group@detail@signals2@boost@@V?$optional@H@4@@std@@V?$_List_iterator@V?$_List_val@U?$_List_simple_types@V?$shared_ptr@V?$connection_body@U?$pair@W4slot_meta_group@detail@signals2@boost@@V?$optional@H@4@@std@@V?$slot1@XAAVTouchEvent@app@cinder@@V?$function@$$A6AXAAVTouchEvent@app@cinder@@@Z@boost@@@signals2@boost@@Vmutex@45@@detail@signals2@boost@@@boost@@@std@@@std@@@2@@std@@@2@$0A@@std@@@std@@IAE?AV?$_Tree_iterator@V?$_Tree_val@U?$_Tree_simple_types@U?$pair@$$CBU?$pair@W4slot_meta_group@detail@signals2@boost@@V?$optional@H@4@@std@@V?$_List_iterator@V?$_List_val@U?$_List_simple_types@V?$shared_ptr@V?$connection_body@U?$pair@W4slot_meta_group@detail@signals2@boost@@V?$optional@H@4@@std@@V?$slot1@XAAVTouchEvent@app@cinder@@V?$function@$$A6AXAAVTouchEvent@app@cinder@@@Z@boost@@@signals2@boost@@Vmutex@45@@detail@signals2@boost@@@boost@@@std@@@std@@@2@@std@@@std@@@std@@@1@V?$_Tree_const_iterator@V?$_Tree_val@U?$_Tree_simple_types@U?$pair@$$CBU?$pair@W4slot_meta_group@detail@signals2@boost@@V?$optional@H@4@@std@@V?$_List_iterator@V?$_List_val@U?$_List_simple_types@V?$shared_ptr@V?$connection_body@U?$pair@W4slot_meta_group@detail@signals2@boost@@V?$optional@H@4@@std@@V?$slot1@XAAVTouchEvent@app@cinder@@V?$function@$$A6AXAAVTouchEvent@app@cinder@@@Z@boost@@@signals2@boost@@Vmutex@45@@detail@signals2@boost@@@boost@@@std@@@std@@@2@@std@@@std@@@std@@@1@AAU?$pair@$$CBU?$pair@W4slot_meta_group@detail@signals2@boost@@V?$optional@H@4@@std@@V?$_List_iterator@V?$_List_val@U?$_List_simple_types@V?$shared_ptr@V?$connection_body@U?$pair@W4slot_meta_group@detail@signals2@boost@@V?$optional@H@4@@std@@V?$slot1@XAAVTouchEvent@app@cinder@@V?$function@$$A6AXAAVTouchEvent@app@cinder@@@Z@boost@@@signals2@boost@@Vmutex@45@@detail@signals2@boost@@@boost@@@std@@@std@@@2@@1@PAU?$_Tree_node@U?$pair@$$CBU?$pair@W4slot_meta_group@detail@signals2@boost@@V?$optional@H@4@@std@@V?$_List_iterator@V?$_List_val@U?$_List_simple_types@V?$shared_ptr@V?$connection_body@U?$pair@W4slot_meta_group@detail@signals2@boost@@V?$optional@H@4@@std@@V?$slot1@XAAVTouchEvent@app@cinder@@V?$function@$$A6AXAAVTouchEvent@app@cinder@@@Z@boost@@@signals2@boost@@Vmutex@45@@detail@signals2@boost@@@boost@@@std@@@std@@@2@@std@@PAX@1@@Z 0040c410 f i cinder:Window.obj
 0001:0000b410       ??$_Insert_hint@AAU?$pair@$$CBU?$pair@W4slot_meta_group@detail@signals2@boost@@V?$optional@H@4@@std@@V?$_List_iterator@V?$_List_val@U?$_List_simple_types@V?$shared_ptr@V?$connection_body@U?$pair@W4slot_meta_group@detail@signals2@boost@@V?$optional@H@4@@std@@V?$slot1@XAAVMouseEvent@app@cinder@@V?$function@$$A6AXAAVMouseEvent@app@cinder@@@Z@boost@@@signals2@boost@@Vmutex@45@@detail@signals2@boost@@@boost@@@std@@@std@@@2@@std@@PAU?$_Tree_node@U?$pair@$$CBU?$pair@W4slot_meta_group@detail@signals2@boost@@V?$optional@H@4@@std@@V?$_List_iterator@V?$_List_val@U?$_List_simple_types@V?$shared_ptr@V?$connection_body@U?$pair@W4slot_meta_group@detail@signals2@boost@@V?$optional@H@4@@std@@V?$slot1@XAAVMouseEvent@app@cinder@@V?$function@$$A6AXAAVMouseEvent@app@cinder@@@Z@boost@@@signals2@boost@@Vmutex@45@@detail@signals2@boost@@@boost@@@std@@@std@@@2@@std@@PAX@2@@?$_Tree@V?$_Tmap_traits@U?$pair@W4slot_meta_group@detail@signals2@boost@@V?$optional@H@4@@std@@V?$_List_iterator@V?$_List_val@U?$_List_simple_types@V?$shared_ptr@V?$connection_body@U?$pair@W4slot_meta_group@detail@signals2@boost@@V?$optional@H@4@@std@@V?$slot1@XAAVMouseEvent@app@cinder@@V?$function@$$A6AXAAVMouseEvent@app@cinder@@@Z@boost@@@signals2@boost@@Vmutex@45@@detail@signals2@boost@@@boost@@@std@@@std@@@2@V?$group_key_less@HU?$less@H@std@@@detail@signals2@boost@@V?$allocator@U?$pair@$$CBU?$pair@W4slot_meta_group@detail@signals2@boost@@V?$optional@H@4@@std@@V?$_List_iterator@V?$_List_val@U?$_List_simple_types@V?$shared_ptr@V?$connection_body@U?$pair@W4slot_meta_group@detail@signals2@boost@@V?$optional@H@4@@std@@V?$slot1@XAAVMouseEvent@app@cinder@@V?$function@$$A6AXAAVMouseEvent@app@cinder@@@Z@boost@@@signals2@boost@@Vmutex@45@@detail@signals2@boost@@@boost@@@std@@@std@@@2@@std@@@2@$0A@@std@@@std@@IAE?AV?$_Tree_iterator@V?$_Tree_val@U?$_Tree_simple_types@U?$pair@$$CBU?$pair@W4slot_meta_group@detail@signals2@boost@@V?$optional@H@4@@std@@V?$_List_iterator@V?$_List_val@U?$_List_simple_types@V?$shared_ptr@V?$connection_body@U?$pair@W4slot_meta_group@detail@signals2@boost@@V?$optional@H@4@@std@@V?$slot1@XAAVMouseEvent@app@cinder@@V?$function@$$A6AXAAVMouseEvent@app@cinder@@@Z@boost@@@signals2@boost@@Vmutex@45@@detail@signals2@boost@@@boost@@@std@@@std@@@2@@std@@@std@@@std@@@1@V?$_Tree_const_iterator@V?$_Tree_val@U?$_Tree_simple_types@U?$pair@$$CBU?$pair@W4slot_meta_group@detail@signals2@boost@@V?$optional@H@4@@std@@V?$_List_iterator@V?$_List_val@U?$_List_simple_types@V?$shared_ptr@V?$connection_body@U?$pair@W4slot_meta_group@detail@signals2@boost@@V?$optional@H@4@@std@@V?$slot1@XAAVMouseEvent@app@cinder@@V?$function@$$A6AXAAVMouseEvent@app@cinder@@@Z@boost@@@signals2@boost@@Vmutex@45@@detail@signals2@boost@@@boost@@@std@@@std@@@2@@std@@@std@@@std@@@1@AAU?$pair@$$CBU?$pair@W4slot_meta_group@detail@signals2@boost@@V?$optional@H@4@@std@@V?$_List_iterator@V?$_List_val@U?$_List_simple_types@V?$shared_ptr@V?$connection_body@U?$pair@W4slot_meta_group@detail@signals2@boost@@V?$optional@H@4@@std@@V?$slot1@XAAVMouseEvent@app@cinder@@V?$function@$$A6AXAAVMouseEvent@app@cinder@@@Z@boost@@@signals2@boost@@Vmutex@45@@detail@signals2@boost@@@boost@@@std@@@std@@@2@@1@PAU?$_Tree_node@U?$pair@$$CBU?$pair@W4slot_meta_group@detail@signals2@boost@@V?$optional@H@4@@std@@V?$_List_iterator@V?$_List_val@U?$_List_simple_types@V?$shared_ptr@V?$connection_body@U?$pair@W4slot_meta_group@detail@signals2@boost@@V?$optional@H@4@@std@@V?$slot1@XAAVMouseEvent@app@cinder@@V?$function@$$A6AXAAVMouseEvent@app@cinder@@@Z@boost@@@signals2@boost@@Vmutex@45@@detail@signals2@boost@@@boost@@@std@@@std@@@2@@std@@PAX@1@@Z 0040c410 f i cinder:Window.obj
 0001:0000b680       ??$_Insert_nohint@AAU?$pair@$$CBU?$pair@W4slot_meta_group@detail@signals2@boost@@V?$optional@H@4@@std@@V?$_List_iterator@V?$_List_val@U?$_List_simple_types@V?$shared_ptr@V?$connection_body@U?$pair@W4slot_meta_group@detail@signals2@boost@@V?$optional@H@4@@std@@V?$slot1@XAAVFileDropEvent@app@cinder@@V?$function@$$A6AXAAVFileDropEvent@app@cinder@@@Z@boost@@@signals2@boost@@Vmutex@45@@detail@signals2@boost@@@boost@@@std@@@std@@@2@@std@@PAU?$_Tree_node@U?$pair@$$CBU?$pair@W4slot_meta_group@detail@signals2@boost@@V?$optional@H@4@@std@@V?$_List_iterator@V?$_List_val@U?$_List_simple_types@V?$shared_ptr@V?$connection_body@U?$pair@W4slot_meta_group@detail@signals2@boost@@V?$optional@H@4@@std@@V?$slot1@XAAVFileDropEvent@app@cinder@@V?$function@$$A6AXAAVFileDropEvent@app@cinder@@@Z@boost@@@signals2@boost@@Vmutex@45@@detail@signals2@boost@@@boost@@@std@@@std@@@2@@std@@PAX@2@@?$_Tree@V?$_Tmap_traits@U?$pair@W4slot_meta_group@detail@signals2@boost@@V?$optional@H@4@@std@@V?$_List_iterator@V?$_List_val@U?$_List_simple_types@V?$shared_ptr@V?$connection_body@U?$pair@W4slot_meta_group@detail@signals2@boost@@V?$optional@H@4@@std@@V?$slot1@XAAVFileDropEvent@app@cinder@@V?$function@$$A6AXAAVFileDropEvent@app@cinder@@@Z@boost@@@signals2@boost@@Vmutex@45@@detail@signals2@boost@@@boost@@@std@@@std@@@2@V?$group_key_less@HU?$less@H@std@@@detail@signals2@boost@@V?$allocator@U?$pair@$$CBU?$pair@W4slot_meta_group@detail@signals2@boost@@V?$optional@H@4@@std@@V?$_List_iterator@V?$_List_val@U?$_List_simple_types@V?$shared_ptr@V?$connection_body@U?$pair@W4slot_meta_group@detail@signals2@boost@@V?$optional@H@4@@std@@V?$slot1@XAAVFileDropEvent@app@cinder@@V?$function@$$A6AXAAVFileDropEvent@app@cinder@@@Z@boost@@@signals2@boost@@Vmutex@45@@detail@signals2@boost@@@boost@@@std@@@std@@@2@@std@@@2@$0A@@std@@@std@@IAE?AU?$pair@V?$_Tree_iterator@V?$_Tree_val@U?$_Tree_simple_types@U?$pair@$$CBU?$pair@W4slot_meta_group@detail@signals2@boost@@V?$optional@H@4@@std@@V?$_List_iterator@V?$_List_val@U?$_List_simple_types@V?$shared_ptr@V?$connection_body@U?$pair@W4slot_meta_group@detail@signals2@boost@@V?$optional@H@4@@std@@V?$slot1@XAAVFileDropEvent@app@cinder@@V?$function@$$A6AXAAVFileDropEvent@app@cinder@@@Z@boost@@@signals2@boost@@Vmutex@45@@detail@signals2@boost@@@boost@@@std@@@std@@@2@@std@@@std@@@std@@@std@@_N@1@_NAAU?$pair@$$CBU?$pair@W4slot_meta_group@detail@signals2@boost@@V?$optional@H@4@@std@@V?$_List_iterator@V?$_List_val@U?$_List_simple_types@V?$shared_ptr@V?$connection_body@U?$pair@W4slot_meta_group@detail@signals2@boost@@V?$optional@H@4@@std@@V?$slot1@XAAVFileDropEvent@app@cinder@@V?$function@$$A6AXAAVFileDropEvent@app@cinder@@@Z@boost@@@signals2@boost@@Vmutex@45@@detail@signals2@boost@@@boost@@@std@@@std@@@2@@1@PAU?$_Tree_node@U?$pair@$$CBU?$pair@W4slot_meta_group@detail@signals2@boost@@V?$optional@H@4@@std@@V?$_List_iterator@V?$_List_val@U?$_List_simple_types@V?$shared_ptr@V?$connection_body@U?$pair@W4slot_meta_group@detail@signals2@boost@@V?$optional@H@4@@std@@V?$slot1@XAAVFileDropEvent@app@cinder@@V?$function@$$A6AXAAVFileDropEvent@app@cinder@@@Z@boost@@@signals2@boost@@Vmutex@45@@detail@signals2@boost@@@boost@@@std@@@std@@@2@@std@@PAX@1@@Z 0040c680 f i cinder:Window.obj
 0001:0000b680       ??$_Insert_nohint@AAU?$pair@$$CBU?$pair@W4slot_meta_group@detail@signals2@boost@@V?$optional@H@4@@std@@V?$_List_iterator@V?$_List_val@U?$_List_simple_types@V?$shared_ptr@V?$connection_body@U?$pair@W4slot_meta_group@detail@signals2@boost@@V?$optional@H@4@@std@@V?$slot0@XV?$function@$$A6AXXZ@boost@@@signals2@boost@@Vmutex@45@@detail@signals2@boost@@@boost@@@std@@@std@@@2@@std@@PAU?$_Tree_node@U?$pair@$$CBU?$pair@W4slot_meta_group@detail@signals2@boost@@V?$optional@H@4@@std@@V?$_List_iterator@V?$_List_val@U?$_List_simple_types@V?$shared_ptr@V?$connection_body@U?$pair@W4slot_meta_group@detail@signals2@boost@@V?$optional@H@4@@std@@V?$slot0@XV?$function@$$A6AXXZ@boost@@@signals2@boost@@Vmutex@45@@detail@signals2@boost@@@boost@@@std@@@std@@@2@@std@@PAX@2@@?$_Tree@V?$_Tmap_traits@U?$pair@W4slot_meta_group@detail@signals2@boost@@V?$optional@H@4@@std@@V?$_List_iterator@V?$_List_val@U?$_List_simple_types@V?$shared_ptr@V?$connection_body@U?$pair@W4slot_meta_group@detail@signals2@boost@@V?$optional@H@4@@std@@V?$slot0@XV?$function@$$A6AXXZ@boost@@@signals2@boost@@Vmutex@45@@detail@signals2@boost@@@boost@@@std@@@std@@@2@V?$group_key_less@HU?$less@H@std@@@detail@signals2@boost@@V?$allocator@U?$pair@$$CBU?$pair@W4slot_meta_group@detail@signals2@boost@@V?$optional@H@4@@std@@V?$_List_iterator@V?$_List_val@U?$_List_simple_types@V?$shared_ptr@V?$connection_body@U?$pair@W4slot_meta_group@detail@signals2@boost@@V?$optional@H@4@@std@@V?$slot0@XV?$function@$$A6AXXZ@boost@@@signals2@boost@@Vmutex@45@@detail@signals2@boost@@@boost@@@std@@@std@@@2@@std@@@2@$0A@@std@@@std@@IAE?AU?$pair@V?$_Tree_iterator@V?$_Tree_val@U?$_Tree_simple_types@U?$pair@$$CBU?$pair@W4slot_meta_group@detail@signals2@boost@@V?$optional@H@4@@std@@V?$_List_iterator@V?$_List_val@U?$_List_simple_types@V?$shared_ptr@V?$connection_body@U?$pair@W4slot_meta_group@detail@signals2@boost@@V?$optional@H@4@@std@@V?$slot0@XV?$function@$$A6AXXZ@boost@@@signals2@boost@@Vmutex@45@@detail@signals2@boost@@@boost@@@std@@@std@@@2@@std@@@std@@@std@@@std@@_N@1@_NAAU?$pair@$$CBU?$pair@W4slot_meta_group@detail@signals2@boost@@V?$optional@H@4@@std@@V?$_List_iterator@V?$_List_val@U?$_List_simple_types@V?$shared_ptr@V?$connection_body@U?$pair@W4slot_meta_group@detail@signals2@boost@@V?$optional@H@4@@std@@V?$slot0@XV?$function@$$A6AXXZ@boost@@@signals2@boost@@Vmutex@45@@detail@signals2@boost@@@boost@@@std@@@std@@@2@@1@PAU?$_Tree_node@U?$pair@$$CBU?$pair@W4slot_meta_group@detail@signals2@boost@@V?$optional@H@4@@std@@V?$_List_iterator@V?$_List_val@U?$_List_simple_types@V?$shared_ptr@V?$connection_body@U?$pair@W4slot_meta_group@detail@signals2@boost@@V?$optional@H@4@@std@@V?$slot0@XV?$function@$$A6AXXZ@boost@@@signals2@boost@@Vmutex@45@@detail@signals2@boost@@@boost@@@std@@@std@@@2@@std@@PAX@1@@Z 0040c680 f i cinder:Window.obj
 0001:0000b680       ??$_Insert_nohint@AAU?$pair@$$CBU?$pair@W4slot_meta_group@detail@signals2@boost@@V?$optional@H@4@@std@@V?$_List_iterator@V?$_List_val@U?$_List_simple_types@V?$shared_ptr@V?$connection_body@U?$pair@W4slot_meta_group@detail@signals2@boost@@V?$optional@H@4@@std@@V?$slot1@XAAVKeyEvent@app@cinder@@V?$function@$$A6AXAAVKeyEvent@app@cinder@@@Z@boost@@@signals2@boost@@Vmutex@45@@detail@signals2@boost@@@boost@@@std@@@std@@@2@@std@@PAU?$_Tree_node@U?$pair@$$CBU?$pair@W4slot_meta_group@detail@signals2@boost@@V?$optional@H@4@@std@@V?$_List_iterator@V?$_List_val@U?$_List_simple_types@V?$shared_ptr@V?$connection_body@U?$pair@W4slot_meta_group@detail@signals2@boost@@V?$optional@H@4@@std@@V?$slot1@XAAVKeyEvent@app@cinder@@V?$function@$$A6AXAAVKeyEvent@app@cinder@@@Z@boost@@@signals2@boost@@Vmutex@45@@detail@signals2@boost@@@boost@@@std@@@std@@@2@@std@@PAX@2@@?$_Tree@V?$_Tmap_traits@U?$pair@W4slot_meta_group@detail@signals2@boost@@V?$optional@H@4@@std@@V?$_List_iterator@V?$_List_val@U?$_List_simple_types@V?$shared_ptr@V?$connection_body@U?$pair@W4slot_meta_group@detail@signals2@boost@@V?$optional@H@4@@std@@V?$slot1@XAAVKeyEvent@app@cinder@@V?$function@$$A6AXAAVKeyEvent@app@cinder@@@Z@boost@@@signals2@boost@@Vmutex@45@@detail@signals2@boost@@@boost@@@std@@@std@@@2@V?$group_key_less@HU?$less@H@std@@@detail@signals2@boost@@V?$allocator@U?$pair@$$CBU?$pair@W4slot_meta_group@detail@signals2@boost@@V?$optional@H@4@@std@@V?$_List_iterator@V?$_List_val@U?$_List_simple_types@V?$shared_ptr@V?$connection_body@U?$pair@W4slot_meta_group@detail@signals2@boost@@V?$optional@H@4@@std@@V?$slot1@XAAVKeyEvent@app@cinder@@V?$function@$$A6AXAAVKeyEvent@app@cinder@@@Z@boost@@@signals2@boost@@Vmutex@45@@detail@signals2@boost@@@boost@@@std@@@std@@@2@@std@@@2@$0A@@std@@@std@@IAE?AU?$pair@V?$_Tree_iterator@V?$_Tree_val@U?$_Tree_simple_types@U?$pair@$$CBU?$pair@W4slot_meta_group@detail@signals2@boost@@V?$optional@H@4@@std@@V?$_List_iterator@V?$_List_val@U?$_List_simple_types@V?$shared_ptr@V?$connection_body@U?$pair@W4slot_meta_group@detail@signals2@boost@@V?$optional@H@4@@std@@V?$slot1@XAAVKeyEvent@app@cinder@@V?$function@$$A6AXAAVKeyEvent@app@cinder@@@Z@boost@@@signals2@boost@@Vmutex@45@@detail@signals2@boost@@@boost@@@std@@@std@@@2@@std@@@std@@@std@@@std@@_N@1@_NAAU?$pair@$$CBU?$pair@W4slot_meta_group@detail@signals2@boost@@V?$optional@H@4@@std@@V?$_List_iterator@V?$_List_val@U?$_List_simple_types@V?$shared_ptr@V?$connection_body@U?$pair@W4slot_meta_group@detail@signals2@boost@@V?$optional@H@4@@std@@V?$slot1@XAAVKeyEvent@app@cinder@@V?$function@$$A6AXAAVKeyEvent@app@cinder@@@Z@boost@@@signals2@boost@@Vmutex@45@@detail@signals2@boost@@@boost@@@std@@@std@@@2@@1@PAU?$_Tree_node@U?$pair@$$CBU?$pair@W4slot_meta_group@detail@signals2@boost@@V?$optional@H@4@@std@@V?$_List_iterator@V?$_List_val@U?$_List_simple_types@V?$shared_ptr@V?$connection_body@U?$pair@W4slot_meta_group@detail@signals2@boost@@V?$optional@H@4@@std@@V?$slot1@XAAVKeyEvent@app@cinder@@V?$function@$$A6AXAAVKeyEvent@app@cinder@@@Z@boost@@@signals2@boost@@Vmutex@45@@detail@signals2@boost@@@boost@@@std@@@std@@@2@@std@@PAX@1@@Z 0040c680 f i cinder:Window.obj
 0001:0000b680       ??$_Insert_nohint@AAU?$pair@$$CBU?$pair@W4slot_meta_group@detail@signals2@boost@@V?$optional@H@4@@std@@V?$_List_iterator@V?$_List_val@U?$_List_simple_types@V?$shared_ptr@V?$connection_body@U?$pair@W4slot_meta_group@detail@signals2@boost@@V?$optional@H@4@@std@@V?$slot1@XAAVMouseEvent@app@cinder@@V?$function@$$A6AXAAVMouseEvent@app@cinder@@@Z@boost@@@signals2@boost@@Vmutex@45@@detail@signals2@boost@@@boost@@@std@@@std@@@2@@std@@PAU?$_Tree_node@U?$pair@$$CBU?$pair@W4slot_meta_group@detail@signals2@boost@@V?$optional@H@4@@std@@V?$_List_iterator@V?$_List_val@U?$_List_simple_types@V?$shared_ptr@V?$connection_body@U?$pair@W4slot_meta_group@detail@signals2@boost@@V?$optional@H@4@@std@@V?$slot1@XAAVMouseEvent@app@cinder@@V?$function@$$A6AXAAVMouseEvent@app@cinder@@@Z@boost@@@signals2@boost@@Vmutex@45@@detail@signals2@boost@@@boost@@@std@@@std@@@2@@std@@PAX@2@@?$_Tree@V?$_Tmap_traits@U?$pair@W4slot_meta_group@detail@signals2@boost@@V?$optional@H@4@@std@@V?$_List_iterator@V?$_List_val@U?$_List_simple_types@V?$shared_ptr@V?$connection_body@U?$pair@W4slot_meta_group@detail@signals2@boost@@V?$optional@H@4@@std@@V?$slot1@XAAVMouseEvent@app@cinder@@V?$function@$$A6AXAAVMouseEvent@app@cinder@@@Z@boost@@@signals2@boost@@Vmutex@45@@detail@signals2@boost@@@boost@@@std@@@std@@@2@V?$group_key_less@HU?$less@H@std@@@detail@signals2@boost@@V?$allocator@U?$pair@$$CBU?$pair@W4slot_meta_group@detail@signals2@boost@@V?$optional@H@4@@std@@V?$_List_iterator@V?$_List_val@U?$_List_simple_types@V?$shared_ptr@V?$connection_body@U?$pair@W4slot_meta_group@detail@signals2@boost@@V?$optional@H@4@@std@@V?$slot1@XAAVMouseEvent@app@cinder@@V?$function@$$A6AXAAVMouseEvent@app@cinder@@@Z@boost@@@signals2@boost@@Vmutex@45@@detail@signals2@boost@@@boost@@@std@@@std@@@2@@std@@@2@$0A@@std@@@std@@IAE?AU?$pair@V?$_Tree_iterator@V?$_Tree_val@U?$_Tree_simple_types@U?$pair@$$CBU?$pair@W4slot_meta_group@detail@signals2@boost@@V?$optional@H@4@@std@@V?$_List_iterator@V?$_List_val@U?$_List_simple_types@V?$shared_ptr@V?$connection_body@U?$pair@W4slot_meta_group@detail@signals2@boost@@V?$optional@H@4@@std@@V?$slot1@XAAVMouseEvent@app@cinder@@V?$function@$$A6AXAAVMouseEvent@app@cinder@@@Z@boost@@@signals2@boost@@Vmutex@45@@detail@signals2@boost@@@boost@@@std@@@std@@@2@@std@@@std@@@std@@@std@@_N@1@_NAAU?$pair@$$CBU?$pair@W4slot_meta_group@detail@signals2@boost@@V?$optional@H@4@@std@@V?$_List_iterator@V?$_List_val@U?$_List_simple_types@V?$shared_ptr@V?$connection_body@U?$pair@W4slot_meta_group@detail@signals2@boost@@V?$optional@H@4@@std@@V?$slot1@XAAVMouseEvent@app@cinder@@V?$function@$$A6AXAAVMouseEvent@app@cinder@@@Z@boost@@@signals2@boost@@Vmutex@45@@detail@signals2@boost@@@boost@@@std@@@std@@@2@@1@PAU?$_Tree_node@U?$pair@$$CBU?$pair@W4slot_meta_group@detail@signals2@boost@@V?$optional@H@4@@std@@V?$_List_iterator@V?$_List_val@U?$_List_simple_types@V?$shared_ptr@V?$connection_body@U?$pair@W4slot_meta_group@detail@signals2@boost@@V?$optional@H@4@@std@@V?$slot1@XAAVMouseEvent@app@cinder@@V?$function@$$A6AXAAVMouseEvent@app@cinder@@@Z@boost@@@signals2@boost@@Vmutex@45@@detail@signals2@boost@@@boost@@@std@@@std@@@2@@std@@PAX@1@@Z 0040c680 f i cinder:Window.obj
 0001:0000b680       ??$_Insert_nohint@AAU?$pair@$$CBU?$pair@W4slot_meta_group@detail@signals2@boost@@V?$optional@H@4@@std@@V?$_List_iterator@V?$_List_val@U?$_List_simple_types@V?$shared_ptr@V?$connection_body@U?$pair@W4slot_meta_group@detail@signals2@boost@@V?$optional@H@4@@std@@V?$slot1@XAAVTouchEvent@app@cinder@@V?$function@$$A6AXAAVTouchEvent@app@cinder@@@Z@boost@@@signals2@boost@@Vmutex@45@@detail@signals2@boost@@@boost@@@std@@@std@@@2@@std@@PAU?$_Tree_node@U?$pair@$$CBU?$pair@W4slot_meta_group@detail@signals2@boost@@V?$optional@H@4@@std@@V?$_List_iterator@V?$_List_val@U?$_List_simple_types@V?$shared_ptr@V?$connection_body@U?$pair@W4slot_meta_group@detail@signals2@boost@@V?$optional@H@4@@std@@V?$slot1@XAAVTouchEvent@app@cinder@@V?$function@$$A6AXAAVTouchEvent@app@cinder@@@Z@boost@@@signals2@boost@@Vmutex@45@@detail@signals2@boost@@@boost@@@std@@@std@@@2@@std@@PAX@2@@?$_Tree@V?$_Tmap_traits@U?$pair@W4slot_meta_group@detail@signals2@boost@@V?$optional@H@4@@std@@V?$_List_iterator@V?$_List_val@U?$_List_simple_types@V?$shared_ptr@V?$connection_body@U?$pair@W4slot_meta_group@detail@signals2@boost@@V?$optional@H@4@@std@@V?$slot1@XAAVTouchEvent@app@cinder@@V?$function@$$A6AXAAVTouchEvent@app@cinder@@@Z@boost@@@signals2@boost@@Vmutex@45@@detail@signals2@boost@@@boost@@@std@@@std@@@2@V?$group_key_less@HU?$less@H@std@@@detail@signals2@boost@@V?$allocator@U?$pair@$$CBU?$pair@W4slot_meta_group@detail@signals2@boost@@V?$optional@H@4@@std@@V?$_List_iterator@V?$_List_val@U?$_List_simple_types@V?$shared_ptr@V?$connection_body@U?$pair@W4slot_meta_group@detail@signals2@boost@@V?$optional@H@4@@std@@V?$slot1@XAAVTouchEvent@app@cinder@@V?$function@$$A6AXAAVTouchEvent@app@cinder@@@Z@boost@@@signals2@boost@@Vmutex@45@@detail@signals2@boost@@@boost@@@std@@@std@@@2@@std@@@2@$0A@@std@@@std@@IAE?AU?$pair@V?$_Tree_iterator@V?$_Tree_val@U?$_Tree_simple_types@U?$pair@$$CBU?$pair@W4slot_meta_group@detail@signals2@boost@@V?$optional@H@4@@std@@V?$_List_iterator@V?$_List_val@U?$_List_simple_types@V?$shared_ptr@V?$connection_body@U?$pair@W4slot_meta_group@detail@signals2@boost@@V?$optional@H@4@@std@@V?$slot1@XAAVTouchEvent@app@cinder@@V?$function@$$A6AXAAVTouchEvent@app@cinder@@@Z@boost@@@signals2@boost@@Vmutex@45@@detail@signals2@boost@@@boost@@@std@@@std@@@2@@std@@@std@@@std@@@std@@_N@1@_NAAU?$pair@$$CBU?$pair@W4slot_meta_group@detail@signals2@boost@@V?$optional@H@4@@std@@V?$_List_iterator@V?$_List_val@U?$_List_simple_types@V?$shared_ptr@V?$connection_body@U?$pair@W4slot_meta_group@detail@signals2@boost@@V?$optional@H@4@@std@@V?$slot1@XAAVTouchEvent@app@cinder@@V?$function@$$A6AXAAVTouchEvent@app@cinder@@@Z@boost@@@signals2@boost@@Vmutex@45@@detail@signals2@boost@@@boost@@@std@@@std@@@2@@1@PAU?$_Tree_node@U?$pair@$$CBU?$pair@W4slot_meta_group@detail@signals2@boost@@V?$optional@H@4@@std@@V?$_List_iterator@V?$_List_val@U?$_List_simple_types@V?$shared_ptr@V?$connection_body@U?$pair@W4slot_meta_group@detail@signals2@boost@@V?$optional@H@4@@std@@V?$slot1@XAAVTouchEvent@app@cinder@@V?$function@$$A6AXAAVTouchEvent@app@cinder@@@Z@boost@@@signals2@boost@@Vmutex@45@@detail@signals2@boost@@@boost@@@std@@@std@@@2@@std@@PAX@1@@Z 0040c680 f i cinder:Window.obj
 0001:0000b7f0       ??$_Uninit_copy@V?$_Vector_const_iterator@V?$_Vector_val@U?$_Simple_types@VTouch@TouchEvent@app@cinder@@@std@@@std@@@std@@PAVTouch@TouchEvent@app@cinder@@V?$allocator@VTouch@TouchEvent@app@cinder@@@2@@std@@YAPAVTouch@TouchEvent@app@cinder@@V?$_Vector_const_iterator@V?$_Vector_val@U?$_Simple_types@VTouch@TouchEvent@app@cinder@@@std@@@std@@@0@0PAV1234@AAU?$_Wrap_alloc@V?$allocator@VTouch@TouchEvent@app@cinder@@@std@@@0@U_Nonscalar_ptr_iterator_tag@0@@Z 0040c7f0 f i cinder:Window.obj
 0001:0000b850       ??$_Uninit_copy@V?$_Vector_const_iterator@V?$_Vector_val@U?$_Simple_types@Vpath@filesystem@boost@@@std@@@std@@@std@@PAVpath@filesystem@boost@@V?$allocator@Vpath@filesystem@boost@@@2@@std@@YAPAVpath@filesystem@boost@@V?$_Vector_const_iterator@V?$_Vector_val@U?$_Simple_types@Vpath@filesystem@boost@@@std@@@std@@@0@0PAV123@AAU?$_Wrap_alloc@V?$allocator@Vpath@filesystem@boost@@@std@@@0@U_Nonscalar_ptr_iterator_tag@0@@Z 0040c850 f i cinder:Window.obj
 0001:0000b910       ??$_Uninitialized_copy0@PAV?$variant@V?$shared_ptr@X@boost@@Vforeign_void_shared_ptr@detail@signals2@2@Uvoid_@042@U6042@U6042@U6042@U6042@U6042@U6042@U6042@U6042@U6042@U6042@U6042@U6042@U6042@U6042@U6042@U6042@U6042@@boost@@PAV12@@std@@YAPAV?$variant@V?$shared_ptr@X@boost@@Vforeign_void_shared_ptr@detail@signals2@2@Uvoid_@042@U6042@U6042@U6042@U6042@U6042@U6042@U6042@U6042@U6042@U6042@U6042@U6042@U6042@U6042@U6042@U6042@U6042@@boost@@PAV12@00U_Nonscalar_ptr_iterator_tag@0@@Z 0040c910 f i cinder:Window.obj
 0001:0000ba10       ??$apply_visitor@$$CBVlock_weak_ptr_visitor@detail@signals2@boost@@@?$variant@V?$weak_ptr@X@boost@@Vforeign_void_weak_ptr@detail@signals2@2@Uvoid_@042@U6042@U6042@U6042@U6042@U6042@U6042@U6042@U6042@U6042@U6042@U6042@U6042@U6042@U6042@U6042@U6042@U6042@@boost@@QBE?AV?$variant@V?$shared_ptr@X@boost@@Vforeign_void_shared_ptr@detail@signals2@2@Uvoid_@042@U6042@U6042@U6042@U6042@U6042@U6042@U6042@U6042@U6042@U6042@U6042@U6042@U6042@U6042@U6042@U6042@U6042@@1@ABVlock_weak_ptr_visitor@detail@signals2@1@@Z 0040ca10 f i cinder:Window.obj
 0001:0000ba40       ??$apply_visitor@Vlock_weak_ptr_visitor@detail@signals2@boost@@$$CBV?$variant@V?$weak_ptr@X@boost@@Vforeign_void_weak_ptr@detail@signals2@2@Uvoid_@042@U6042@U6042@U6042@U6042@U6042@U6042@U6042@U6042@U6042@U6042@U6042@U6042@U6042@U6042@U6042@U6042@U6042@@4@@boost@@YA?AV?$variant@V?$shared_ptr@X@boost@@Vforeign_void_shared_ptr@detail@signals2@2@Uvoid_@042@U6042@U6042@U6042@U6042@U6042@U6042@U6042@U6042@U6042@U6042@U6042@U6042@U6042@U6042@U6042@U6042@U6042@@0@ABVlock_weak_ptr_visitor@detail@signals2@0@ABV?$variant@V?$weak_ptr@X@boost@@Vforeign_void_weak_ptr@detail@signals2@2@Uvoid_@042@U6042@U6042@U6042@U6042@U6042@U6042@U6042@U6042@U6042@U6042@U6042@U6042@U6042@U6042@U6042@U6042@U6042@@0@@Z 0040ca40 f i cinder:Window.obj
 0001:0000ba60       ??$checked_delete@Vinvocation_state@?$signal0_impl@XV?$optional_last_value@X@signals2@boost@@HU?$less@H@std@@V?$function@$$A6AXXZ@3@V?$function@$$A6AXABVconnection@signals2@boost@@@Z@3@Vmutex@23@@detail@signals2@boost@@@boost@@YAXPAVinvocation_state@?$signal0_impl@XV?$optional_last_value@X@signals2@boost@@HU?$less@H@std@@V?$function@$$A6AXXZ@3@V?$function@$$A6AXABVconnection@signals2@boost@@@Z@3@Vmutex@23@@detail@signals2@0@@Z 0040ca60 f i cinder:Window.obj
 0001:0000ba60       ??$checked_delete@Vinvocation_state@?$signal1_impl@XAAVTouchEvent@app@cinder@@U?$EventCombiner@VTouchEvent@app@cinder@@@23@HU?$less@H@std@@V?$function@$$A6AXAAVTouchEvent@app@cinder@@@Z@boost@@V?$function@$$A6AXABVconnection@signals2@boost@@AAVTouchEvent@app@cinder@@@Z@8@Vmutex@signals2@8@@detail@signals2@boost@@@boost@@YAXPAVinvocation_state@?$signal1_impl@XAAVTouchEvent@app@cinder@@U?$EventCombiner@VTouchEvent@app@cinder@@@23@HU?$less@H@std@@V?$function@$$A6AXAAVTouchEvent@app@cinder@@@Z@boost@@V?$function@$$A6AXABVconnection@signals2@boost@@AAVTouchEvent@app@cinder@@@Z@8@Vmutex@signals2@8@@detail@signals2@0@@Z 0040ca60 f i cinder:Window.obj
 0001:0000ba60       ??$checked_delete@Vinvocation_state@?$signal1_impl@XAAVMouseEvent@app@cinder@@U?$EventCombiner@VMouseEvent@app@cinder@@@23@HU?$less@H@std@@V?$function@$$A6AXAAVMouseEvent@app@cinder@@@Z@boost@@V?$function@$$A6AXABVconnection@signals2@boost@@AAVMouseEvent@app@cinder@@@Z@8@Vmutex@signals2@8@@detail@signals2@boost@@@boost@@YAXPAVinvocation_state@?$signal1_impl@XAAVMouseEvent@app@cinder@@U?$EventCombiner@VMouseEvent@app@cinder@@@23@HU?$less@H@std@@V?$function@$$A6AXAAVMouseEvent@app@cinder@@@Z@boost@@V?$function@$$A6AXABVconnection@signals2@boost@@AAVMouseEvent@app@cinder@@@Z@8@Vmutex@signals2@8@@detail@signals2@0@@Z 0040ca60 f i cinder:Window.obj
 0001:0000ba60       ??$checked_delete@Vinvocation_state@?$signal1_impl@XAAVKeyEvent@app@cinder@@U?$EventCombiner@VKeyEvent@app@cinder@@@23@HU?$less@H@std@@V?$function@$$A6AXAAVKeyEvent@app@cinder@@@Z@boost@@V?$function@$$A6AXABVconnection@signals2@boost@@AAVKeyEvent@app@cinder@@@Z@8@Vmutex@signals2@8@@detail@signals2@boost@@@boost@@YAXPAVinvocation_state@?$signal1_impl@XAAVKeyEvent@app@cinder@@U?$EventCombiner@VKeyEvent@app@cinder@@@23@HU?$less@H@std@@V?$function@$$A6AXAAVKeyEvent@app@cinder@@@Z@boost@@V?$function@$$A6AXABVconnection@signals2@boost@@AAVKeyEvent@app@cinder@@@Z@8@Vmutex@signals2@8@@detail@signals2@0@@Z 0040ca60 f i cinder:Window.obj
 0001:0000ba60       ??$checked_delete@Vinvocation_state@?$signal1_impl@XAAVFileDropEvent@app@cinder@@U?$EventCombiner@VFileDropEvent@app@cinder@@@23@HU?$less@H@std@@V?$function@$$A6AXAAVFileDropEvent@app@cinder@@@Z@boost@@V?$function@$$A6AXABVconnection@signals2@boost@@AAVFileDropEvent@app@cinder@@@Z@8@Vmutex@signals2@8@@detail@signals2@boost@@@boost@@YAXPAVinvocation_state@?$signal1_impl@XAAVFileDropEvent@app@cinder@@U?$EventCombiner@VFileDropEvent@app@cinder@@@23@HU?$less@H@std@@V?$function@$$A6AXAAVFileDropEvent@app@cinder@@@Z@boost@@V?$function@$$A6AXABVconnection@signals2@boost@@AAVFileDropEvent@app@cinder@@@Z@8@Vmutex@signals2@8@@detail@signals2@0@@Z 0040ca60 f i cinder:Window.obj
 0001:0000ba60       ??$checked_delete@Vinvocation_state@?$signal0_impl@_NUBooleanAndEventCombiner@app@cinder@@HU?$less@H@std@@V?$function@$$A6A_NXZ@boost@@V?$function@$$A6A_NABVconnection@signals2@boost@@@Z@7@Vmutex@signals2@7@@detail@signals2@boost@@@boost@@YAXPAVinvocation_state@?$signal0_impl@_NUBooleanAndEventCombiner@app@cinder@@HU?$less@H@std@@V?$function@$$A6A_NXZ@boost@@V?$function@$$A6A_NABVconnection@signals2@boost@@@Z@7@Vmutex@signals2@7@@detail@signals2@0@@Z 0040ca60 f i cinder:AppBasic.obj
 0001:0000ba80       ??$enable_current_exception@U?$error_info_injector@Vbad_function_call@boost@@@exception_detail@boost@@@boost@@YA?AV?$clone_impl@U?$error_info_injector@Vbad_function_call@boost@@@exception_detail@boost@@@exception_detail@0@ABU?$error_info_injector@Vbad_function_call@boost@@@20@@Z 0040ca80 f i cinder:Window.obj
 0001:0000bb30       ??$enable_error_info@Vbad_function_call@boost@@@boost@@YA?AU?$error_info_injector@Vbad_function_call@boost@@@exception_detail@0@ABVbad_function_call@0@@Z 0040cb30 f i cinder:Window.obj
 0001:0000bb80       ??$forced_return@X@variant@detail@boost@@YAXXZ 0040cb80 f i cinder:Window.obj
 0001:0000bb90       ??$internal_apply_visitor@V?$invoke_visitor@$$CBVlock_weak_ptr_visitor@detail@signals2@boost@@@variant@detail@boost@@@?$variant@V?$weak_ptr@X@boost@@Vforeign_void_weak_ptr@detail@signals2@2@Uvoid_@042@U6042@U6042@U6042@U6042@U6042@U6042@U6042@U6042@U6042@U6042@U6042@U6042@U6042@U6042@U6042@U6042@U6042@@boost@@ABE?AV?$variant@V?$shared_ptr@X@boost@@Vforeign_void_shared_ptr@detail@signals2@2@Uvoid_@042@U6042@U6042@U6042@U6042@U6042@U6042@U6042@U6042@U6042@U6042@U6042@U6042@U6042@U6042@U6042@U6042@U6042@@1@AAV?$invoke_visitor@$$CBVlock_weak_ptr_visitor@detail@signals2@boost@@@variant@detail@1@@Z 0040cb90 f i cinder:Window.obj
 0001:0000bbd0       ??$internal_apply_visitor_impl@V?$invoke_visitor@$$CBVlock_weak_ptr_visitor@detail@signals2@boost@@@variant@detail@boost@@PBX@?$variant@V?$weak_ptr@X@boost@@Vforeign_void_weak_ptr@detail@signals2@2@Uvoid_@042@U6042@U6042@U6042@U6042@U6042@U6042@U6042@U6042@U6042@U6042@U6042@U6042@U6042@U6042@U6042@U6042@U6042@@boost@@CA?AV?$variant@V?$shared_ptr@X@boost@@Vforeign_void_shared_ptr@detail@signals2@2@Uvoid_@042@U6042@U6042@U6042@U6042@U6042@U6042@U6042@U6042@U6042@U6042@U6042@U6042@U6042@U6042@U6042@U6042@U6042@@1@HHAAV?$invoke_visitor@$$CBVlock_weak_ptr_visitor@detail@signals2@boost@@@variant@detail@1@PBX@Z 0040cbd0 f i cinder:Window.obj
 0001:0000bc10       ??$internal_visit@$$CBV?$weak_ptr@X@boost@@@?$invoke_visitor@$$CBVlock_weak_ptr_visitor@detail@signals2@boost@@@variant@detail@boost@@QAE?AV?$variant@V?$shared_ptr@X@boost@@Vforeign_void_shared_ptr@detail@signals2@2@Uvoid_@042@U6042@U6042@U6042@U6042@U6042@U6042@U6042@U6042@U6042@U6042@U6042@U6042@U6042@U6042@U6042@U6042@U6042@@3@ABV?$weak_ptr@X@3@H@Z 0040cc10 f i cinder:Window.obj
 0001:0000bc40       ??$internal_visit@$$CBVforeign_void_weak_ptr@detail@signals2@boost@@@?$invoke_visitor@$$CBVlock_weak_ptr_visitor@detail@signals2@boost@@@variant@detail@boost@@QAE?AV?$variant@V?$shared_ptr@X@boost@@Vforeign_void_shared_ptr@detail@signals2@2@Uvoid_@042@U6042@U6042@U6042@U6042@U6042@U6042@U6042@U6042@U6042@U6042@U6042@U6042@U6042@U6042@U6042@U6042@U6042@@3@ABVforeign_void_weak_ptr@2signals2@3@H@Z 0040cc40 f i cinder:Window.obj
 0001:0000bc70       ??$internal_visit@V?$weak_ptr@X@boost@@@?$invoke_visitor@$$CBVlock_weak_ptr_visitor@detail@signals2@boost@@@variant@detail@boost@@QAE?AV?$variant@V?$shared_ptr@X@boost@@Vforeign_void_shared_ptr@detail@signals2@2@Uvoid_@042@U6042@U6042@U6042@U6042@U6042@U6042@U6042@U6042@U6042@U6042@U6042@U6042@U6042@U6042@U6042@U6042@U6042@@3@ABV?$backup_holder@V?$weak_ptr@X@boost@@@123@J@Z 0040cc70 f i cinder:Window.obj
 0001:0000bca0       ??$internal_visit@Vforeign_void_weak_ptr@detail@signals2@boost@@@?$invoke_visitor@$$CBVlock_weak_ptr_visitor@detail@signals2@boost@@@variant@detail@boost@@QAE?AV?$variant@V?$shared_ptr@X@boost@@Vforeign_void_shared_ptr@detail@signals2@2@Uvoid_@042@U6042@U6042@U6042@U6042@U6042@U6042@U6042@U6042@U6042@U6042@U6042@U6042@U6042@U6042@U6042@U6042@U6042@@3@ABV?$backup_holder@Vforeign_void_weak_ptr@detail@signals2@boost@@@123@J@Z 0040cca0 f i cinder:Window.obj
 0001:0000bcd0       ??$make_obj_guard@V?$auto_buffer@V?$variant@V?$shared_ptr@X@boost@@Vforeign_void_shared_ptr@detail@signals2@2@Uvoid_@042@U6042@U6042@U6042@U6042@U6042@U6042@U6042@U6042@U6042@U6042@U6042@U6042@U6042@U6042@U6042@U6042@U6042@@boost@@U?$store_n_objects@$09@detail@signals2@2@Udefault_grow_policy@452@V?$allocator@V?$variant@V?$shared_ptr@X@boost@@Vforeign_void_shared_ptr@detail@signals2@2@Uvoid_@042@U6042@U6042@U6042@U6042@U6042@U6042@U6042@U6042@U6042@U6042@U6042@U6042@U6042@U6042@U6042@U6042@U6042@@boost@@@std@@@detail@signals2@boost@@P81234@AEXPAV?$variant@V?$shared_ptr@X@boost@@Vforeign_void_shared_ptr@detail@signals2@2@Uvoid_@042@U6042@U6042@U6042@U6042@U6042@U6042@U6042@U6042@U6042@U6042@U6042@U6042@U6042@U6042@U6042@U6042@U6042@@4@I@ZPAV54@I@detail@multi_index@boost@@YA?AV?$obj_scope_guard_impl2@V?$auto_buffer@V?$variant@V?$shared_ptr@X@boost@@Vforeign_void_shared_ptr@detail@signals2@2@Uvoid_@042@U6042@U6042@U6042@U6042@U6042@U6042@U6042@U6042@U6042@U6042@U6042@U6042@U6042@U6042@U6042@U6042@U6042@@boost@@U?$store_n_objects@$09@detail@signals2@2@Udefault_grow_policy@452@V?$allocator@V?$variant@V?$shared_ptr@X@boost@@Vforeign_void_shared_ptr@detail@signals2@2@Uvoid_@042@U6042@U6042@U6042@U6042@U6042@U6042@U6042@U6042@U6042@U6042@U6042@U6042@U6042@U6042@U6042@U6042@U6042@@boost@@@std@@@detail@signals2@boost@@P81234@AEXPAV?$variant@V?$shared_ptr@X@boost@@Vforeign_void_shared_ptr@detail@signals2@2@Uvoid_@042@U6042@U6042@U6042@U6042@U6042@U6042@U6042@U6042@U6042@U6042@U6042@U6042@U6042@U6042@U6042@U6042@U6042@@4@I@ZPAV54@I@012@AAV?$auto_buffer@V?$variant@V?$shared_ptr@X@boost@@Vforeign_void_shared_ptr@detail@signals2@2@Uvoid_@042@U6042@U6042@U6042@U6042@U6042@U6042@U6042@U6042@U6042@U6042@U6042@U6042@U6042@U6042@U6042@U6042@U6042@@boost@@U?$store_n_objects@$09@detail@signals2@2@Udefault_grow_policy@452@V?$allocator@V?$variant@V?$shared_ptr@X@boost@@Vforeign_void_shared_ptr@detail@signals2@2@Uvoid_@042@U6042@U6042@U6042@U6042@U6042@U6042@U6042@U6042@U6042@U6042@U6042@U6042@U6042@U6042@U6042@U6042@U6042@@boost@@@std@@@0signals2@2@P84052@AEXPAV?$variant@V?$shared_ptr@X@boost@@Vforeign_void_shared_ptr@detail@signals2@2@Uvoid_@042@U6042@U6042@U6042@U6042@U6042@U6042@U6042@U6042@U6042@U6042@U6042@U6042@U6042@U6042@U6042@U6042@U6042@@2@I@Z1I@Z 0040ccd0 f i cinder:Window.obj
 0001:0000bd00       ??$nolock_grab_tracked_objects@V?$back_insert_iterator@V?$auto_buffer@V?$variant@V?$shared_ptr@X@boost@@Vforeign_void_shared_ptr@detail@signals2@2@Uvoid_@042@U6042@U6042@U6042@U6042@U6042@U6042@U6042@U6042@U6042@U6042@U6042@U6042@U6042@U6042@U6042@U6042@U6042@@boost@@U?$store_n_objects@$09@detail@signals2@2@Udefault_grow_policy@452@V?$allocator@V?$variant@V?$shared_ptr@X@boost@@Vforeign_void_shared_ptr@detail@signals2@2@Uvoid_@042@U6042@U6042@U6042@U6042@U6042@U6042@U6042@U6042@U6042@U6042@U6042@U6042@U6042@U6042@U6042@U6042@U6042@@boost@@@std@@@detail@signals2@boost@@@std@@@?$connection_body@U?$pair@W4slot_meta_group@detail@signals2@boost@@V?$optional@H@4@@std@@V?$slot1@XAAVFileDropEvent@app@cinder@@V?$function@$$A6AXAAVFileDropEvent@app@cinder@@@Z@boost@@@signals2@boost@@Vmutex@45@@detail@signals2@boost@@QBEXV?$back_insert_iterator@V?$auto_buffer@V?$variant@V?$shared_ptr@X@boost@@Vforeign_void_shared_ptr@detail@signals2@2@Uvoid_@042@U6042@U6042@U6042@U6042@U6042@U6042@U6042@U6042@U6042@U6042@U6042@U6042@U6042@U6042@U6042@U6042@U6042@@boost@@U?$store_n_objects@$09@detail@signals2@2@Udefault_grow_policy@452@V?$allocator@V?$variant@V?$shared_ptr@X@boost@@Vforeign_void_shared_ptr@detail@signals2@2@Uvoid_@042@U6042@U6042@U6042@U6042@U6042@U6042@U6042@U6042@U6042@U6042@U6042@U6042@U6042@U6042@U6042@U6042@U6042@@boost@@@std@@@detail@signals2@boost@@@std@@@Z 0040cd00 f i cinder:Window.obj
 0001:0000bd00       ??$nolock_grab_tracked_objects@V?$back_insert_iterator@V?$auto_buffer@V?$variant@V?$shared_ptr@X@boost@@Vforeign_void_shared_ptr@detail@signals2@2@Uvoid_@042@U6042@U6042@U6042@U6042@U6042@U6042@U6042@U6042@U6042@U6042@U6042@U6042@U6042@U6042@U6042@U6042@U6042@@boost@@U?$store_n_objects@$09@detail@signals2@2@Udefault_grow_policy@452@V?$allocator@V?$variant@V?$shared_ptr@X@boost@@Vforeign_void_shared_ptr@detail@signals2@2@Uvoid_@042@U6042@U6042@U6042@U6042@U6042@U6042@U6042@U6042@U6042@U6042@U6042@U6042@U6042@U6042@U6042@U6042@U6042@@boost@@@std@@@detail@signals2@boost@@@std@@@?$connection_body@U?$pair@W4slot_meta_group@detail@signals2@boost@@V?$optional@H@4@@std@@V?$slot0@XV?$function@$$A6AXXZ@boost@@@signals2@boost@@Vmutex@45@@detail@signals2@boost@@QBEXV?$back_insert_iterator@V?$auto_buffer@V?$variant@V?$shared_ptr@X@boost@@Vforeign_void_shared_ptr@detail@signals2@2@Uvoid_@042@U6042@U6042@U6042@U6042@U6042@U6042@U6042@U6042@U6042@U6042@U6042@U6042@U6042@U6042@U6042@U6042@U6042@@boost@@U?$store_n_objects@$09@detail@signals2@2@Udefault_grow_policy@452@V?$allocator@V?$variant@V?$shared_ptr@X@boost@@Vforeign_void_shared_ptr@detail@signals2@2@Uvoid_@042@U6042@U6042@U6042@U6042@U6042@U6042@U6042@U6042@U6042@U6042@U6042@U6042@U6042@U6042@U6042@U6042@U6042@@boost@@@std@@@detail@signals2@boost@@@std@@@Z 0040cd00 f i cinder:Window.obj
 0001:0000bd00       ??$nolock_grab_tracked_objects@V?$back_insert_iterator@V?$auto_buffer@V?$variant@V?$shared_ptr@X@boost@@Vforeign_void_shared_ptr@detail@signals2@2@Uvoid_@042@U6042@U6042@U6042@U6042@U6042@U6042@U6042@U6042@U6042@U6042@U6042@U6042@U6042@U6042@U6042@U6042@U6042@@boost@@U?$store_n_objects@$09@detail@signals2@2@Udefault_grow_policy@452@V?$allocator@V?$variant@V?$shared_ptr@X@boost@@Vforeign_void_shared_ptr@detail@signals2@2@Uvoid_@042@U6042@U6042@U6042@U6042@U6042@U6042@U6042@U6042@U6042@U6042@U6042@U6042@U6042@U6042@U6042@U6042@U6042@@boost@@@std@@@detail@signals2@boost@@@std@@@?$connection_body@U?$pair@W4slot_meta_group@detail@signals2@boost@@V?$optional@H@4@@std@@V?$slot1@XAAVMouseEvent@app@cinder@@V?$function@$$A6AXAAVMouseEvent@app@cinder@@@Z@boost@@@signals2@boost@@Vmutex@45@@detail@signals2@boost@@QBEXV?$back_insert_iterator@V?$auto_buffer@V?$variant@V?$shared_ptr@X@boost@@Vforeign_void_shared_ptr@detail@signals2@2@Uvoid_@042@U6042@U6042@U6042@U6042@U6042@U6042@U6042@U6042@U6042@U6042@U6042@U6042@U6042@U6042@U6042@U6042@U6042@@boost@@U?$store_n_objects@$09@detail@signals2@2@Udefault_grow_policy@452@V?$allocator@V?$variant@V?$shared_ptr@X@boost@@Vforeign_void_shared_ptr@detail@signals2@2@Uvoid_@042@U6042@U6042@U6042@U6042@U6042@U6042@U6042@U6042@U6042@U6042@U6042@U6042@U6042@U6042@U6042@U6042@U6042@@boost@@@std@@@detail@signals2@boost@@@std@@@Z 0040cd00 f i cinder:Window.obj
 0001:0000bd00       ??$nolock_grab_tracked_objects@V?$back_insert_iterator@V?$auto_buffer@V?$variant@V?$shared_ptr@X@boost@@Vforeign_void_shared_ptr@detail@signals2@2@Uvoid_@042@U6042@U6042@U6042@U6042@U6042@U6042@U6042@U6042@U6042@U6042@U6042@U6042@U6042@U6042@U6042@U6042@U6042@@boost@@U?$store_n_objects@$09@detail@signals2@2@Udefault_grow_policy@452@V?$allocator@V?$variant@V?$shared_ptr@X@boost@@Vforeign_void_shared_ptr@detail@signals2@2@Uvoid_@042@U6042@U6042@U6042@U6042@U6042@U6042@U6042@U6042@U6042@U6042@U6042@U6042@U6042@U6042@U6042@U6042@U6042@@boost@@@std@@@detail@signals2@boost@@@std@@@?$connection_body@U?$pair@W4slot_meta_group@detail@signals2@boost@@V?$optional@H@4@@std@@V?$slot1@XAAVTouchEvent@app@cinder@@V?$function@$$A6AXAAVTouchEvent@app@cinder@@@Z@boost@@@signals2@boost@@Vmutex@45@@detail@signals2@boost@@QBEXV?$back_insert_iterator@V?$auto_buffer@V?$variant@V?$shared_ptr@X@boost@@Vforeign_void_shared_ptr@detail@signals2@2@Uvoid_@042@U6042@U6042@U6042@U6042@U6042@U6042@U6042@U6042@U6042@U6042@U6042@U6042@U6042@U6042@U6042@U6042@U6042@@boost@@U?$store_n_objects@$09@detail@signals2@2@Udefault_grow_policy@452@V?$allocator@V?$variant@V?$shared_ptr@X@boost@@Vforeign_void_shared_ptr@detail@signals2@2@Uvoid_@042@U6042@U6042@U6042@U6042@U6042@U6042@U6042@U6042@U6042@U6042@U6042@U6042@U6042@U6042@U6042@U6042@U6042@@boost@@@std@@@detail@signals2@boost@@@std@@@Z 0040cd00 f i cinder:Window.obj
 0001:0000bd00       ??$nolock_grab_tracked_objects@V?$back_insert_iterator@V?$auto_buffer@V?$variant@V?$shared_ptr@X@boost@@Vforeign_void_shared_ptr@detail@signals2@2@Uvoid_@042@U6042@U6042@U6042@U6042@U6042@U6042@U6042@U6042@U6042@U6042@U6042@U6042@U6042@U6042@U6042@U6042@U6042@@boost@@U?$store_n_objects@$09@detail@signals2@2@Udefault_grow_policy@452@V?$allocator@V?$variant@V?$shared_ptr@X@boost@@Vforeign_void_shared_ptr@detail@signals2@2@Uvoid_@042@U6042@U6042@U6042@U6042@U6042@U6042@U6042@U6042@U6042@U6042@U6042@U6042@U6042@U6042@U6042@U6042@U6042@@boost@@@std@@@detail@signals2@boost@@@std@@@?$connection_body@U?$pair@W4slot_meta_group@detail@signals2@boost@@V?$optional@H@4@@std@@V?$slot1@XAAVKeyEvent@app@cinder@@V?$function@$$A6AXAAVKeyEvent@app@cinder@@@Z@boost@@@signals2@boost@@Vmutex@45@@detail@signals2@boost@@QBEXV?$back_insert_iterator@V?$auto_buffer@V?$variant@V?$shared_ptr@X@boost@@Vforeign_void_shared_ptr@detail@signals2@2@Uvoid_@042@U6042@U6042@U6042@U6042@U6042@U6042@U6042@U6042@U6042@U6042@U6042@U6042@U6042@U6042@U6042@U6042@U6042@@boost@@U?$store_n_objects@$09@detail@signals2@2@Udefault_grow_policy@452@V?$allocator@V?$variant@V?$shared_ptr@X@boost@@Vforeign_void_shared_ptr@detail@signals2@2@Uvoid_@042@U6042@U6042@U6042@U6042@U6042@U6042@U6042@U6042@U6042@U6042@U6042@U6042@U6042@U6042@U6042@U6042@U6042@@boost@@@std@@@detail@signals2@boost@@@std@@@Z 0040cd00 f i cinder:Window.obj
 0001:0000bec0       ??$reset@Vinvocation_state@?$signal0_impl@XV?$optional_last_value@X@signals2@boost@@HU?$less@H@std@@V?$function@$$A6AXXZ@3@V?$function@$$A6AXABVconnection@signals2@boost@@@Z@3@Vmutex@23@@detail@signals2@boost@@@?$shared_ptr@Vinvocation_state@?$signal0_impl@XV?$optional_last_value@X@signals2@boost@@HU?$less@H@std@@V?$function@$$A6AXXZ@3@V?$function@$$A6AXABVconnection@signals2@boost@@@Z@3@Vmutex@23@@detail@signals2@boost@@@boost@@QAEXPAVinvocation_state@?$signal0_impl@XV?$optional_last_value@X@signals2@boost@@HU?$less@H@std@@V?$function@$$A6AXXZ@3@V?$function@$$A6AXABVconnection@signals2@boost@@@Z@3@Vmutex@23@@detail@signals2@1@@Z 0040cec0 f i cinder:Window.obj
 0001:0000bf20       ??$reset@Vinvocation_state@?$signal1_impl@XAAVFileDropEvent@app@cinder@@U?$EventCombiner@VFileDropEvent@app@cinder@@@23@HU?$less@H@std@@V?$function@$$A6AXAAVFileDropEvent@app@cinder@@@Z@boost@@V?$function@$$A6AXABVconnection@signals2@boost@@AAVFileDropEvent@app@cinder@@@Z@8@Vmutex@signals2@8@@detail@signals2@boost@@@?$shared_ptr@Vinvocation_state@?$signal1_impl@XAAVFileDropEvent@app@cinder@@U?$EventCombiner@VFileDropEvent@app@cinder@@@23@HU?$less@H@std@@V?$function@$$A6AXAAVFileDropEvent@app@cinder@@@Z@boost@@V?$function@$$A6AXABVconnection@signals2@boost@@AAVFileDropEvent@app@cinder@@@Z@8@Vmutex@signals2@8@@detail@signals2@boost@@@boost@@QAEXPAVinvocation_state@?$signal1_impl@XAAVFileDropEvent@app@cinder@@U?$EventCombiner@VFileDropEvent@app@cinder@@@23@HU?$less@H@std@@V?$function@$$A6AXAAVFileDropEvent@app@cinder@@@Z@boost@@V?$function@$$A6AXABVconnection@signals2@boost@@AAVFileDropEvent@app@cinder@@@Z@8@Vmutex@signals2@8@@detail@signals2@1@@Z 0040cf20 f i cinder:Window.obj
 0001:0000bf80       ??$reset@Vinvocation_state@?$signal1_impl@XAAVKeyEvent@app@cinder@@U?$EventCombiner@VKeyEvent@app@cinder@@@23@HU?$less@H@std@@V?$function@$$A6AXAAVKeyEvent@app@cinder@@@Z@boost@@V?$function@$$A6AXABVconnection@signals2@boost@@AAVKeyEvent@app@cinder@@@Z@8@Vmutex@signals2@8@@detail@signals2@boost@@@?$shared_ptr@Vinvocation_state@?$signal1_impl@XAAVKeyEvent@app@cinder@@U?$EventCombiner@VKeyEvent@app@cinder@@@23@HU?$less@H@std@@V?$function@$$A6AXAAVKeyEvent@app@cinder@@@Z@boost@@V?$function@$$A6AXABVconnection@signals2@boost@@AAVKeyEvent@app@cinder@@@Z@8@Vmutex@signals2@8@@detail@signals2@boost@@@boost@@QAEXPAVinvocation_state@?$signal1_impl@XAAVKeyEvent@app@cinder@@U?$EventCombiner@VKeyEvent@app@cinder@@@23@HU?$less@H@std@@V?$function@$$A6AXAAVKeyEvent@app@cinder@@@Z@boost@@V?$function@$$A6AXABVconnection@signals2@boost@@AAVKeyEvent@app@cinder@@@Z@8@Vmutex@signals2@8@@detail@signals2@1@@Z 0040cf80 f i cinder:Window.obj
 0001:0000bfe0       ??$reset@Vinvocation_state@?$signal1_impl@XAAVMouseEvent@app@cinder@@U?$EventCombiner@VMouseEvent@app@cinder@@@23@HU?$less@H@std@@V?$function@$$A6AXAAVMouseEvent@app@cinder@@@Z@boost@@V?$function@$$A6AXABVconnection@signals2@boost@@AAVMouseEvent@app@cinder@@@Z@8@Vmutex@signals2@8@@detail@signals2@boost@@@?$shared_ptr@Vinvocation_state@?$signal1_impl@XAAVMouseEvent@app@cinder@@U?$EventCombiner@VMouseEvent@app@cinder@@@23@HU?$less@H@std@@V?$function@$$A6AXAAVMouseEvent@app@cinder@@@Z@boost@@V?$function@$$A6AXABVconnection@signals2@boost@@AAVMouseEvent@app@cinder@@@Z@8@Vmutex@signals2@8@@detail@signals2@boost@@@boost@@QAEXPAVinvocation_state@?$signal1_impl@XAAVMouseEvent@app@cinder@@U?$EventCombiner@VMouseEvent@app@cinder@@@23@HU?$less@H@std@@V?$function@$$A6AXAAVMouseEvent@app@cinder@@@Z@boost@@V?$function@$$A6AXABVconnection@signals2@boost@@AAVMouseEvent@app@cinder@@@Z@8@Vmutex@signals2@8@@detail@signals2@1@@Z 0040cfe0 f i cinder:Window.obj
 0001:0000c040       ??$reset@Vinvocation_state@?$signal1_impl@XAAVTouchEvent@app@cinder@@U?$EventCombiner@VTouchEvent@app@cinder@@@23@HU?$less@H@std@@V?$function@$$A6AXAAVTouchEvent@app@cinder@@@Z@boost@@V?$function@$$A6AXABVconnection@signals2@boost@@AAVTouchEvent@app@cinder@@@Z@8@Vmutex@signals2@8@@detail@signals2@boost@@@?$shared_ptr@Vinvocation_state@?$signal1_impl@XAAVTouchEvent@app@cinder@@U?$EventCombiner@VTouchEvent@app@cinder@@@23@HU?$less@H@std@@V?$function@$$A6AXAAVTouchEvent@app@cinder@@@Z@boost@@V?$function@$$A6AXABVconnection@signals2@boost@@AAVTouchEvent@app@cinder@@@Z@8@Vmutex@signals2@8@@detail@signals2@boost@@@boost@@QAEXPAVinvocation_state@?$signal1_impl@XAAVTouchEvent@app@cinder@@U?$EventCombiner@VTouchEvent@app@cinder@@@23@HU?$less@H@std@@V?$function@$$A6AXAAVTouchEvent@app@cinder@@@Z@boost@@V?$function@$$A6AXABVconnection@signals2@boost@@AAVTouchEvent@app@cinder@@@Z@8@Vmutex@signals2@8@@detail@signals2@1@@Z 0040d040 f i cinder:Window.obj
 0001:0000c0a0       ??$safe_execute@V?$obj_scope_guard_impl2@V?$auto_buffer@V?$variant@V?$shared_ptr@X@boost@@Vforeign_void_shared_ptr@detail@signals2@2@Uvoid_@042@U6042@U6042@U6042@U6042@U6042@U6042@U6042@U6042@U6042@U6042@U6042@U6042@U6042@U6042@U6042@U6042@U6042@@boost@@U?$store_n_objects@$09@detail@signals2@2@Udefault_grow_policy@452@V?$allocator@V?$variant@V?$shared_ptr@X@boost@@Vforeign_void_shared_ptr@detail@signals2@2@Uvoid_@042@U6042@U6042@U6042@U6042@U6042@U6042@U6042@U6042@U6042@U6042@U6042@U6042@U6042@U6042@U6042@U6042@U6042@@boost@@@std@@@detail@signals2@boost@@P81234@AEXPAV?$variant@V?$shared_ptr@X@boost@@Vforeign_void_shared_ptr@detail@signals2@2@Uvoid_@042@U6042@U6042@U6042@U6042@U6042@U6042@U6042@U6042@U6042@U6042@U6042@U6042@U6042@U6042@U6042@U6042@U6042@@4@I@ZPAV54@I@detail@multi_index@boost@@@scope_guard_impl_base@detail@multi_index@boost@@KAXAAV?$obj_scope_guard_impl2@V?$auto_buffer@V?$variant@V?$shared_ptr@X@boost@@Vforeign_void_shared_ptr@detail@signals2@2@Uvoid_@042@U6042@U6042@U6042@U6042@U6042@U6042@U6042@U6042@U6042@U6042@U6042@U6042@U6042@U6042@U6042@U6042@U6042@@boost@@U?$store_n_objects@$09@detail@signals2@2@Udefault_grow_policy@452@V?$allocator@V?$variant@V?$shared_ptr@X@boost@@Vforeign_void_shared_ptr@detail@signals2@2@Uvoid_@042@U6042@U6042@U6042@U6042@U6042@U6042@U6042@U6042@U6042@U6042@U6042@U6042@U6042@U6042@U6042@U6042@U6042@@boost@@@std@@@detail@signals2@boost@@P81234@AEXPAV?$variant@V?$shared_ptr@X@boost@@Vforeign_void_shared_ptr@detail@signals2@2@Uvoid_@042@U6042@U6042@U6042@U6042@U6042@U6042@U6042@U6042@U6042@U6042@U6042@U6042@U6042@U6042@U6042@U6042@U6042@@4@I@ZPAV54@I@123@@Z 0040d0a0 f i cinder:Window.obj
 0001:0000c100       ??$throw_exception@Vbad_function_call@boost@@@boost@@YAXABVbad_function_call@0@@Z 0040d100 f i cinder:Window.obj
 0001:0000c160       ??$visitation_impl@U?$int_@$0A@@mpl@boost@@U?$visitation_impl_step@U?$l_iter@U?$l_item@U?$long_@$01@mpl@boost@@V?$shared_ptr@X@3@U?$l_item@U?$long_@$00@mpl@boost@@Vforeign_void_shared_ptr@detail@signals2@3@Ul_end@23@@23@@mpl@boost@@@mpl@boost@@U?$l_iter@Ul_end@mpl@boost@@@23@@variant@detail@3@Udestroyer@563@PAXUhas_fallback_type_@?$variant@V?$shared_ptr@X@boost@@Vforeign_void_shared_ptr@detail@signals2@2@Uvoid_@042@U6042@U6042@U6042@U6042@U6042@U6042@U6042@U6042@U6042@U6042@U6042@U6042@U6042@U6042@U6042@U6042@U6042@@3@@variant@detail@boost@@YAXHHAAUdestroyer@012@PAXU?$bool_@$0A@@mpl@2@Uhas_fallback_type_@?$variant@V?$shared_ptr@X@boost@@Vforeign_void_shared_ptr@detail@signals2@2@Uvoid_@042@U6042@U6042@U6042@U6042@U6042@U6042@U6042@U6042@U6042@U6042@U6042@U6042@U6042@U6042@U6042@U6042@U6042@@2@PAU?$int_@$0A@@52@PAU?$visitation_impl_step@U?$l_iter@U?$l_item@U?$long_@$01@mpl@boost@@V?$shared_ptr@X@3@U?$l_item@U?$long_@$00@mpl@boost@@Vforeign_void_shared_ptr@detail@signals2@3@Ul_end@23@@23@@mpl@boost@@@mpl@boost@@U?$l_iter@Ul_end@mpl@boost@@@23@@012@@Z 0040d160 f i cinder:Window.obj
 0001:0000c230       ??$visitation_impl@U?$int_@$0A@@mpl@boost@@U?$visitation_impl_step@U?$l_iter@U?$l_item@U?$long_@$01@mpl@boost@@V?$shared_ptr@X@3@U?$l_item@U?$long_@$00@mpl@boost@@Vforeign_void_shared_ptr@detail@signals2@3@Ul_end@23@@23@@mpl@boost@@@mpl@boost@@U?$l_iter@Ul_end@mpl@boost@@@23@@variant@detail@3@Vcopy_into@563@PBXUhas_fallback_type_@?$variant@V?$shared_ptr@X@boost@@Vforeign_void_shared_ptr@detail@signals2@2@Uvoid_@042@U6042@U6042@U6042@U6042@U6042@U6042@U6042@U6042@U6042@U6042@U6042@U6042@U6042@U6042@U6042@U6042@U6042@@3@@variant@detail@boost@@YAXHHAAVcopy_into@012@PBXU?$bool_@$0A@@mpl@2@Uhas_fallback_type_@?$variant@V?$shared_ptr@X@boost@@Vforeign_void_shared_ptr@detail@signals2@2@Uvoid_@042@U6042@U6042@U6042@U6042@U6042@U6042@U6042@U6042@U6042@U6042@U6042@U6042@U6042@U6042@U6042@U6042@U6042@@2@PAU?$int_@$0A@@52@PAU?$visitation_impl_step@U?$l_iter@U?$l_item@U?$long_@$01@mpl@boost@@V?$shared_ptr@X@3@U?$l_item@U?$long_@$00@mpl@boost@@Vforeign_void_shared_ptr@detail@signals2@3@Ul_end@23@@23@@mpl@boost@@@mpl@boost@@U?$l_iter@Ul_end@mpl@boost@@@23@@012@@Z 0040d230 f i cinder:Window.obj
 0001:0000c300       ??$visitation_impl@U?$int_@$0A@@mpl@boost@@U?$visitation_impl_step@U?$l_iter@U?$l_item@U?$long_@$01@mpl@boost@@V?$weak_ptr@X@3@U?$l_item@U?$long_@$00@mpl@boost@@Vforeign_void_weak_ptr@detail@signals2@3@Ul_end@23@@23@@mpl@boost@@@mpl@boost@@U?$l_iter@Ul_end@mpl@boost@@@23@@variant@detail@3@V?$invoke_visitor@$$CBVlock_weak_ptr_visitor@detail@signals2@boost@@@563@PBXUhas_fallback_type_@?$variant@V?$weak_ptr@X@boost@@Vforeign_void_weak_ptr@detail@signals2@2@Uvoid_@042@U6042@U6042@U6042@U6042@U6042@U6042@U6042@U6042@U6042@U6042@U6042@U6042@U6042@U6042@U6042@U6042@U6042@@3@@variant@detail@boost@@YA?AV?$variant@V?$shared_ptr@X@boost@@Vforeign_void_shared_ptr@detail@signals2@2@Uvoid_@042@U6042@U6042@U6042@U6042@U6042@U6042@U6042@U6042@U6042@U6042@U6042@U6042@U6042@U6042@U6042@U6042@U6042@@2@HHAAV?$invoke_visitor@$$CBVlock_weak_ptr_visitor@detail@signals2@boost@@@012@PBXU?$bool_@$0A@@mpl@2@Uhas_fallback_type_@?$variant@V?$weak_ptr@X@boost@@Vforeign_void_weak_ptr@detail@signals2@2@Uvoid_@042@U6042@U6042@U6042@U6042@U6042@U6042@U6042@U6042@U6042@U6042@U6042@U6042@U6042@U6042@U6042@U6042@U6042@@2@PAU?$int_@$0A@@62@PAU?$visitation_impl_step@U?$l_iter@U?$l_item@U?$long_@$01@mpl@boost@@V?$weak_ptr@X@3@U?$l_item@U?$long_@$00@mpl@boost@@Vforeign_void_weak_ptr@detail@signals2@3@Ul_end@23@@23@@mpl@boost@@@mpl@boost@@U?$l_iter@Ul_end@mpl@boost@@@23@@012@@Z 0040d300 f i cinder:Window.obj
 0001:0000c3f0       ??$visitation_impl_invoke@V?$invoke_visitor@$$CBVlock_weak_ptr_visitor@detail@signals2@boost@@@variant@detail@boost@@PBXUhas_fallback_type_@?$variant@V?$weak_ptr@X@boost@@Vforeign_void_weak_ptr@detail@signals2@2@Uvoid_@042@U6042@U6042@U6042@U6042@U6042@U6042@U6042@U6042@U6042@U6042@U6042@U6042@U6042@U6042@U6042@U6042@U6042@@4@@variant@detail@boost@@YA?AV?$variant@V?$shared_ptr@X@boost@@Vforeign_void_shared_ptr@detail@signals2@2@Uvoid_@042@U6042@U6042@U6042@U6042@U6042@U6042@U6042@U6042@U6042@U6042@U6042@U6042@U6042@U6042@U6042@U6042@U6042@@2@HAAV?$invoke_visitor@$$CBVlock_weak_ptr_visitor@detail@signals2@boost@@@012@PBXPAUapply_visitor_unrolled@012@Uhas_fallback_type_@?$variant@V?$weak_ptr@X@boost@@Vforeign_void_weak_ptr@detail@signals2@2@Uvoid_@042@U6042@U6042@U6042@U6042@U6042@U6042@U6042@U6042@U6042@U6042@U6042@U6042@U6042@U6042@U6042@U6042@U6042@@2@J@Z 0040d3f0 f i cinder:Window.obj
 0001:0000c3f0       ??$visitation_impl@U?$int_@$0BE@@mpl@boost@@U?$visitation_impl_step@U?$l_iter@Ul_end@mpl@boost@@@mpl@boost@@U123@@variant@detail@3@V?$invoke_visitor@$$CBVlock_weak_ptr_visitor@detail@signals2@boost@@@563@PBXUhas_fallback_type_@?$variant@V?$weak_ptr@X@boost@@Vforeign_void_weak_ptr@detail@signals2@2@Uvoid_@042@U6042@U6042@U6042@U6042@U6042@U6042@U6042@U6042@U6042@U6042@U6042@U6042@U6042@U6042@U6042@U6042@U6042@@3@@variant@detail@boost@@YA?AV?$variant@V?$shared_ptr@X@boost@@Vforeign_void_shared_ptr@detail@signals2@2@Uvoid_@042@U6042@U6042@U6042@U6042@U6042@U6042@U6042@U6042@U6042@U6042@U6042@U6042@U6042@U6042@U6042@U6042@U6042@@2@HHAAV?$invoke_visitor@$$CBVlock_weak_ptr_visitor@detail@signals2@boost@@@012@PBXU?$bool_@$00@mpl@2@Uhas_fallback_type_@?$variant@V?$weak_ptr@X@boost@@Vforeign_void_weak_ptr@detail@signals2@2@Uvoid_@042@U6042@U6042@U6042@U6042@U6042@U6042@U6042@U6042@U6042@U6042@U6042@U6042@U6042@U6042@U6042@U6042@U6042@@2@PAU?$int_@$0BE@@62@PAU?$visitation_impl_step@U?$l_iter@Ul_end@mpl@boost@@@mpl@boost@@U123@@012@@Z 0040d3f0 f i cinder:Window.obj
 0001:0000c400       ??$visitation_impl@U?$int_@$0BE@@mpl@boost@@U?$visitation_impl_step@U?$l_iter@Ul_end@mpl@boost@@@mpl@boost@@U123@@variant@detail@3@Udestroyer@563@PAXUhas_fallback_type_@?$variant@V?$shared_ptr@X@boost@@Vforeign_void_shared_ptr@detail@signals2@2@Uvoid_@042@U6042@U6042@U6042@U6042@U6042@U6042@U6042@U6042@U6042@U6042@U6042@U6042@U6042@U6042@U6042@U6042@U6042@@3@@variant@detail@boost@@YAXHHAAUdestroyer@012@PAXU?$bool_@$00@mpl@2@Uhas_fallback_type_@?$variant@V?$shared_ptr@X@boost@@Vforeign_void_shared_ptr@detail@signals2@2@Uvoid_@042@U6042@U6042@U6042@U6042@U6042@U6042@U6042@U6042@U6042@U6042@U6042@U6042@U6042@U6042@U6042@U6042@U6042@@2@PAU?$int_@$0BE@@52@PAU?$visitation_impl_step@U?$l_iter@Ul_end@mpl@boost@@@mpl@boost@@U123@@012@@Z 0040d400 f i cinder:Window.obj
 0001:0000c400       ??$visitation_impl_invoke@Udestroyer@variant@detail@boost@@PAXUhas_fallback_type_@?$variant@V?$shared_ptr@X@boost@@Vforeign_void_shared_ptr@detail@signals2@2@Uvoid_@042@U6042@U6042@U6042@U6042@U6042@U6042@U6042@U6042@U6042@U6042@U6042@U6042@U6042@U6042@U6042@U6042@U6042@@4@@variant@detail@boost@@YAXHAAUdestroyer@012@PAXPAUapply_visitor_unrolled@012@Uhas_fallback_type_@?$variant@V?$shared_ptr@X@boost@@Vforeign_void_shared_ptr@detail@signals2@2@Uvoid_@042@U6042@U6042@U6042@U6042@U6042@U6042@U6042@U6042@U6042@U6042@U6042@U6042@U6042@U6042@U6042@U6042@U6042@@2@J@Z 0040d400 f i cinder:Window.obj
 0001:0000c400       ??$visitation_impl_invoke@Vcopy_into@variant@detail@boost@@PBXUhas_fallback_type_@?$variant@V?$shared_ptr@X@boost@@Vforeign_void_shared_ptr@detail@signals2@2@Uvoid_@042@U6042@U6042@U6042@U6042@U6042@U6042@U6042@U6042@U6042@U6042@U6042@U6042@U6042@U6042@U6042@U6042@U6042@@4@@variant@detail@boost@@YAXHAAVcopy_into@012@PBXPAUapply_visitor_unrolled@012@Uhas_fallback_type_@?$variant@V?$shared_ptr@X@boost@@Vforeign_void_shared_ptr@detail@signals2@2@Uvoid_@042@U6042@U6042@U6042@U6042@U6042@U6042@U6042@U6042@U6042@U6042@U6042@U6042@U6042@U6042@U6042@U6042@U6042@@2@J@Z 0040d400 f i cinder:Window.obj
 0001:0000c400       ??$visitation_impl@U?$int_@$0BE@@mpl@boost@@U?$visitation_impl_step@U?$l_iter@Ul_end@mpl@boost@@@mpl@boost@@U123@@variant@detail@3@Vcopy_into@563@PBXUhas_fallback_type_@?$variant@V?$shared_ptr@X@boost@@Vforeign_void_shared_ptr@detail@signals2@2@Uvoid_@042@U6042@U6042@U6042@U6042@U6042@U6042@U6042@U6042@U6042@U6042@U6042@U6042@U6042@U6042@U6042@U6042@U6042@@3@@variant@detail@boost@@YAXHHAAVcopy_into@012@PBXU?$bool_@$00@mpl@2@Uhas_fallback_type_@?$variant@V?$shared_ptr@X@boost@@Vforeign_void_shared_ptr@detail@signals2@2@Uvoid_@042@U6042@U6042@U6042@U6042@U6042@U6042@U6042@U6042@U6042@U6042@U6042@U6042@U6042@U6042@U6042@U6042@U6042@@2@PAU?$int_@$0BE@@52@PAU?$visitation_impl_step@U?$l_iter@Ul_end@mpl@boost@@@mpl@boost@@U123@@012@@Z 0040d400 f i cinder:Window.obj
 0001:0000c410       ??$visitation_impl_invoke@Udestroyer@variant@detail@boost@@PAXVforeign_void_shared_ptr@3signals2@4@Uhas_fallback_type_@?$variant@V?$shared_ptr@X@boost@@Vforeign_void_shared_ptr@detail@signals2@2@Uvoid_@042@U6042@U6042@U6042@U6042@U6042@U6042@U6042@U6042@U6042@U6042@U6042@U6042@U6042@U6042@U6042@U6042@U6042@@4@@variant@detail@boost@@YAXHAAUdestroyer@012@PAXPAVforeign_void_shared_ptr@1signals2@2@Uhas_fallback_type_@?$variant@V?$shared_ptr@X@boost@@Vforeign_void_shared_ptr@detail@signals2@2@Uvoid_@042@U6042@U6042@U6042@U6042@U6042@U6042@U6042@U6042@U6042@U6042@U6042@U6042@U6042@U6042@U6042@U6042@U6042@@2@H@Z 0040d410 f i cinder:Window.obj
 0001:0000c450       ??$visitation_impl_invoke@V?$invoke_visitor@$$CBVlock_weak_ptr_visitor@detail@signals2@boost@@@variant@detail@boost@@PBXV?$weak_ptr@X@4@Uhas_fallback_type_@?$variant@V?$weak_ptr@X@boost@@Vforeign_void_weak_ptr@detail@signals2@2@Uvoid_@042@U6042@U6042@U6042@U6042@U6042@U6042@U6042@U6042@U6042@U6042@U6042@U6042@U6042@U6042@U6042@U6042@U6042@@4@@variant@detail@boost@@YA?AV?$variant@V?$shared_ptr@X@boost@@Vforeign_void_shared_ptr@detail@signals2@2@Uvoid_@042@U6042@U6042@U6042@U6042@U6042@U6042@U6042@U6042@U6042@U6042@U6042@U6042@U6042@U6042@U6042@U6042@U6042@@2@HAAV?$invoke_visitor@$$CBVlock_weak_ptr_visitor@detail@signals2@boost@@@012@PBXPAV?$weak_ptr@X@2@Uhas_fallback_type_@?$variant@V?$weak_ptr@X@boost@@Vforeign_void_weak_ptr@detail@signals2@2@Uvoid_@042@U6042@U6042@U6042@U6042@U6042@U6042@U6042@U6042@U6042@U6042@U6042@U6042@U6042@U6042@U6042@U6042@U6042@@2@H@Z 0040d450 f i cinder:Window.obj
 0001:0000c490       ??$visitation_impl_invoke@V?$invoke_visitor@$$CBVlock_weak_ptr_visitor@detail@signals2@boost@@@variant@detail@boost@@PBXVforeign_void_weak_ptr@3signals2@4@Uhas_fallback_type_@?$variant@V?$weak_ptr@X@boost@@Vforeign_void_weak_ptr@detail@signals2@2@Uvoid_@042@U6042@U6042@U6042@U6042@U6042@U6042@U6042@U6042@U6042@U6042@U6042@U6042@U6042@U6042@U6042@U6042@U6042@@4@@variant@detail@boost@@YA?AV?$variant@V?$shared_ptr@X@boost@@Vforeign_void_shared_ptr@detail@signals2@2@Uvoid_@042@U6042@U6042@U6042@U6042@U6042@U6042@U6042@U6042@U6042@U6042@U6042@U6042@U6042@U6042@U6042@U6042@U6042@@2@HAAV?$invoke_visitor@$$CBVlock_weak_ptr_visitor@detail@signals2@boost@@@012@PBXPAVforeign_void_weak_ptr@1signals2@2@Uhas_fallback_type_@?$variant@V?$weak_ptr@X@boost@@Vforeign_void_weak_ptr@detail@signals2@2@Uvoid_@042@U6042@U6042@U6042@U6042@U6042@U6042@U6042@U6042@U6042@U6042@U6042@U6042@U6042@U6042@U6042@U6042@U6042@@2@H@Z 0040d490 f i cinder:Window.obj
 0001:0000c4d0       ??$visitation_impl_invoke@Vconvert_copy_into@?$variant@V?$shared_ptr@X@boost@@Vforeign_void_shared_ptr@detail@signals2@2@Uvoid_@042@U6042@U6042@U6042@U6042@U6042@U6042@U6042@U6042@U6042@U6042@U6042@U6042@U6042@U6042@U6042@U6042@U6042@@boost@@PAXV?$shared_ptr@X@3@Uhas_fallback_type_@23@@variant@detail@boost@@YAHHAAVconvert_copy_into@?$variant@V?$shared_ptr@X@boost@@Vforeign_void_shared_ptr@detail@signals2@2@Uvoid_@042@U6042@U6042@U6042@U6042@U6042@U6042@U6042@U6042@U6042@U6042@U6042@U6042@U6042@U6042@U6042@U6042@U6042@@2@PAXPAV?$shared_ptr@X@2@Uhas_fallback_type_@42@H@Z 0040d4d0 f i cinder:Window.obj
 0001:0000c520       ??$visitation_impl_invoke@Vconvert_copy_into@?$variant@V?$shared_ptr@X@boost@@Vforeign_void_shared_ptr@detail@signals2@2@Uvoid_@042@U6042@U6042@U6042@U6042@U6042@U6042@U6042@U6042@U6042@U6042@U6042@U6042@U6042@U6042@U6042@U6042@U6042@@boost@@PAXVforeign_void_shared_ptr@detail@signals2@3@Uhas_fallback_type_@23@@variant@detail@boost@@YAHHAAVconvert_copy_into@?$variant@V?$shared_ptr@X@boost@@Vforeign_void_shared_ptr@detail@signals2@2@Uvoid_@042@U6042@U6042@U6042@U6042@U6042@U6042@U6042@U6042@U6042@U6042@U6042@U6042@U6042@U6042@U6042@U6042@U6042@@2@PAXPAVforeign_void_shared_ptr@1signals2@2@Uhas_fallback_type_@42@H@Z 0040d520 f i cinder:Window.obj
 0001:0000c5a0       ??$visitation_impl_invoke@Vcopy_into@variant@detail@boost@@PBXV?$shared_ptr@X@4@Uhas_fallback_type_@?$variant@V?$shared_ptr@X@boost@@Vforeign_void_shared_ptr@detail@signals2@2@Uvoid_@042@U6042@U6042@U6042@U6042@U6042@U6042@U6042@U6042@U6042@U6042@U6042@U6042@U6042@U6042@U6042@U6042@U6042@@4@@variant@detail@boost@@YAXHAAVcopy_into@012@PBXPAV?$shared_ptr@X@2@Uhas_fallback_type_@?$variant@V?$shared_ptr@X@boost@@Vforeign_void_shared_ptr@detail@signals2@2@Uvoid_@042@U6042@U6042@U6042@U6042@U6042@U6042@U6042@U6042@U6042@U6042@U6042@U6042@U6042@U6042@U6042@U6042@U6042@@2@H@Z 0040d5a0 f i cinder:Window.obj
 0001:0000c5e0       ??$visitation_impl_invoke@Vcopy_into@variant@detail@boost@@PBXVforeign_void_shared_ptr@3signals2@4@Uhas_fallback_type_@?$variant@V?$shared_ptr@X@boost@@Vforeign_void_shared_ptr@detail@signals2@2@Uvoid_@042@U6042@U6042@U6042@U6042@U6042@U6042@U6042@U6042@U6042@U6042@U6042@U6042@U6042@U6042@U6042@U6042@U6042@@4@@variant@detail@boost@@YAXHAAVcopy_into@012@PBXPAVforeign_void_shared_ptr@1signals2@2@Uhas_fallback_type_@?$variant@V?$shared_ptr@X@boost@@Vforeign_void_shared_ptr@detail@signals2@2@Uvoid_@042@U6042@U6042@U6042@U6042@U6042@U6042@U6042@U6042@U6042@U6042@U6042@U6042@U6042@U6042@U6042@U6042@U6042@@2@H@Z 0040d5e0 f i cinder:Window.obj
 0001:0000c650       ??$visitation_impl_invoke_impl@Udestroyer@variant@detail@boost@@PAXV?$shared_ptr@X@4@@variant@detail@boost@@YAXHAAUdestroyer@012@PAXPAV?$shared_ptr@X@2@U?$bool_@$0A@@mpl@2@@Z 0040d650 f i cinder:Window.obj
 0001:0000c6d0       ??$visitation_impl_invoke_impl@V?$invoke_visitor@$$CBVlock_weak_ptr_visitor@detail@signals2@boost@@@variant@detail@boost@@PBXV?$weak_ptr@X@4@@variant@detail@boost@@YA?AV?$variant@V?$shared_ptr@X@boost@@Vforeign_void_shared_ptr@detail@signals2@2@Uvoid_@042@U6042@U6042@U6042@U6042@U6042@U6042@U6042@U6042@U6042@U6042@U6042@U6042@U6042@U6042@U6042@U6042@U6042@@2@HAAV?$invoke_visitor@$$CBVlock_weak_ptr_visitor@detail@signals2@boost@@@012@PBXPAV?$weak_ptr@X@2@U?$bool_@$0A@@mpl@2@@Z 0040d6d0 f i cinder:Window.obj
 0001:0000c710       ??$visitation_impl_invoke_impl@V?$invoke_visitor@$$CBVlock_weak_ptr_visitor@detail@signals2@boost@@@variant@detail@boost@@PBXVforeign_void_weak_ptr@3signals2@4@@variant@detail@boost@@YA?AV?$variant@V?$shared_ptr@X@boost@@Vforeign_void_shared_ptr@detail@signals2@2@Uvoid_@042@U6042@U6042@U6042@U6042@U6042@U6042@U6042@U6042@U6042@U6042@U6042@U6042@U6042@U6042@U6042@U6042@U6042@@2@HAAV?$invoke_visitor@$$CBVlock_weak_ptr_visitor@detail@signals2@boost@@@012@PBXPAVforeign_void_weak_ptr@1signals2@2@U?$bool_@$0A@@mpl@2@@Z 0040d710 f i cinder:Window.obj
 0001:0000c750       ??0?$basic_string@_WU?$char_traits@_W@std@@V?$allocator@_W@2@@std@@QAE@ABV01@@Z 0040d750 f i cinder:Window.obj
 0001:0000c780       ??0?$clone_impl@U?$error_info_injector@Vbad_function_call@boost@@@exception_detail@boost@@@exception_detail@boost@@AAE@ABV012@Uclone_tag@012@@Z 0040d780 f i cinder:Window.obj
 0001:0000c840       ??0?$clone_impl@U?$error_info_injector@Vbad_function_call@boost@@@exception_detail@boost@@@exception_detail@boost@@QAE@ABV012@@Z 0040d840 f i cinder:Window.obj
 0001:0000c8e0       ??0?$error_info_injector@Vbad_function_call@boost@@@exception_detail@boost@@QAE@ABU012@@Z 0040d8e0 f i cinder:Window.obj
 0001:0000c980       ??0?$variant@V?$shared_ptr@X@boost@@Vforeign_void_shared_ptr@detail@signals2@2@Uvoid_@042@U6042@U6042@U6042@U6042@U6042@U6042@U6042@U6042@U6042@U6042@U6042@U6042@U6042@U6042@U6042@U6042@U6042@@boost@@QAE@ABV01@@Z 0040d980 f i cinder:Window.obj
 0001:0000c9f0       ??0?$vector@VTouch@TouchEvent@app@cinder@@V?$allocator@VTouch@TouchEvent@app@cinder@@@std@@@std@@QAE@ABV01@@Z 0040d9f0 f i cinder:Window.obj
 0001:0000caa0       ??0?$vector@Vpath@filesystem@boost@@V?$allocator@Vpath@filesystem@boost@@@std@@@std@@QAE@ABV01@@Z 0040daa0 f i cinder:Window.obj
 0001:0000cb50       ??0ExcInvalidWindow@app@cinder@@QAE@ABV012@@Z 0040db50 f i cinder:Window.obj
 0001:0000cb70       ??0Exception@cinder@@QAE@ABV01@@Z 0040db70 f i cinder:Window.obj
 0001:0000cb90       ??0FileDropEvent@app@cinder@@QAE@ABV012@@Z 0040db90 f i cinder:Window.obj
 0001:0000cc20       ??0KeyEvent@app@cinder@@QAE@ABV012@@Z 0040dc20 f i cinder:Window.obj
 0001:0000cca0       ??0MouseEvent@app@cinder@@QAE@ABV012@@Z 0040dca0 f i cinder:Window.obj
 0001:0000cd10       ??0bad_function_call@boost@@QAE@ABV01@@Z 0040dd10 f i cinder:Window.obj
 0001:0000cd30       ??0clone_base@exception_detail@boost@@QAE@ABV012@@Z 0040dd30 f i cinder:Window.obj
 0001:0000cd40       ??0exception@boost@@QAE@ABV01@@Z 0040dd40 f i cinder:Window.obj
 0001:0000cd80       ??0invocation_state@?$signal0_impl@XV?$optional_last_value@X@signals2@boost@@HU?$less@H@std@@V?$function@$$A6AXXZ@3@V?$function@$$A6AXABVconnection@signals2@boost@@@Z@3@Vmutex@23@@detail@signals2@boost@@QAE@ABV01234@ABV?$grouped_list@HU?$less@H@std@@V?$shared_ptr@V?$connection_body@U?$pair@W4slot_meta_group@detail@signals2@boost@@V?$optional@H@4@@std@@V?$slot0@XV?$function@$$A6AXXZ@boost@@@signals2@boost@@Vmutex@45@@detail@signals2@boost@@@boost@@@234@@Z 0040dd80 f i cinder:Window.obj
 0001:0000ce10       ??0invocation_state@?$signal1_impl@XAAVFileDropEvent@app@cinder@@U?$EventCombiner@VFileDropEvent@app@cinder@@@23@HU?$less@H@std@@V?$function@$$A6AXAAVFileDropEvent@app@cinder@@@Z@boost@@V?$function@$$A6AXABVconnection@signals2@boost@@AAVFileDropEvent@app@cinder@@@Z@8@Vmutex@signals2@8@@detail@signals2@boost@@QAE@ABV01234@ABU?$EventCombiner@VFileDropEvent@app@cinder@@@app@cinder@@@Z 0040de10 f i cinder:Window.obj
 0001:0000cea0       ??0invocation_state@?$signal1_impl@XAAVFileDropEvent@app@cinder@@U?$EventCombiner@VFileDropEvent@app@cinder@@@23@HU?$less@H@std@@V?$function@$$A6AXAAVFileDropEvent@app@cinder@@@Z@boost@@V?$function@$$A6AXABVconnection@signals2@boost@@AAVFileDropEvent@app@cinder@@@Z@8@Vmutex@signals2@8@@detail@signals2@boost@@QAE@ABV01234@ABV?$grouped_list@HU?$less@H@std@@V?$shared_ptr@V?$connection_body@U?$pair@W4slot_meta_group@detail@signals2@boost@@V?$optional@H@4@@std@@V?$slot1@XAAVFileDropEvent@app@cinder@@V?$function@$$A6AXAAVFileDropEvent@app@cinder@@@Z@boost@@@signals2@boost@@Vmutex@45@@detail@signals2@boost@@@boost@@@234@@Z 0040dea0 f i cinder:Window.obj
 0001:0000cf30       ??0invocation_state@?$signal1_impl@XAAVKeyEvent@app@cinder@@U?$EventCombiner@VKeyEvent@app@cinder@@@23@HU?$less@H@std@@V?$function@$$A6AXAAVKeyEvent@app@cinder@@@Z@boost@@V?$function@$$A6AXABVconnection@signals2@boost@@AAVKeyEvent@app@cinder@@@Z@8@Vmutex@signals2@8@@detail@signals2@boost@@QAE@ABV01234@ABU?$EventCombiner@VKeyEvent@app@cinder@@@app@cinder@@@Z 0040df30 f i cinder:Window.obj
 0001:0000cfc0       ??0invocation_state@?$signal1_impl@XAAVKeyEvent@app@cinder@@U?$EventCombiner@VKeyEvent@app@cinder@@@23@HU?$less@H@std@@V?$function@$$A6AXAAVKeyEvent@app@cinder@@@Z@boost@@V?$function@$$A6AXABVconnection@signals2@boost@@AAVKeyEvent@app@cinder@@@Z@8@Vmutex@signals2@8@@detail@signals2@boost@@QAE@ABV01234@ABV?$grouped_list@HU?$less@H@std@@V?$shared_ptr@V?$connection_body@U?$pair@W4slot_meta_group@detail@signals2@boost@@V?$optional@H@4@@std@@V?$slot1@XAAVKeyEvent@app@cinder@@V?$function@$$A6AXAAVKeyEvent@app@cinder@@@Z@boost@@@signals2@boost@@Vmutex@45@@detail@signals2@boost@@@boost@@@234@@Z 0040dfc0 f i cinder:Window.obj
 0001:0000d050       ??0invocation_state@?$signal1_impl@XAAVMouseEvent@app@cinder@@U?$EventCombiner@VMouseEvent@app@cinder@@@23@HU?$less@H@std@@V?$function@$$A6AXAAVMouseEvent@app@cinder@@@Z@boost@@V?$function@$$A6AXABVconnection@signals2@boost@@AAVMouseEvent@app@cinder@@@Z@8@Vmutex@signals2@8@@detail@signals2@boost@@QAE@ABV01234@ABU?$EventCombiner@VMouseEvent@app@cinder@@@app@cinder@@@Z 0040e050 f i cinder:Window.obj
 0001:0000d0e0       ??0invocation_state@?$signal1_impl@XAAVMouseEvent@app@cinder@@U?$EventCombiner@VMouseEvent@app@cinder@@@23@HU?$less@H@std@@V?$function@$$A6AXAAVMouseEvent@app@cinder@@@Z@boost@@V?$function@$$A6AXABVconnection@signals2@boost@@AAVMouseEvent@app@cinder@@@Z@8@Vmutex@signals2@8@@detail@signals2@boost@@QAE@ABV01234@ABV?$grouped_list@HU?$less@H@std@@V?$shared_ptr@V?$connection_body@U?$pair@W4slot_meta_group@detail@signals2@boost@@V?$optional@H@4@@std@@V?$slot1@XAAVMouseEvent@app@cinder@@V?$function@$$A6AXAAVMouseEvent@app@cinder@@@Z@boost@@@signals2@boost@@Vmutex@45@@detail@signals2@boost@@@boost@@@234@@Z 0040e0e0 f i cinder:Window.obj
 0001:0000d170       ??0invocation_state@?$signal1_impl@XAAVTouchEvent@app@cinder@@U?$EventCombiner@VTouchEvent@app@cinder@@@23@HU?$less@H@std@@V?$function@$$A6AXAAVTouchEvent@app@cinder@@@Z@boost@@V?$function@$$A6AXABVconnection@signals2@boost@@AAVTouchEvent@app@cinder@@@Z@8@Vmutex@signals2@8@@detail@signals2@boost@@QAE@ABV01234@ABU?$EventCombiner@VTouchEvent@app@cinder@@@app@cinder@@@Z 0040e170 f i cinder:Window.obj
 0001:0000d200       ??0invocation_state@?$signal1_impl@XAAVTouchEvent@app@cinder@@U?$EventCombiner@VTouchEvent@app@cinder@@@23@HU?$less@H@std@@V?$function@$$A6AXAAVTouchEvent@app@cinder@@@Z@boost@@V?$function@$$A6AXABVconnection@signals2@boost@@AAVTouchEvent@app@cinder@@@Z@8@Vmutex@signals2@8@@detail@signals2@boost@@QAE@ABV01234@ABV?$grouped_list@HU?$less@H@std@@V?$shared_ptr@V?$connection_body@U?$pair@W4slot_meta_group@detail@signals2@boost@@V?$optional@H@4@@std@@V?$slot1@XAAVTouchEvent@app@cinder@@V?$function@$$A6AXAAVTouchEvent@app@cinder@@@Z@boost@@@signals2@boost@@Vmutex@45@@detail@signals2@boost@@@boost@@@234@@Z 0040e200 f i cinder:Window.obj
 0001:0000d290       ??1?$_Tree_comp@$00V?$_Tmap_traits@U?$pair@W4slot_meta_group@detail@signals2@boost@@V?$optional@H@4@@std@@V?$_List_iterator@V?$_List_val@U?$_List_simple_types@V?$shared_ptr@V?$connection_body@U?$pair@W4slot_meta_group@detail@signals2@boost@@V?$optional@H@4@@std@@V?$slot0@XV?$function@$$A6AXXZ@boost@@@signals2@boost@@Vmutex@45@@detail@signals2@boost@@@boost@@@std@@@std@@@2@V?$group_key_less@HU?$less@H@std@@@detail@signals2@boost@@V?$allocator@U?$pair@$$CBU?$pair@W4slot_meta_group@detail@signals2@boost@@V?$optional@H@4@@std@@V?$_List_iterator@V?$_List_val@U?$_List_simple_types@V?$shared_ptr@V?$connection_body@U?$pair@W4slot_meta_group@detail@signals2@boost@@V?$optional@H@4@@std@@V?$slot0@XV?$function@$$A6AXXZ@boost@@@signals2@boost@@Vmutex@45@@detail@signals2@boost@@@boost@@@std@@@std@@@2@@std@@@2@$0A@@std@@@std@@QAE@XZ 0040e290 f i cinder:Window.obj
 0001:0000d290       ??1?$_List_buy@V?$shared_ptr@V?$connection_body@U?$pair@W4slot_meta_group@detail@signals2@boost@@V?$optional@H@4@@std@@V?$slot1@XAAVKeyEvent@app@cinder@@V?$function@$$A6AXAAVKeyEvent@app@cinder@@@Z@boost@@@signals2@boost@@Vmutex@45@@detail@signals2@boost@@@boost@@V?$allocator@V?$shared_ptr@V?$connection_body@U?$pair@W4slot_meta_group@detail@signals2@boost@@V?$optional@H@4@@std@@V?$slot1@XAAVKeyEvent@app@cinder@@V?$function@$$A6AXAAVKeyEvent@app@cinder@@@Z@boost@@@signals2@boost@@Vmutex@45@@detail@signals2@boost@@@boost@@@std@@@std@@QAE@XZ 0040e290 f i cinder:Window.obj
 0001:0000d290       ??1?$_List_buy@V?$shared_ptr@V?$connection_body@U?$pair@W4slot_meta_group@detail@signals2@boost@@V?$optional@H@4@@std@@V?$slot0@_NV?$function@$$A6A_NXZ@boost@@@signals2@boost@@Vmutex@45@@detail@signals2@boost@@@boost@@V?$allocator@V?$shared_ptr@V?$connection_body@U?$pair@W4slot_meta_group@detail@signals2@boost@@V?$optional@H@4@@std@@V?$slot0@_NV?$function@$$A6A_NXZ@boost@@@signals2@boost@@Vmutex@45@@detail@signals2@boost@@@boost@@@std@@@std@@QAE@XZ 0040e290 f i cinder:AppBasic.obj
 0001:0000d290       ??1?$_List_buy@V?$shared_ptr@V?$connection_body@U?$pair@W4slot_meta_group@detail@signals2@boost@@V?$optional@H@4@@std@@V?$slot0@XV?$function@$$A6AXXZ@boost@@@signals2@boost@@Vmutex@45@@detail@signals2@boost@@@boost@@V?$allocator@V?$shared_ptr@V?$connection_body@U?$pair@W4slot_meta_group@detail@signals2@boost@@V?$optional@H@4@@std@@V?$slot0@XV?$function@$$A6AXXZ@boost@@@signals2@boost@@Vmutex@45@@detail@signals2@boost@@@boost@@@std@@@std@@QAE@XZ 0040e290 f i cinder:Window.obj
 0001:0000d290       ??1?$_List_buy@V?$shared_ptr@V?$connection_body@U?$pair@W4slot_meta_group@detail@signals2@boost@@V?$optional@H@4@@std@@V?$slot1@XAAVFileDropEvent@app@cinder@@V?$function@$$A6AXAAVFileDropEvent@app@cinder@@@Z@boost@@@signals2@boost@@Vmutex@45@@detail@signals2@boost@@@boost@@V?$allocator@V?$shared_ptr@V?$connection_body@U?$pair@W4slot_meta_group@detail@signals2@boost@@V?$optional@H@4@@std@@V?$slot1@XAAVFileDropEvent@app@cinder@@V?$function@$$A6AXAAVFileDropEvent@app@cinder@@@Z@boost@@@signals2@boost@@Vmutex@45@@detail@signals2@boost@@@boost@@@std@@@std@@QAE@XZ 0040e290 f i cinder:Window.obj
 0001:0000d290       ??1?$_Tree_comp@$00V?$_Tmap_traits@U?$pair@W4slot_meta_group@detail@signals2@boost@@V?$optional@H@4@@std@@V?$_List_iterator@V?$_List_val@U?$_List_simple_types@V?$shared_ptr@V?$connection_body@U?$pair@W4slot_meta_group@detail@signals2@boost@@V?$optional@H@4@@std@@V?$slot0@_NV?$function@$$A6A_NXZ@boost@@@signals2@boost@@Vmutex@45@@detail@signals2@boost@@@boost@@@std@@@std@@@2@V?$group_key_less@HU?$less@H@std@@@detail@signals2@boost@@V?$allocator@U?$pair@$$CBU?$pair@W4slot_meta_group@detail@signals2@boost@@V?$optional@H@4@@std@@V?$_List_iterator@V?$_List_val@U?$_List_simple_types@V?$shared_ptr@V?$connection_body@U?$pair@W4slot_meta_group@detail@signals2@boost@@V?$optional@H@4@@std@@V?$slot0@_NV?$function@$$A6A_NXZ@boost@@@signals2@boost@@Vmutex@45@@detail@signals2@boost@@@boost@@@std@@@std@@@2@@std@@@2@$0A@@std@@@std@@QAE@XZ 0040e290 f i cinder:AppBasic.obj
 0001:0000d290       ??1?$_List_buy@V?$shared_ptr@V?$connection_body@U?$pair@W4slot_meta_group@detail@signals2@boost@@V?$optional@H@4@@std@@V?$slot1@XAAVMouseEvent@app@cinder@@V?$function@$$A6AXAAVMouseEvent@app@cinder@@@Z@boost@@@signals2@boost@@Vmutex@45@@detail@signals2@boost@@@boost@@V?$allocator@V?$shared_ptr@V?$connection_body@U?$pair@W4slot_meta_group@detail@signals2@boost@@V?$optional@H@4@@std@@V?$slot1@XAAVMouseEvent@app@cinder@@V?$function@$$A6AXAAVMouseEvent@app@cinder@@@Z@boost@@@signals2@boost@@Vmutex@45@@detail@signals2@boost@@@boost@@@std@@@std@@QAE@XZ 0040e290 f i cinder:Window.obj
 0001:0000d290       ??1?$_Tree_comp@$0A@V?$_Tmap_traits@HU?$pair@P6A?AV?$shared_ptr@VImageTarget@cinder@@@std@@V?$shared_ptr@VDataTarget@cinder@@@2@V?$shared_ptr@VImageSource@cinder@@@2@VOptions@ImageTarget@cinder@@ABV?$basic_string@DU?$char_traits@D@std@@V?$allocator@D@2@@2@@ZV82@@std@@U?$less@H@2@V?$allocator@U?$pair@$$CBHU?$pair@P6A?AV?$shared_ptr@VImageTarget@cinder@@@std@@V?$shared_ptr@VDataTarget@cinder@@@2@V?$shared_ptr@VImageSource@cinder@@@2@VOptions@ImageTarget@cinder@@ABV?$basic_string@DU?$char_traits@D@std@@V?$allocator@D@2@@2@@ZV82@@std@@@std@@@2@$00@std@@@std@@QAE@XZ 0040e290 f i cinder:ImageIo.obj
 0001:0000d290       ??1?$_Tree_comp@$00V?$_Tmap_traits@U?$pair@W4slot_meta_group@detail@signals2@boost@@V?$optional@H@4@@std@@V?$_List_iterator@V?$_List_val@U?$_List_simple_types@V?$shared_ptr@V?$connection_body@U?$pair@W4slot_meta_group@detail@signals2@boost@@V?$optional@H@4@@std@@V?$slot1@XAAVTouchEvent@app@cinder@@V?$function@$$A6AXAAVTouchEvent@app@cinder@@@Z@boost@@@signals2@boost@@Vmutex@45@@detail@signals2@boost@@@boost@@@std@@@std@@@2@V?$group_key_less@HU?$less@H@std@@@detail@signals2@boost@@V?$allocator@U?$pair@$$CBU?$pair@W4slot_meta_group@detail@signals2@boost@@V?$optional@H@4@@std@@V?$_List_iterator@V?$_List_val@U?$_List_simple_types@V?$shared_ptr@V?$connection_body@U?$pair@W4slot_meta_group@detail@signals2@boost@@V?$optional@H@4@@std@@V?$slot1@XAAVTouchEvent@app@cinder@@V?$function@$$A6AXAAVTouchEvent@app@cinder@@@Z@boost@@@signals2@boost@@Vmutex@45@@detail@signals2@boost@@@boost@@@std@@@std@@@2@@std@@@2@$0A@@std@@@std@@QAE@XZ 0040e290 f i cinder:Window.obj
 0001:0000d290       ??1?$_Tree_comp@$00V?$_Tmap_traits@U?$pair@W4slot_meta_group@detail@signals2@boost@@V?$optional@H@4@@std@@V?$_List_iterator@V?$_List_val@U?$_List_simple_types@V?$shared_ptr@V?$connection_body@U?$pair@W4slot_meta_group@detail@signals2@boost@@V?$optional@H@4@@std@@V?$slot1@XAAVMouseEvent@app@cinder@@V?$function@$$A6AXAAVMouseEvent@app@cinder@@@Z@boost@@@signals2@boost@@Vmutex@45@@detail@signals2@boost@@@boost@@@std@@@std@@@2@V?$group_key_less@HU?$less@H@std@@@detail@signals2@boost@@V?$allocator@U?$pair@$$CBU?$pair@W4slot_meta_group@detail@signals2@boost@@V?$optional@H@4@@std@@V?$_List_iterator@V?$_List_val@U?$_List_simple_types@V?$shared_ptr@V?$connection_body@U?$pair@W4slot_meta_group@detail@signals2@boost@@V?$optional@H@4@@std@@V?$slot1@XAAVMouseEvent@app@cinder@@V?$function@$$A6AXAAVMouseEvent@app@cinder@@@Z@boost@@@signals2@boost@@Vmutex@45@@detail@signals2@boost@@@boost@@@std@@@std@@@2@@std@@@2@$0A@@std@@@std@@QAE@XZ 0040e290 f i cinder:Window.obj
 0001:0000d290       ??1?$_Tree_comp@$00V?$_Tmap_traits@U?$pair@W4slot_meta_group@detail@signals2@boost@@V?$optional@H@4@@std@@V?$_List_iterator@V?$_List_val@U?$_List_simple_types@V?$shared_ptr@V?$connection_body@U?$pair@W4slot_meta_group@detail@signals2@boost@@V?$optional@H@4@@std@@V?$slot1@XAAVFileDropEvent@app@cinder@@V?$function@$$A6AXAAVFileDropEvent@app@cinder@@@Z@boost@@@signals2@boost@@Vmutex@45@@detail@signals2@boost@@@boost@@@std@@@std@@@2@V?$group_key_less@HU?$less@H@std@@@detail@signals2@boost@@V?$allocator@U?$pair@$$CBU?$pair@W4slot_meta_group@detail@signals2@boost@@V?$optional@H@4@@std@@V?$_List_iterator@V?$_List_val@U?$_List_simple_types@V?$shared_ptr@V?$connection_body@U?$pair@W4slot_meta_group@detail@signals2@boost@@V?$optional@H@4@@std@@V?$slot1@XAAVFileDropEvent@app@cinder@@V?$function@$$A6AXAAVFileDropEvent@app@cinder@@@Z@boost@@@signals2@boost@@Vmutex@45@@detail@signals2@boost@@@boost@@@std@@@std@@@2@@std@@@2@$0A@@std@@@std@@QAE@XZ 0040e290 f i cinder:Window.obj
 0001:0000d290       ??1?$_Tree_comp@$00V?$_Tmap_traits@U?$pair@W4slot_meta_group@detail@signals2@boost@@V?$optional@H@4@@std@@V?$_List_iterator@V?$_List_val@U?$_List_simple_types@V?$shared_ptr@V?$connection_body@U?$pair@W4slot_meta_group@detail@signals2@boost@@V?$optional@H@4@@std@@V?$slot1@XAAVKeyEvent@app@cinder@@V?$function@$$A6AXAAVKeyEvent@app@cinder@@@Z@boost@@@signals2@boost@@Vmutex@45@@detail@signals2@boost@@@boost@@@std@@@std@@@2@V?$group_key_less@HU?$less@H@std@@@detail@signals2@boost@@V?$allocator@U?$pair@$$CBU?$pair@W4slot_meta_group@detail@signals2@boost@@V?$optional@H@4@@std@@V?$_List_iterator@V?$_List_val@U?$_List_simple_types@V?$shared_ptr@V?$connection_body@U?$pair@W4slot_meta_group@detail@signals2@boost@@V?$optional@H@4@@std@@V?$slot1@XAAVKeyEvent@app@cinder@@V?$function@$$A6AXAAVKeyEvent@app@cinder@@@Z@boost@@@signals2@boost@@Vmutex@45@@detail@signals2@boost@@@boost@@@std@@@std@@@2@@std@@@2@$0A@@std@@@std@@QAE@XZ 0040e290 f i cinder:Window.obj
 0001:0000d290       ??1?$_List_buy@V?$shared_ptr@V?$connection_body@U?$pair@W4slot_meta_group@detail@signals2@boost@@V?$optional@H@4@@std@@V?$slot1@XAAVTouchEvent@app@cinder@@V?$function@$$A6AXAAVTouchEvent@app@cinder@@@Z@boost@@@signals2@boost@@Vmutex@45@@detail@signals2@boost@@@boost@@V?$allocator@V?$shared_ptr@V?$connection_body@U?$pair@W4slot_meta_group@detail@signals2@boost@@V?$optional@H@4@@std@@V?$slot1@XAAVTouchEvent@app@cinder@@V?$function@$$A6AXAAVTouchEvent@app@cinder@@@Z@boost@@@signals2@boost@@Vmutex@45@@detail@signals2@boost@@@boost@@@std@@@std@@QAE@XZ 0040e290 f i cinder:Window.obj
 0001:0000d2a0       ??1?$clone_impl@U?$error_info_injector@Vbad_function_call@boost@@@exception_detail@boost@@@exception_detail@boost@@UAE@XZ 0040e2a0 f i cinder:Window.obj
 0001:0000d300       ??1?$error_info_injector@Vbad_function_call@boost@@@exception_detail@boost@@UAE@XZ 0040e300 f i cinder:Window.obj
 0001:0000d340       ??1?$grouped_list@HU?$less@H@std@@V?$shared_ptr@V?$connection_body@U?$pair@W4slot_meta_group@detail@signals2@boost@@V?$optional@H@4@@std@@V?$slot0@_NV?$function@$$A6A_NXZ@boost@@@signals2@boost@@Vmutex@45@@detail@signals2@boost@@@boost@@@detail@signals2@boost@@QAE@XZ 0040e340 f i cinder:AppBasic.obj
 0001:0000d340       ??1?$grouped_list@HU?$less@H@std@@V?$shared_ptr@V?$connection_body@U?$pair@W4slot_meta_group@detail@signals2@boost@@V?$optional@H@4@@std@@V?$slot1@XAAVMouseEvent@app@cinder@@V?$function@$$A6AXAAVMouseEvent@app@cinder@@@Z@boost@@@signals2@boost@@Vmutex@45@@detail@signals2@boost@@@boost@@@detail@signals2@boost@@QAE@XZ 0040e340 f i cinder:Window.obj
 0001:0000d340       ??1?$grouped_list@HU?$less@H@std@@V?$shared_ptr@V?$connection_body@U?$pair@W4slot_meta_group@detail@signals2@boost@@V?$optional@H@4@@std@@V?$slot0@XV?$function@$$A6AXXZ@boost@@@signals2@boost@@Vmutex@45@@detail@signals2@boost@@@boost@@@detail@signals2@boost@@QAE@XZ 0040e340 f i cinder:Window.obj
 0001:0000d340       ??1?$grouped_list@HU?$less@H@std@@V?$shared_ptr@V?$connection_body@U?$pair@W4slot_meta_group@detail@signals2@boost@@V?$optional@H@4@@std@@V?$slot1@XAAVTouchEvent@app@cinder@@V?$function@$$A6AXAAVTouchEvent@app@cinder@@@Z@boost@@@signals2@boost@@Vmutex@45@@detail@signals2@boost@@@boost@@@detail@signals2@boost@@QAE@XZ 0040e340 f i cinder:Window.obj
 0001:0000d340       ??1?$grouped_list@HU?$less@H@std@@V?$shared_ptr@V?$connection_body@U?$pair@W4slot_meta_group@detail@signals2@boost@@V?$optional@H@4@@std@@V?$slot1@XAAVFileDropEvent@app@cinder@@V?$function@$$A6AXAAVFileDropEvent@app@cinder@@@Z@boost@@@signals2@boost@@Vmutex@45@@detail@signals2@boost@@@boost@@@detail@signals2@boost@@QAE@XZ 0040e340 f i cinder:Window.obj
 0001:0000d340       ??1?$grouped_list@HU?$less@H@std@@V?$shared_ptr@V?$connection_body@U?$pair@W4slot_meta_group@detail@signals2@boost@@V?$optional@H@4@@std@@V?$slot1@XAAVKeyEvent@app@cinder@@V?$function@$$A6AXAAVKeyEvent@app@cinder@@@Z@boost@@@signals2@boost@@Vmutex@45@@detail@signals2@boost@@@boost@@@detail@signals2@boost@@QAE@XZ 0040e340 f i cinder:Window.obj
 0001:0000d380       ??1?$list@V?$shared_ptr@V?$connection_body@U?$pair@W4slot_meta_group@detail@signals2@boost@@V?$optional@H@4@@std@@V?$slot0@_NV?$function@$$A6A_NXZ@boost@@@signals2@boost@@Vmutex@45@@detail@signals2@boost@@@boost@@V?$allocator@V?$shared_ptr@V?$connection_body@U?$pair@W4slot_meta_group@detail@signals2@boost@@V?$optional@H@4@@std@@V?$slot0@_NV?$function@$$A6A_NXZ@boost@@@signals2@boost@@Vmutex@45@@detail@signals2@boost@@@boost@@@std@@@std@@QAE@XZ 0040e380 f i cinder:AppBasic.obj
 0001:0000d380       ??1?$list@V?$shared_ptr@V?$connection_body@U?$pair@W4slot_meta_group@detail@signals2@boost@@V?$optional@H@4@@std@@V?$slot1@XAAVFileDropEvent@app@cinder@@V?$function@$$A6AXAAVFileDropEvent@app@cinder@@@Z@boost@@@signals2@boost@@Vmutex@45@@detail@signals2@boost@@@boost@@V?$allocator@V?$shared_ptr@V?$connection_body@U?$pair@W4slot_meta_group@detail@signals2@boost@@V?$optional@H@4@@std@@V?$slot1@XAAVFileDropEvent@app@cinder@@V?$function@$$A6AXAAVFileDropEvent@app@cinder@@@Z@boost@@@signals2@boost@@Vmutex@45@@detail@signals2@boost@@@boost@@@std@@@std@@QAE@XZ 0040e380 f i cinder:Window.obj
 0001:0000d380       ??1?$list@V?$shared_ptr@V?$connection_body@U?$pair@W4slot_meta_group@detail@signals2@boost@@V?$optional@H@4@@std@@V?$slot1@XAAVMouseEvent@app@cinder@@V?$function@$$A6AXAAVMouseEvent@app@cinder@@@Z@boost@@@signals2@boost@@Vmutex@45@@detail@signals2@boost@@@boost@@V?$allocator@V?$shared_ptr@V?$connection_body@U?$pair@W4slot_meta_group@detail@signals2@boost@@V?$optional@H@4@@std@@V?$slot1@XAAVMouseEvent@app@cinder@@V?$function@$$A6AXAAVMouseEvent@app@cinder@@@Z@boost@@@signals2@boost@@Vmutex@45@@detail@signals2@boost@@@boost@@@std@@@std@@QAE@XZ 0040e380 f i cinder:Window.obj
 0001:0000d380       ??1?$list@V?$shared_ptr@V?$connection_body@U?$pair@W4slot_meta_group@detail@signals2@boost@@V?$optional@H@4@@std@@V?$slot0@XV?$function@$$A6AXXZ@boost@@@signals2@boost@@Vmutex@45@@detail@signals2@boost@@@boost@@V?$allocator@V?$shared_ptr@V?$connection_body@U?$pair@W4slot_meta_group@detail@signals2@boost@@V?$optional@H@4@@std@@V?$slot0@XV?$function@$$A6AXXZ@boost@@@signals2@boost@@Vmutex@45@@detail@signals2@boost@@@boost@@@std@@@std@@QAE@XZ 0040e380 f i cinder:Window.obj
 0001:0000d380       ??1?$list@V?$shared_ptr@V?$connection_body@U?$pair@W4slot_meta_group@detail@signals2@boost@@V?$optional@H@4@@std@@V?$slot1@XAAVTouchEvent@app@cinder@@V?$function@$$A6AXAAVTouchEvent@app@cinder@@@Z@boost@@@signals2@boost@@Vmutex@45@@detail@signals2@boost@@@boost@@V?$allocator@V?$shared_ptr@V?$connection_body@U?$pair@W4slot_meta_group@detail@signals2@boost@@V?$optional@H@4@@std@@V?$slot1@XAAVTouchEvent@app@cinder@@V?$function@$$A6AXAAVTouchEvent@app@cinder@@@Z@boost@@@signals2@boost@@Vmutex@45@@detail@signals2@boost@@@boost@@@std@@@std@@QAE@XZ 0040e380 f i cinder:Window.obj
 0001:0000d380       ??1?$list@V?$shared_ptr@V?$connection_body@U?$pair@W4slot_meta_group@detail@signals2@boost@@V?$optional@H@4@@std@@V?$slot1@XAAVKeyEvent@app@cinder@@V?$function@$$A6AXAAVKeyEvent@app@cinder@@@Z@boost@@@signals2@boost@@Vmutex@45@@detail@signals2@boost@@@boost@@V?$allocator@V?$shared_ptr@V?$connection_body@U?$pair@W4slot_meta_group@detail@signals2@boost@@V?$optional@H@4@@std@@V?$slot1@XAAVKeyEvent@app@cinder@@V?$function@$$A6AXAAVKeyEvent@app@cinder@@@Z@boost@@@signals2@boost@@Vmutex@45@@detail@signals2@boost@@@boost@@@std@@@std@@QAE@XZ 0040e380 f i cinder:Window.obj
 0001:0000d3a0       ??1?$obj_scope_guard_impl2@V?$auto_buffer@V?$variant@V?$shared_ptr@X@boost@@Vforeign_void_shared_ptr@detail@signals2@2@Uvoid_@042@U6042@U6042@U6042@U6042@U6042@U6042@U6042@U6042@U6042@U6042@U6042@U6042@U6042@U6042@U6042@U6042@U6042@@boost@@U?$store_n_objects@$09@detail@signals2@2@Udefault_grow_policy@452@V?$allocator@V?$variant@V?$shared_ptr@X@boost@@Vforeign_void_shared_ptr@detail@signals2@2@Uvoid_@042@U6042@U6042@U6042@U6042@U6042@U6042@U6042@U6042@U6042@U6042@U6042@U6042@U6042@U6042@U6042@U6042@U6042@@boost@@@std@@@detail@signals2@boost@@P81234@AEXPAV?$variant@V?$shared_ptr@X@boost@@Vforeign_void_shared_ptr@detail@signals2@2@Uvoid_@042@U6042@U6042@U6042@U6042@U6042@U6042@U6042@U6042@U6042@U6042@U6042@U6042@U6042@U6042@U6042@U6042@U6042@@4@I@ZPAV54@I@detail@multi_index@boost@@QAE@XZ 0040e3a0 f i cinder:Window.obj
 0001:0000d3b0       ??1?$optional@Uvoid_type@detail@signals2@boost@@@boost@@QAE@XZ 0040e3b0 f i cinder:Window.obj
 0001:0000d3c0       ??1?$pair@U?$pair@W4slot_meta_group@detail@signals2@boost@@V?$optional@H@4@@std@@V?$_List_iterator@V?$_List_val@U?$_List_simple_types@V?$shared_ptr@V?$connection_body@U?$pair@W4slot_meta_group@detail@signals2@boost@@V?$optional@H@4@@std@@V?$slot1@XAAVKeyEvent@app@cinder@@V?$function@$$A6AXAAVKeyEvent@app@cinder@@@Z@boost@@@signals2@boost@@Vmutex@45@@detail@signals2@boost@@@boost@@@std@@@std@@@2@@std@@QAE@XZ 0040e3c0 f i cinder:Window.obj
 0001:0000d3c0       ??1?$pair@U?$pair@W4slot_meta_group@detail@signals2@boost@@V?$optional@H@4@@std@@V?$_List_iterator@V?$_List_val@U?$_List_simple_types@V?$shared_ptr@V?$connection_body@U?$pair@W4slot_meta_group@detail@signals2@boost@@V?$optional@H@4@@std@@V?$slot0@XV?$function@$$A6AXXZ@boost@@@signals2@boost@@Vmutex@45@@detail@signals2@boost@@@boost@@@std@@@std@@@2@@std@@QAE@XZ 0040e3c0 f i cinder:Window.obj
 0001:0000d3c0       ??1?$pair@U?$pair@W4slot_meta_group@detail@signals2@boost@@V?$optional@H@4@@std@@V?$_List_iterator@V?$_List_val@U?$_List_simple_types@V?$shared_ptr@V?$connection_body@U?$pair@W4slot_meta_group@detail@signals2@boost@@V?$optional@H@4@@std@@V?$slot1@XAAVFileDropEvent@app@cinder@@V?$function@$$A6AXAAVFileDropEvent@app@cinder@@@Z@boost@@@signals2@boost@@Vmutex@45@@detail@signals2@boost@@@boost@@@std@@@std@@@2@@std@@QAE@XZ 0040e3c0 f i cinder:Window.obj
 0001:0000d3c0       ??1?$pair@U?$pair@W4slot_meta_group@detail@signals2@boost@@V?$optional@H@4@@std@@V?$_List_iterator@V?$_List_val@U?$_List_simple_types@V?$shared_ptr@V?$connection_body@U?$pair@W4slot_meta_group@detail@signals2@boost@@V?$optional@H@4@@std@@V?$slot1@XAAVMouseEvent@app@cinder@@V?$function@$$A6AXAAVMouseEvent@app@cinder@@@Z@boost@@@signals2@boost@@Vmutex@45@@detail@signals2@boost@@@boost@@@std@@@std@@@2@@std@@QAE@XZ 0040e3c0 f i cinder:Window.obj
 0001:0000d3c0       ??1?$pair@U?$pair@W4slot_meta_group@detail@signals2@boost@@V?$optional@H@4@@std@@V?$_List_iterator@V?$_List_val@U?$_List_simple_types@V?$shared_ptr@V?$connection_body@U?$pair@W4slot_meta_group@detail@signals2@boost@@V?$optional@H@4@@std@@V?$slot1@XAAVTouchEvent@app@cinder@@V?$function@$$A6AXAAVTouchEvent@app@cinder@@@Z@boost@@@signals2@boost@@Vmutex@45@@detail@signals2@boost@@@boost@@@std@@@std@@@2@@std@@QAE@XZ 0040e3c0 f i cinder:Window.obj
 0001:0000d3d0       ??1?$refcount_ptr@Uerror_info_container@exception_detail@boost@@@exception_detail@boost@@QAE@XZ 0040e3d0 f i cinder:Window.obj
 0001:0000d3f0       ??1?$shared_ptr@Vinvocation_state@?$signal1_impl@XAAVKeyEvent@app@cinder@@U?$EventCombiner@VKeyEvent@app@cinder@@@23@HU?$less@H@std@@V?$function@$$A6AXAAVKeyEvent@app@cinder@@@Z@boost@@V?$function@$$A6AXABVconnection@signals2@boost@@AAVKeyEvent@app@cinder@@@Z@8@Vmutex@signals2@8@@detail@signals2@boost@@@boost@@QAE@XZ 0040e3f0 f i cinder:Window.obj
 0001:0000d3f0       ??1?$shared_ptr@Vinvocation_state@?$signal0_impl@_NUBooleanAndEventCombiner@app@cinder@@HU?$less@H@std@@V?$function@$$A6A_NXZ@boost@@V?$function@$$A6A_NABVconnection@signals2@boost@@@Z@7@Vmutex@signals2@7@@detail@signals2@boost@@@boost@@QAE@XZ 0040e3f0 f i cinder:AppBasic.obj
 0001:0000d3f0       ??1?$shared_ptr@V?$grouped_list@HU?$less@H@std@@V?$shared_ptr@V?$connection_body@U?$pair@W4slot_meta_group@detail@signals2@boost@@V?$optional@H@4@@std@@V?$slot1@XAAVKeyEvent@app@cinder@@V?$function@$$A6AXAAVKeyEvent@app@cinder@@@Z@boost@@@signals2@boost@@Vmutex@45@@detail@signals2@boost@@@boost@@@detail@signals2@boost@@@boost@@QAE@XZ 0040e3f0 f i cinder:Window.obj
 0001:0000d3f0       ??1?$shared_ptr@V?$grouped_list@HU?$less@H@std@@V?$shared_ptr@V?$connection_body@U?$pair@W4slot_meta_group@detail@signals2@boost@@V?$optional@H@4@@std@@V?$slot0@XV?$function@$$A6AXXZ@boost@@@signals2@boost@@Vmutex@45@@detail@signals2@boost@@@boost@@@detail@signals2@boost@@@boost@@QAE@XZ 0040e3f0 f i cinder:Window.obj
 0001:0000d3f0       ??1?$shared_ptr@V?$signal0_impl@XV?$optional_last_value@X@signals2@boost@@HU?$less@H@std@@V?$function@$$A6AXXZ@3@V?$function@$$A6AXABVconnection@signals2@boost@@@Z@3@Vmutex@23@@detail@signals2@boost@@@boost@@QAE@XZ 0040e3f0 f i cinder:App.obj
 0001:0000d3f0       ??1?$shared_ptr@Vinvocation_state@?$signal0_impl@XV?$optional_last_value@X@signals2@boost@@HU?$less@H@std@@V?$function@$$A6AXXZ@3@V?$function@$$A6AXABVconnection@signals2@boost@@@Z@3@Vmutex@23@@detail@signals2@boost@@@boost@@QAE@XZ 0040e3f0 f i cinder:Window.obj
 0001:0000d3f0       ??1?$shared_ptr@V?$signal1_impl@XAAVMouseEvent@app@cinder@@U?$EventCombiner@VMouseEvent@app@cinder@@@23@HU?$less@H@std@@V?$function@$$A6AXAAVMouseEvent@app@cinder@@@Z@boost@@V?$function@$$A6AXABVconnection@signals2@boost@@AAVMouseEvent@app@cinder@@@Z@8@Vmutex@signals2@8@@detail@signals2@boost@@@boost@@QAE@XZ 0040e3f0 f i cinder:AppImplMsw.obj
 0001:0000d3f0       ??1?$shared_ptr@V?$grouped_list@HU?$less@H@std@@V?$shared_ptr@V?$connection_body@U?$pair@W4slot_meta_group@detail@signals2@boost@@V?$optional@H@4@@std@@V?$slot0@_NV?$function@$$A6A_NXZ@boost@@@signals2@boost@@Vmutex@45@@detail@signals2@boost@@@boost@@@detail@signals2@boost@@@boost@@QAE@XZ 0040e3f0 f i cinder:AppBasic.obj
 0001:0000d3f0       ??1?$shared_ptr@Utss_cleanup_function@detail@boost@@@boost@@QAE@XZ 0040e3f0 f i cinder:CinderMsw.obj
 0001:0000d3f0       ??1?$shared_ptr@V?$grouped_list@HU?$less@H@std@@V?$shared_ptr@V?$connection_body@U?$pair@W4slot_meta_group@detail@signals2@boost@@V?$optional@H@4@@std@@V?$slot1@XAAVMouseEvent@app@cinder@@V?$function@$$A6AXAAVMouseEvent@app@cinder@@@Z@boost@@@signals2@boost@@Vmutex@45@@detail@signals2@boost@@@boost@@@detail@signals2@boost@@@boost@@QAE@XZ 0040e3f0 f i cinder:Window.obj
 0001:0000d3f0       ??1?$shared_ptr@Vinvocation_state@?$signal1_impl@XAAVFileDropEvent@app@cinder@@U?$EventCombiner@VFileDropEvent@app@cinder@@@23@HU?$less@H@std@@V?$function@$$A6AXAAVFileDropEvent@app@cinder@@@Z@boost@@V?$function@$$A6AXABVconnection@signals2@boost@@AAVFileDropEvent@app@cinder@@@Z@8@Vmutex@signals2@8@@detail@signals2@boost@@@boost@@QAE@XZ 0040e3f0 f i cinder:Window.obj
 0001:0000d3f0       ??1?$shared_ptr@V?$signal1_impl@XAAVTouchEvent@app@cinder@@U?$EventCombiner@VTouchEvent@app@cinder@@@23@HU?$less@H@std@@V?$function@$$A6AXAAVTouchEvent@app@cinder@@@Z@boost@@V?$function@$$A6AXABVconnection@signals2@boost@@AAVTouchEvent@app@cinder@@@Z@8@Vmutex@signals2@8@@detail@signals2@boost@@@boost@@QAE@XZ 0040e3f0 f i cinder:AppImplMsw.obj
 0001:0000d3f0       ??1?$shared_ptr@Vinvocation_state@?$signal1_impl@XAAVTouchEvent@app@cinder@@U?$EventCombiner@VTouchEvent@app@cinder@@@23@HU?$less@H@std@@V?$function@$$A6AXAAVTouchEvent@app@cinder@@@Z@boost@@V?$function@$$A6AXABVconnection@signals2@boost@@AAVTouchEvent@app@cinder@@@Z@8@Vmutex@signals2@8@@detail@signals2@boost@@@boost@@QAE@XZ 0040e3f0 f i cinder:Window.obj
 0001:0000d3f0       ??1?$shared_ptr@V?$grouped_list@HU?$less@H@std@@V?$shared_ptr@V?$connection_body@U?$pair@W4slot_meta_group@detail@signals2@boost@@V?$optional@H@4@@std@@V?$slot1@XAAVTouchEvent@app@cinder@@V?$function@$$A6AXAAVTouchEvent@app@cinder@@@Z@boost@@@signals2@boost@@Vmutex@45@@detail@signals2@boost@@@boost@@@detail@signals2@boost@@@boost@@QAE@XZ 0040e3f0 f i cinder:Window.obj
 0001:0000d3f0       ??1?$shared_ptr@V?$signal0_impl@_NUBooleanAndEventCombiner@app@cinder@@HU?$less@H@std@@V?$function@$$A6A_NXZ@boost@@V?$function@$$A6A_NABVconnection@signals2@boost@@@Z@7@Vmutex@signals2@7@@detail@signals2@boost@@@boost@@QAE@XZ 0040e3f0 f i cinder:AppBasic.obj
 0001:0000d3f0       ??1tss_data_node@detail@boost@@QAE@XZ 0040e3f0 f i libboost_thread-vc110-mt-s-1_53:thread.obj
 0001:0000d3f0       ??1?$shared_ptr@V?$signal1_impl@XAAVFileDropEvent@app@cinder@@U?$EventCombiner@VFileDropEvent@app@cinder@@@23@HU?$less@H@std@@V?$function@$$A6AXAAVFileDropEvent@app@cinder@@@Z@boost@@V?$function@$$A6AXABVconnection@signals2@boost@@AAVFileDropEvent@app@cinder@@@Z@8@Vmutex@signals2@8@@detail@signals2@boost@@@boost@@QAE@XZ 0040e3f0 f i cinder:AppImplMsw.obj
 0001:0000d3f0       ??1?$shared_ptr@V?$grouped_list@HU?$less@H@std@@V?$shared_ptr@V?$connection_body@U?$pair@W4slot_meta_group@detail@signals2@boost@@V?$optional@H@4@@std@@V?$slot1@XAAVFileDropEvent@app@cinder@@V?$function@$$A6AXAAVFileDropEvent@app@cinder@@@Z@boost@@@signals2@boost@@Vmutex@45@@detail@signals2@boost@@@boost@@@detail@signals2@boost@@@boost@@QAE@XZ 0040e3f0 f i cinder:Window.obj
 0001:0000d3f0       ??1?$shared_ptr@V?$signal1_impl@XAAVKeyEvent@app@cinder@@U?$EventCombiner@VKeyEvent@app@cinder@@@23@HU?$less@H@std@@V?$function@$$A6AXAAVKeyEvent@app@cinder@@@Z@boost@@V?$function@$$A6AXABVconnection@signals2@boost@@AAVKeyEvent@app@cinder@@@Z@8@Vmutex@signals2@8@@detail@signals2@boost@@@boost@@QAE@XZ 0040e3f0 f i cinder:AppImplMsw.obj
 0001:0000d3f0       ??1?$shared_ptr@Vinvocation_state@?$signal1_impl@XAAVMouseEvent@app@cinder@@U?$EventCombiner@VMouseEvent@app@cinder@@@23@HU?$less@H@std@@V?$function@$$A6AXAAVMouseEvent@app@cinder@@@Z@boost@@V?$function@$$A6AXABVconnection@signals2@boost@@AAVMouseEvent@app@cinder@@@Z@8@Vmutex@signals2@8@@detail@signals2@boost@@@boost@@QAE@XZ 0040e3f0 f i cinder:Window.obj
 0001:0000d430       ??1?$slot_call_iterator_cache@Uvoid_type@detail@signals2@boost@@Vslot_invoker@?$signal1_impl@XAAVKeyEvent@app@cinder@@U?$EventCombiner@VKeyEvent@app@cinder@@@23@HU?$less@H@std@@V?$function@$$A6AXAAVKeyEvent@app@cinder@@@Z@boost@@V?$function@$$A6AXABVconnection@signals2@boost@@AAVKeyEvent@app@cinder@@@Z@8@Vmutex@signals2@8@@234@@detail@signals2@boost@@QAE@XZ 0040e430 f i cinder:Window.obj
 0001:0000d430       ??1?$slot_call_iterator_cache@Uvoid_type@detail@signals2@boost@@Vslot_invoker@?$signal0_impl@XV?$optional_last_value@X@signals2@boost@@HU?$less@H@std@@V?$function@$$A6AXXZ@3@V?$function@$$A6AXABVconnection@signals2@boost@@@Z@3@Vmutex@23@@234@@detail@signals2@boost@@QAE@XZ 0040e430 f i cinder:Window.obj
 0001:0000d430       ??1?$slot_call_iterator_cache@Uvoid_type@detail@signals2@boost@@Vslot_invoker@?$signal1_impl@XAAVMouseEvent@app@cinder@@U?$EventCombiner@VMouseEvent@app@cinder@@@23@HU?$less@H@std@@V?$function@$$A6AXAAVMouseEvent@app@cinder@@@Z@boost@@V?$function@$$A6AXABVconnection@signals2@boost@@AAVMouseEvent@app@cinder@@@Z@8@Vmutex@signals2@8@@234@@detail@signals2@boost@@QAE@XZ 0040e430 f i cinder:Window.obj
 0001:0000d430       ??1?$slot_call_iterator_cache@Uvoid_type@detail@signals2@boost@@Vslot_invoker@?$signal1_impl@XAAVTouchEvent@app@cinder@@U?$EventCombiner@VTouchEvent@app@cinder@@@23@HU?$less@H@std@@V?$function@$$A6AXAAVTouchEvent@app@cinder@@@Z@boost@@V?$function@$$A6AXABVconnection@signals2@boost@@AAVTouchEvent@app@cinder@@@Z@8@Vmutex@signals2@8@@234@@detail@signals2@boost@@QAE@XZ 0040e430 f i cinder:Window.obj
 0001:0000d430       ??1?$slot_call_iterator_cache@Uvoid_type@detail@signals2@boost@@Vslot_invoker@?$signal1_impl@XAAVFileDropEvent@app@cinder@@U?$EventCombiner@VFileDropEvent@app@cinder@@@23@HU?$less@H@std@@V?$function@$$A6AXAAVFileDropEvent@app@cinder@@@Z@boost@@V?$function@$$A6AXABVconnection@signals2@boost@@AAVFileDropEvent@app@cinder@@@Z@8@Vmutex@signals2@8@@234@@detail@signals2@boost@@QAE@XZ 0040e430 f i cinder:Window.obj
 0001:0000d4b0       ??1?$unique_lock@Vconnection_body_base@detail@signals2@boost@@@detail@signals2@boost@@QAE@XZ 0040e4b0 f i cinder:Window.obj
 0001:0000d4c0       ??1?$unique_lock@Vmutex@signals2@boost@@@detail@signals2@boost@@QAE@XZ 0040e4c0 f i cinder:Window.obj
 0001:0000d4d0       ??1?$variant@V?$shared_ptr@X@boost@@Vforeign_void_shared_ptr@detail@signals2@2@Uvoid_@042@U6042@U6042@U6042@U6042@U6042@U6042@U6042@U6042@U6042@U6042@U6042@U6042@U6042@U6042@U6042@U6042@U6042@@boost@@QAE@XZ 0040e4d0 f i cinder:Window.obj
 0001:0000d510       ??1clone_base@exception_detail@boost@@UAE@XZ 0040e510 f i cinder:Window.obj
 0001:0000d520       ??1exception@boost@@MAE@XZ 0040e520 f i cinder:Window.obj
 0001:0000d550       ??1foreign_void_shared_ptr@detail@signals2@boost@@QAE@XZ 0040e550 f i cinder:Window.obj
 0001:0000d560       ??1invocation_janitor@?$signal0_impl@XV?$optional_last_value@X@signals2@boost@@HU?$less@H@std@@V?$function@$$A6AXXZ@3@V?$function@$$A6AXABVconnection@signals2@boost@@@Z@3@Vmutex@23@@detail@signals2@boost@@QAE@XZ 0040e560 f i cinder:Window.obj
 0001:0000d580       ??1invocation_janitor@?$signal1_impl@XAAVFileDropEvent@app@cinder@@U?$EventCombiner@VFileDropEvent@app@cinder@@@23@HU?$less@H@std@@V?$function@$$A6AXAAVFileDropEvent@app@cinder@@@Z@boost@@V?$function@$$A6AXABVconnection@signals2@boost@@AAVFileDropEvent@app@cinder@@@Z@8@Vmutex@signals2@8@@detail@signals2@boost@@QAE@XZ 0040e580 f i cinder:Window.obj
 0001:0000d5a0       ??1invocation_janitor@?$signal1_impl@XAAVKeyEvent@app@cinder@@U?$EventCombiner@VKeyEvent@app@cinder@@@23@HU?$less@H@std@@V?$function@$$A6AXAAVKeyEvent@app@cinder@@@Z@boost@@V?$function@$$A6AXABVconnection@signals2@boost@@AAVKeyEvent@app@cinder@@@Z@8@Vmutex@signals2@8@@detail@signals2@boost@@QAE@XZ 0040e5a0 f i cinder:Window.obj
 0001:0000d5c0       ??1invocation_janitor@?$signal1_impl@XAAVMouseEvent@app@cinder@@U?$EventCombiner@VMouseEvent@app@cinder@@@23@HU?$less@H@std@@V?$function@$$A6AXAAVMouseEvent@app@cinder@@@Z@boost@@V?$function@$$A6AXABVconnection@signals2@boost@@AAVMouseEvent@app@cinder@@@Z@8@Vmutex@signals2@8@@detail@signals2@boost@@QAE@XZ 0040e5c0 f i cinder:Window.obj
 0001:0000d5e0       ??1invocation_janitor@?$signal1_impl@XAAVTouchEvent@app@cinder@@U?$EventCombiner@VTouchEvent@app@cinder@@@23@HU?$less@H@std@@V?$function@$$A6AXAAVTouchEvent@app@cinder@@@Z@boost@@V?$function@$$A6AXABVconnection@signals2@boost@@AAVTouchEvent@app@cinder@@@Z@8@Vmutex@signals2@8@@detail@signals2@boost@@QAE@XZ 0040e5e0 f i cinder:Window.obj
 0001:0000d600       ??1invocation_state@?$signal1_impl@XAAVFileDropEvent@app@cinder@@U?$EventCombiner@VFileDropEvent@app@cinder@@@23@HU?$less@H@std@@V?$function@$$A6AXAAVFileDropEvent@app@cinder@@@Z@boost@@V?$function@$$A6AXABVconnection@signals2@boost@@AAVFileDropEvent@app@cinder@@@Z@8@Vmutex@signals2@8@@detail@signals2@boost@@QAE@XZ 0040e600 f i cinder:Window.obj
 0001:0000d600       ??1invocation_state@?$signal0_impl@XV?$optional_last_value@X@signals2@boost@@HU?$less@H@std@@V?$function@$$A6AXXZ@3@V?$function@$$A6AXABVconnection@signals2@boost@@@Z@3@Vmutex@23@@detail@signals2@boost@@QAE@XZ 0040e600 f i cinder:Window.obj
 0001:0000d600       ??1invocation_state@?$signal1_impl@XAAVTouchEvent@app@cinder@@U?$EventCombiner@VTouchEvent@app@cinder@@@23@HU?$less@H@std@@V?$function@$$A6AXAAVTouchEvent@app@cinder@@@Z@boost@@V?$function@$$A6AXABVconnection@signals2@boost@@AAVTouchEvent@app@cinder@@@Z@8@Vmutex@signals2@8@@detail@signals2@boost@@QAE@XZ 0040e600 f i cinder:Window.obj
 0001:0000d600       ??1invocation_state@?$signal0_impl@_NUBooleanAndEventCombiner@app@cinder@@HU?$less@H@std@@V?$function@$$A6A_NXZ@boost@@V?$function@$$A6A_NABVconnection@signals2@boost@@@Z@7@Vmutex@signals2@7@@detail@signals2@boost@@QAE@XZ 0040e600 f i cinder:AppBasic.obj
 0001:0000d600       ??1invocation_state@?$signal1_impl@XAAVMouseEvent@app@cinder@@U?$EventCombiner@VMouseEvent@app@cinder@@@23@HU?$less@H@std@@V?$function@$$A6AXAAVMouseEvent@app@cinder@@@Z@boost@@V?$function@$$A6AXABVconnection@signals2@boost@@AAVMouseEvent@app@cinder@@@Z@8@Vmutex@signals2@8@@detail@signals2@boost@@QAE@XZ 0040e600 f i cinder:Window.obj
 0001:0000d600       ??1invocation_state@?$signal1_impl@XAAVKeyEvent@app@cinder@@U?$EventCombiner@VKeyEvent@app@cinder@@@23@HU?$less@H@std@@V?$function@$$A6AXAAVKeyEvent@app@cinder@@@Z@boost@@V?$function@$$A6AXABVconnection@signals2@boost@@AAVKeyEvent@app@cinder@@@Z@8@Vmutex@signals2@8@@detail@signals2@boost@@QAE@XZ 0040e600 f i cinder:Window.obj
 0001:0000d6b0       ??1shared_count@detail@boost@@QAE@XZ 0040e6b0 f i cinder:Window.obj
 0001:0000d6f0       ??A?$map@U?$pair@W4slot_meta_group@detail@signals2@boost@@V?$optional@H@4@@std@@V?$_List_iterator@V?$_List_val@U?$_List_simple_types@V?$shared_ptr@V?$connection_body@U?$pair@W4slot_meta_group@detail@signals2@boost@@V?$optional@H@4@@std@@V?$slot1@XAAVKeyEvent@app@cinder@@V?$function@$$A6AXAAVKeyEvent@app@cinder@@@Z@boost@@@signals2@boost@@Vmutex@45@@detail@signals2@boost@@@boost@@@std@@@std@@@2@V?$group_key_less@HU?$less@H@std@@@detail@signals2@boost@@V?$allocator@U?$pair@$$CBU?$pair@W4slot_meta_group@detail@signals2@boost@@V?$optional@H@4@@std@@V?$_List_iterator@V?$_List_val@U?$_List_simple_types@V?$shared_ptr@V?$connection_body@U?$pair@W4slot_meta_group@detail@signals2@boost@@V?$optional@H@4@@std@@V?$slot1@XAAVKeyEvent@app@cinder@@V?$function@$$A6AXAAVKeyEvent@app@cinder@@@Z@boost@@@signals2@boost@@Vmutex@45@@detail@signals2@boost@@@boost@@@std@@@std@@@2@@std@@@2@@std@@QAEAAV?$_List_iterator@V?$_List_val@U?$_List_simple_types@V?$shared_ptr@V?$connection_body@U?$pair@W4slot_meta_group@detail@signals2@boost@@V?$optional@H@4@@std@@V?$slot1@XAAVKeyEvent@app@cinder@@V?$function@$$A6AXAAVKeyEvent@app@cinder@@@Z@boost@@@signals2@boost@@Vmutex@45@@detail@signals2@boost@@@boost@@@std@@@std@@@1@ABU?$pair@W4slot_meta_group@detail@signals2@boost@@V?$optional@H@4@@1@@Z 0040e6f0 f i cinder:Window.obj
 0001:0000d6f0       ??A?$map@U?$pair@W4slot_meta_group@detail@signals2@boost@@V?$optional@H@4@@std@@V?$_List_iterator@V?$_List_val@U?$_List_simple_types@V?$shared_ptr@V?$connection_body@U?$pair@W4slot_meta_group@detail@signals2@boost@@V?$optional@H@4@@std@@V?$slot1@XAAVMouseEvent@app@cinder@@V?$function@$$A6AXAAVMouseEvent@app@cinder@@@Z@boost@@@signals2@boost@@Vmutex@45@@detail@signals2@boost@@@boost@@@std@@@std@@@2@V?$group_key_less@HU?$less@H@std@@@detail@signals2@boost@@V?$allocator@U?$pair@$$CBU?$pair@W4slot_meta_group@detail@signals2@boost@@V?$optional@H@4@@std@@V?$_List_iterator@V?$_List_val@U?$_List_simple_types@V?$shared_ptr@V?$connection_body@U?$pair@W4slot_meta_group@detail@signals2@boost@@V?$optional@H@4@@std@@V?$slot1@XAAVMouseEvent@app@cinder@@V?$function@$$A6AXAAVMouseEvent@app@cinder@@@Z@boost@@@signals2@boost@@Vmutex@45@@detail@signals2@boost@@@boost@@@std@@@std@@@2@@std@@@2@@std@@QAEAAV?$_List_iterator@V?$_List_val@U?$_List_simple_types@V?$shared_ptr@V?$connection_body@U?$pair@W4slot_meta_group@detail@signals2@boost@@V?$optional@H@4@@std@@V?$slot1@XAAVMouseEvent@app@cinder@@V?$function@$$A6AXAAVMouseEvent@app@cinder@@@Z@boost@@@signals2@boost@@Vmutex@45@@detail@signals2@boost@@@boost@@@std@@@std@@@1@ABU?$pair@W4slot_meta_group@detail@signals2@boost@@V?$optional@H@4@@1@@Z 0040e6f0 f i cinder:Window.obj
 0001:0000d6f0       ??A?$map@U?$pair@W4slot_meta_group@detail@signals2@boost@@V?$optional@H@4@@std@@V?$_List_iterator@V?$_List_val@U?$_List_simple_types@V?$shared_ptr@V?$connection_body@U?$pair@W4slot_meta_group@detail@signals2@boost@@V?$optional@H@4@@std@@V?$slot1@XAAVTouchEvent@app@cinder@@V?$function@$$A6AXAAVTouchEvent@app@cinder@@@Z@boost@@@signals2@boost@@Vmutex@45@@detail@signals2@boost@@@boost@@@std@@@std@@@2@V?$group_key_less@HU?$less@H@std@@@detail@signals2@boost@@V?$allocator@U?$pair@$$CBU?$pair@W4slot_meta_group@detail@signals2@boost@@V?$optional@H@4@@std@@V?$_List_iterator@V?$_List_val@U?$_List_simple_types@V?$shared_ptr@V?$connection_body@U?$pair@W4slot_meta_group@detail@signals2@boost@@V?$optional@H@4@@std@@V?$slot1@XAAVTouchEvent@app@cinder@@V?$function@$$A6AXAAVTouchEvent@app@cinder@@@Z@boost@@@signals2@boost@@Vmutex@45@@detail@signals2@boost@@@boost@@@std@@@std@@@2@@std@@@2@@std@@QAEAAV?$_List_iterator@V?$_List_val@U?$_List_simple_types@V?$shared_ptr@V?$connection_body@U?$pair@W4slot_meta_group@detail@signals2@boost@@V?$optional@H@4@@std@@V?$slot1@XAAVTouchEvent@app@cinder@@V?$function@$$A6AXAAVTouchEvent@app@cinder@@@Z@boost@@@signals2@boost@@Vmutex@45@@detail@signals2@boost@@@boost@@@std@@@std@@@1@ABU?$pair@W4slot_meta_group@detail@signals2@boost@@V?$optional@H@4@@1@@Z 0040e6f0 f i cinder:Window.obj
 0001:0000d6f0       ??A?$map@U?$pair@W4slot_meta_group@detail@signals2@boost@@V?$optional@H@4@@std@@V?$_List_iterator@V?$_List_val@U?$_List_simple_types@V?$shared_ptr@V?$connection_body@U?$pair@W4slot_meta_group@detail@signals2@boost@@V?$optional@H@4@@std@@V?$slot1@XAAVFileDropEvent@app@cinder@@V?$function@$$A6AXAAVFileDropEvent@app@cinder@@@Z@boost@@@signals2@boost@@Vmutex@45@@detail@signals2@boost@@@boost@@@std@@@std@@@2@V?$group_key_less@HU?$less@H@std@@@detail@signals2@boost@@V?$allocator@U?$pair@$$CBU?$pair@W4slot_meta_group@detail@signals2@boost@@V?$optional@H@4@@std@@V?$_List_iterator@V?$_List_val@U?$_List_simple_types@V?$shared_ptr@V?$connection_body@U?$pair@W4slot_meta_group@detail@signals2@boost@@V?$optional@H@4@@std@@V?$slot1@XAAVFileDropEvent@app@cinder@@V?$function@$$A6AXAAVFileDropEvent@app@cinder@@@Z@boost@@@signals2@boost@@Vmutex@45@@detail@signals2@boost@@@boost@@@std@@@std@@@2@@std@@@2@@std@@QAEAAV?$_List_iterator@V?$_List_val@U?$_List_simple_types@V?$shared_ptr@V?$connection_body@U?$pair@W4slot_meta_group@detail@signals2@boost@@V?$optional@H@4@@std@@V?$slot1@XAAVFileDropEvent@app@cinder@@V?$function@$$A6AXAAVFileDropEvent@app@cinder@@@Z@boost@@@signals2@boost@@Vmutex@45@@detail@signals2@boost@@@boost@@@std@@@std@@@1@ABU?$pair@W4slot_meta_group@detail@signals2@boost@@V?$optional@H@4@@1@@Z 0040e6f0 f i cinder:Window.obj
 0001:0000d6f0       ??A?$map@U?$pair@W4slot_meta_group@detail@signals2@boost@@V?$optional@H@4@@std@@V?$_List_iterator@V?$_List_val@U?$_List_simple_types@V?$shared_ptr@V?$connection_body@U?$pair@W4slot_meta_group@detail@signals2@boost@@V?$optional@H@4@@std@@V?$slot0@XV?$function@$$A6AXXZ@boost@@@signals2@boost@@Vmutex@45@@detail@signals2@boost@@@boost@@@std@@@std@@@2@V?$group_key_less@HU?$less@H@std@@@detail@signals2@boost@@V?$allocator@U?$pair@$$CBU?$pair@W4slot_meta_group@detail@signals2@boost@@V?$optional@H@4@@std@@V?$_List_iterator@V?$_List_val@U?$_List_simple_types@V?$shared_ptr@V?$connection_body@U?$pair@W4slot_meta_group@detail@signals2@boost@@V?$optional@H@4@@std@@V?$slot0@XV?$function@$$A6AXXZ@boost@@@signals2@boost@@Vmutex@45@@detail@signals2@boost@@@boost@@@std@@@std@@@2@@std@@@2@@std@@QAEAAV?$_List_iterator@V?$_List_val@U?$_List_simple_types@V?$shared_ptr@V?$connection_body@U?$pair@W4slot_meta_group@detail@signals2@boost@@V?$optional@H@4@@std@@V?$slot0@XV?$function@$$A6AXXZ@boost@@@signals2@boost@@Vmutex@45@@detail@signals2@boost@@@boost@@@std@@@std@@@1@ABU?$pair@W4slot_meta_group@detail@signals2@boost@@V?$optional@H@4@@1@@Z 0040e6f0 f i cinder:Window.obj
 0001:0000d7c0       ??E?$_Tree_unchecked_const_iterator@V?$_Tree_val@U?$_Tree_simple_types@U?$pair@$$CBKV?$Vec2@M@cinder@@@std@@@std@@@std@@U_Iterator_base0@2@@std@@QAEAAV01@XZ 0040e7c0 f i cinder:AppImplMsw.obj
 0001:0000d7c0       ??E?$_Tree_unchecked_const_iterator@V?$_Tree_val@U?$_Tree_simple_types@U?$pair@$$CBV?$basic_string@DU?$char_traits@D@std@@V?$allocator@D@2@@std@@V?$multimap@HU?$pair@P6A?AV?$shared_ptr@VImageTarget@cinder@@@std@@V?$shared_ptr@VDataTarget@cinder@@@2@V?$shared_ptr@VImageSource@cinder@@@2@VOptions@ImageTarget@cinder@@ABV?$basic_string@DU?$char_traits@D@std@@V?$allocator@D@2@@2@@ZV82@@std@@U?$less@H@2@V?$allocator@U?$pair@$$CBHU?$pair@P6A?AV?$shared_ptr@VImageTarget@cinder@@@std@@V?$shared_ptr@VDataTarget@cinder@@@2@V?$shared_ptr@VImageSource@cinder@@@2@VOptions@ImageTarget@cinder@@ABV?$basic_string@DU?$char_traits@D@std@@V?$allocator@D@2@@2@@ZV82@@std@@@std@@@2@@2@@std@@@std@@@std@@U_Iterator_base0@2@@std@@QAEAAV01@XZ 0040e7c0 f i cinder:ImageIo.obj
 0001:0000d7c0       ??E?$_Tree_unchecked_const_iterator@V?$_Tree_val@U?$_Tree_simple_types@U?$pair@$$CBV?$basic_string@DU?$char_traits@D@std@@V?$allocator@D@2@@std@@V?$multimap@HP6A?AV?$shared_ptr@VImageSource@cinder@@@std@@V?$shared_ptr@VDataSource@cinder@@@2@VOptions@ImageSource@cinder@@@ZU?$less@H@2@V?$allocator@U?$pair@$$CBHP6A?AV?$shared_ptr@VImageSource@cinder@@@std@@V?$shared_ptr@VDataSource@cinder@@@2@VOptions@ImageSource@cinder@@@Z@std@@@2@@2@@std@@@std@@@std@@U_Iterator_base0@2@@std@@QAEAAV01@XZ 0040e7c0 f i cinder:ImageIo.obj
 0001:0000d7c0       ??E?$_Tree_unchecked_const_iterator@V?$_Tree_val@U?$_Tree_simple_types@U?$pair@$$CBV?$basic_string@DU?$char_traits@D@std@@V?$allocator@D@2@@std@@PBU_GUID@@@std@@@std@@@std@@U_Iterator_base0@2@@std@@QAEAAV01@XZ 0040e7c0 f i cinder:ImageTargetFileWic.obj
 0001:0000d7c0       ??E?$_Tree_unchecked_const_iterator@V?$_Tree_val@U?$_Tree_simple_types@U?$pair@$$CBU?$pair@W4slot_meta_group@detail@signals2@boost@@V?$optional@H@4@@std@@V?$_List_iterator@V?$_List_val@U?$_List_simple_types@V?$shared_ptr@V?$connection_body@U?$pair@W4slot_meta_group@detail@signals2@boost@@V?$optional@H@4@@std@@V?$slot1@XAAVMouseEvent@app@cinder@@V?$function@$$A6AXAAVMouseEvent@app@cinder@@@Z@boost@@@signals2@boost@@Vmutex@45@@detail@signals2@boost@@@boost@@@std@@@std@@@2@@std@@@std@@@std@@U_Iterator_base0@2@@std@@QAEAAV01@XZ 0040e7c0 f i cinder:Window.obj
 0001:0000d7c0       ??E?$_Tree_unchecked_const_iterator@V?$_Tree_val@U?$_Tree_simple_types@U?$pair@$$CBU?$pair@W4slot_meta_group@detail@signals2@boost@@V?$optional@H@4@@std@@V?$_List_iterator@V?$_List_val@U?$_List_simple_types@V?$shared_ptr@V?$connection_body@U?$pair@W4slot_meta_group@detail@signals2@boost@@V?$optional@H@4@@std@@V?$slot0@XV?$function@$$A6AXXZ@boost@@@signals2@boost@@Vmutex@45@@detail@signals2@boost@@@boost@@@std@@@std@@@2@@std@@@std@@@std@@U_Iterator_base0@2@@std@@QAEAAV01@XZ 0040e7c0 f i cinder:Window.obj
 0001:0000d7c0       ??E?$_Tree_unchecked_const_iterator@V?$_Tree_val@U?$_Tree_simple_types@U?$pair@$$CBU?$pair@W4slot_meta_group@detail@signals2@boost@@V?$optional@H@4@@std@@V?$_List_iterator@V?$_List_val@U?$_List_simple_types@V?$shared_ptr@V?$connection_body@U?$pair@W4slot_meta_group@detail@signals2@boost@@V?$optional@H@4@@std@@V?$slot1@XAAVTouchEvent@app@cinder@@V?$function@$$A6AXAAVTouchEvent@app@cinder@@@Z@boost@@@signals2@boost@@Vmutex@45@@detail@signals2@boost@@@boost@@@std@@@std@@@2@@std@@@std@@@std@@U_Iterator_base0@2@@std@@QAEAAV01@XZ 0040e7c0 f i cinder:Window.obj
 0001:0000d7c0       ??E?$_Tree_unchecked_const_iterator@V?$_Tree_val@U?$_Tree_simple_types@U?$pair@$$CBHU?$pair@P6A?AV?$shared_ptr@VImageTarget@cinder@@@std@@V?$shared_ptr@VDataTarget@cinder@@@2@V?$shared_ptr@VImageSource@cinder@@@2@VOptions@ImageTarget@cinder@@ABV?$basic_string@DU?$char_traits@D@std@@V?$allocator@D@2@@2@@ZV82@@std@@@std@@@std@@@std@@U_Iterator_base0@2@@std@@QAEAAV01@XZ 0040e7c0 f i cinder:ImageIo.obj
 0001:0000d7c0       ??E?$_Tree_unchecked_const_iterator@V?$_Tree_val@U?$_Tree_simple_types@U?$pair@$$CBU?$pair@W4slot_meta_group@detail@signals2@boost@@V?$optional@H@4@@std@@V?$_List_iterator@V?$_List_val@U?$_List_simple_types@V?$shared_ptr@V?$connection_body@U?$pair@W4slot_meta_group@detail@signals2@boost@@V?$optional@H@4@@std@@V?$slot1@XAAVKeyEvent@app@cinder@@V?$function@$$A6AXAAVKeyEvent@app@cinder@@@Z@boost@@@signals2@boost@@Vmutex@45@@detail@signals2@boost@@@boost@@@std@@@std@@@2@@std@@@std@@@std@@U_Iterator_base0@2@@std@@QAEAAV01@XZ 0040e7c0 f i cinder:Window.obj
 0001:0000d7c0       ??E?$_Tree_unchecked_const_iterator@V?$_Tree_val@U?$_Tree_simple_types@U?$pair@$$CBHP6A?AV?$shared_ptr@VImageSource@cinder@@@std@@V?$shared_ptr@VDataSource@cinder@@@2@VOptions@ImageSource@cinder@@@Z@std@@@std@@@std@@U_Iterator_base0@2@@std@@QAEAAV01@XZ 0040e7c0 f i cinder:ImageIo.obj
 0001:0000d7c0       ??E?$_Tree_unchecked_const_iterator@V?$_Tree_val@U?$_Tree_simple_types@U?$pair@$$CBU?$pair@W4slot_meta_group@detail@signals2@boost@@V?$optional@H@4@@std@@V?$_List_iterator@V?$_List_val@U?$_List_simple_types@V?$shared_ptr@V?$connection_body@U?$pair@W4slot_meta_group@detail@signals2@boost@@V?$optional@H@4@@std@@V?$slot1@XAAVFileDropEvent@app@cinder@@V?$function@$$A6AXAAVFileDropEvent@app@cinder@@@Z@boost@@@signals2@boost@@Vmutex@45@@detail@signals2@boost@@@boost@@@std@@@std@@@2@@std@@@std@@@std@@U_Iterator_base0@2@@std@@QAEAAV01@XZ 0040e7c0 f i cinder:Window.obj
 0001:0000d7c0       ??E?$_Tree_unchecked_const_iterator@V?$_Tree_val@U?$_Tree_simple_types@U?$pair@QAXV?$shared_ptr@VTimelineItem@cinder@@@std@@@std@@@std@@@std@@U_Iterator_base0@2@@std@@QAEAAV01@XZ 0040e7c0 f i cinder:Timeline.obj
 0001:0000d7c0       ??E?$_Tree_unchecked_const_iterator@V?$_Tree_val@U?$_Tree_simple_types@U?$pair@QBXUtss_data_node@detail@boost@@@std@@@std@@@std@@U_Iterator_base0@2@@std@@QAEAAV01@XZ 0040e7c0 f i libboost_thread-vc110-mt-s-1_53:thread.obj
 0001:0000d7c0       ??E?$_Tree_unchecked_const_iterator@V?$_Tree_val@U?$_Tree_simple_types@U?$pair@$$CBU?$pair@W4slot_meta_group@detail@signals2@boost@@V?$optional@H@4@@std@@V?$_List_iterator@V?$_List_val@U?$_List_simple_types@V?$shared_ptr@V?$connection_body@U?$pair@W4slot_meta_group@detail@signals2@boost@@V?$optional@H@4@@std@@V?$slot0@_NV?$function@$$A6A_NXZ@boost@@@signals2@boost@@Vmutex@45@@detail@signals2@boost@@@boost@@@std@@@std@@@2@@std@@@std@@@std@@U_Iterator_base0@2@@std@@QAEAAV01@XZ 0040e7c0 f i cinder:AppBasic.obj
 0001:0000d810       ??R?$group_key_less@HU?$less@H@std@@@detail@signals2@boost@@QBE_NABU?$pair@W4slot_meta_group@detail@signals2@boost@@V?$optional@H@4@@std@@0@Z 0040e810 f i cinder:Window.obj
 0001:0000d850       ??R?$signal0_impl@XV?$optional_last_value@X@signals2@boost@@HU?$less@H@std@@V?$function@$$A6AXXZ@3@V?$function@$$A6AXABVconnection@signals2@boost@@@Z@3@Vmutex@23@@detail@signals2@boost@@QAEXXZ 0040e850 f i cinder:Window.obj
 0001:0000dac0       ??R?$signal1_impl@XAAVFileDropEvent@app@cinder@@U?$EventCombiner@VFileDropEvent@app@cinder@@@23@HU?$less@H@std@@V?$function@$$A6AXAAVFileDropEvent@app@cinder@@@Z@boost@@V?$function@$$A6AXABVconnection@signals2@boost@@AAVFileDropEvent@app@cinder@@@Z@8@Vmutex@signals2@8@@detail@signals2@boost@@QAEXAAVFileDropEvent@app@cinder@@@Z 0040eac0 f i cinder:Window.obj
 0001:0000dd40       ??R?$signal1_impl@XAAVKeyEvent@app@cinder@@U?$EventCombiner@VKeyEvent@app@cinder@@@23@HU?$less@H@std@@V?$function@$$A6AXAAVKeyEvent@app@cinder@@@Z@boost@@V?$function@$$A6AXABVconnection@signals2@boost@@AAVKeyEvent@app@cinder@@@Z@8@Vmutex@signals2@8@@detail@signals2@boost@@QAEXAAVKeyEvent@app@cinder@@@Z 0040ed40 f i cinder:Window.obj
 0001:0000dfc0       ??R?$signal1_impl@XAAVMouseEvent@app@cinder@@U?$EventCombiner@VMouseEvent@app@cinder@@@23@HU?$less@H@std@@V?$function@$$A6AXAAVMouseEvent@app@cinder@@@Z@boost@@V?$function@$$A6AXABVconnection@signals2@boost@@AAVMouseEvent@app@cinder@@@Z@8@Vmutex@signals2@8@@detail@signals2@boost@@QAEXAAVMouseEvent@app@cinder@@@Z 0040efc0 f i cinder:Window.obj
 0001:0000e240       ??R?$signal1_impl@XAAVTouchEvent@app@cinder@@U?$EventCombiner@VTouchEvent@app@cinder@@@23@HU?$less@H@std@@V?$function@$$A6AXAAVTouchEvent@app@cinder@@@Z@boost@@V?$function@$$A6AXABVconnection@signals2@boost@@AAVTouchEvent@app@cinder@@@Z@8@Vmutex@signals2@8@@detail@signals2@boost@@QAEXAAVTouchEvent@app@cinder@@@Z 0040f240 f i cinder:Window.obj
 0001:0000e4c0       ??Rslot_invoker@?$signal0_impl@XV?$optional_last_value@X@signals2@boost@@HU?$less@H@std@@V?$function@$$A6AXXZ@3@V?$function@$$A6AXABVconnection@signals2@boost@@@Z@3@Vmutex@23@@detail@signals2@boost@@QBE?AUvoid_type@234@ABV?$shared_ptr@V?$connection_body@U?$pair@W4slot_meta_group@detail@signals2@boost@@V?$optional@H@4@@std@@V?$slot0@XV?$function@$$A6AXXZ@boost@@@signals2@boost@@Vmutex@45@@detail@signals2@boost@@@4@@Z 0040f4c0 f i cinder:Window.obj
 0001:0000e540       ??_D?$clone_impl@U?$error_info_injector@Vbad_function_call@boost@@@exception_detail@boost@@@exception_detail@boost@@QAEXXZ 0040f540 f i cinder:Window.obj
 0001:0000e551       ??_E?$clone_impl@U?$error_info_injector@Vbad_function_call@boost@@@exception_detail@boost@@@exception_detail@boost@@$4PPPPPPPM@CI@AEPAXI@Z 0040f551 f i cinder:Window.obj
 0001:0000e55c       ??_E?$clone_impl@U?$error_info_injector@Vbad_function_call@boost@@@exception_detail@boost@@@exception_detail@boost@@WM@AEPAXI@Z 0040f55c f i cinder:Window.obj
 0001:0000e564       ??_E?$error_info_injector@Vbad_function_call@boost@@@exception_detail@boost@@WM@AEPAXI@Z 0040f564 f i cinder:Window.obj
 0001:0000e570       ??_G?$clone_impl@U?$error_info_injector@Vbad_function_call@boost@@@exception_detail@boost@@@exception_detail@boost@@UAEPAXI@Z 0040f570 f i cinder:Window.obj
 0001:0000e570       ??_E?$clone_impl@U?$error_info_injector@Vbad_function_call@boost@@@exception_detail@boost@@@exception_detail@boost@@UAEPAXI@Z 0040f570 f i cinder:Window.obj
 0001:0000e5a0       ??_E?$error_info_injector@Vbad_function_call@boost@@@exception_detail@boost@@UAEPAXI@Z 0040f5a0 f i cinder:Window.obj
 0001:0000e5a0       ??_G?$error_info_injector@Vbad_function_call@boost@@@exception_detail@boost@@UAEPAXI@Z 0040f5a0 f i cinder:Window.obj
 0001:0000e5f0       ??_EFileDropEvent@app@cinder@@UAEPAXI@Z 0040f5f0 f i cinder:Window.obj
 0001:0000e5f0       ??_GFileDropEvent@app@cinder@@UAEPAXI@Z 0040f5f0 f i cinder:Window.obj
 0001:0000e620       ??_EKeyEvent@app@cinder@@UAEPAXI@Z 0040f620 f i cinder:Window.obj
 0001:0000e620       ??_GKeyEvent@app@cinder@@UAEPAXI@Z 0040f620 f i cinder:Window.obj
 0001:0000e650       ??_ETouchEvent@app@cinder@@UAEPAXI@Z 0040f650 f i cinder:Window.obj
 0001:0000e650       ??_GTouchEvent@app@cinder@@UAEPAXI@Z 0040f650 f i cinder:Window.obj
 0001:0000e680       ??_Eclone_base@exception_detail@boost@@UAEPAXI@Z 0040f680 f i cinder:Window.obj
 0001:0000e680       ??_Gclone_base@exception_detail@boost@@UAEPAXI@Z 0040f680 f i cinder:Window.obj
 0001:0000e6b0       ?_Buy@?$vector@VTouch@TouchEvent@app@cinder@@V?$allocator@VTouch@TouchEvent@app@cinder@@@std@@@std@@IAE_NI@Z 0040f6b0 f i cinder:Window.obj
 0001:0000e720       ?_Buy@?$vector@Vpath@filesystem@boost@@V?$allocator@Vpath@filesystem@boost@@@std@@@std@@IAE_NI@Z 0040f720 f i cinder:Window.obj
 0001:0000e790       ?_Buynode0@?$_Tree_buy@U?$pair@$$CBU?$pair@W4slot_meta_group@detail@signals2@boost@@V?$optional@H@4@@std@@V?$_List_iterator@V?$_List_val@U?$_List_simple_types@V?$shared_ptr@V?$connection_body@U?$pair@W4slot_meta_group@detail@signals2@boost@@V?$optional@H@4@@std@@V?$slot0@XV?$function@$$A6AXXZ@boost@@@signals2@boost@@Vmutex@45@@detail@signals2@boost@@@boost@@@std@@@std@@@2@@std@@V?$allocator@U?$pair@$$CBU?$pair@W4slot_meta_group@detail@signals2@boost@@V?$optional@H@4@@std@@V?$_List_iterator@V?$_List_val@U?$_List_simple_types@V?$shared_ptr@V?$connection_body@U?$pair@W4slot_meta_group@detail@signals2@boost@@V?$optional@H@4@@std@@V?$slot0@XV?$function@$$A6AXXZ@boost@@@signals2@boost@@Vmutex@45@@detail@signals2@boost@@@boost@@@std@@@std@@@2@@std@@@2@@std@@QAEPAU?$_Tree_node@U?$pair@$$CBU?$pair@W4slot_meta_group@detail@signals2@boost@@V?$optional@H@4@@std@@V?$_List_iterator@V?$_List_val@U?$_List_simple_types@V?$shared_ptr@V?$connection_body@U?$pair@W4slot_meta_group@detail@signals2@boost@@V?$optional@H@4@@std@@V?$slot0@XV?$function@$$A6AXXZ@boost@@@signals2@boost@@Vmutex@45@@detail@signals2@boost@@@boost@@@std@@@std@@@2@@std@@PAX@2@XZ 0040f790 f i cinder:Window.obj
 0001:0000e790       ?_Buynode0@?$_Tree_buy@U?$pair@$$CBU?$pair@W4slot_meta_group@detail@signals2@boost@@V?$optional@H@4@@std@@V?$_List_iterator@V?$_List_val@U?$_List_simple_types@V?$shared_ptr@V?$connection_body@U?$pair@W4slot_meta_group@detail@signals2@boost@@V?$optional@H@4@@std@@V?$slot1@XAAVMouseEvent@app@cinder@@V?$function@$$A6AXAAVMouseEvent@app@cinder@@@Z@boost@@@signals2@boost@@Vmutex@45@@detail@signals2@boost@@@boost@@@std@@@std@@@2@@std@@V?$allocator@U?$pair@$$CBU?$pair@W4slot_meta_group@detail@signals2@boost@@V?$optional@H@4@@std@@V?$_List_iterator@V?$_List_val@U?$_List_simple_types@V?$shared_ptr@V?$connection_body@U?$pair@W4slot_meta_group@detail@signals2@boost@@V?$optional@H@4@@std@@V?$slot1@XAAVMouseEvent@app@cinder@@V?$function@$$A6AXAAVMouseEvent@app@cinder@@@Z@boost@@@signals2@boost@@Vmutex@45@@detail@signals2@boost@@@boost@@@std@@@std@@@2@@std@@@2@@std@@QAEPAU?$_Tree_node@U?$pair@$$CBU?$pair@W4slot_meta_group@detail@signals2@boost@@V?$optional@H@4@@std@@V?$_List_iterator@V?$_List_val@U?$_List_simple_types@V?$shared_ptr@V?$connection_body@U?$pair@W4slot_meta_group@detail@signals2@boost@@V?$optional@H@4@@std@@V?$slot1@XAAVMouseEvent@app@cinder@@V?$function@$$A6AXAAVMouseEvent@app@cinder@@@Z@boost@@@signals2@boost@@Vmutex@45@@detail@signals2@boost@@@boost@@@std@@@std@@@2@@std@@PAX@2@XZ 0040f790 f i cinder:Window.obj
 0001:0000e790       ?_Buynode0@?$_Tree_buy@U?$pair@QBXUtss_data_node@detail@boost@@@std@@V?$allocator@U?$pair@QBXUtss_data_node@detail@boost@@@std@@@2@@std@@QAEPAU?$_Tree_node@U?$pair@QBXUtss_data_node@detail@boost@@@std@@PAX@2@XZ 0040f790 f i libboost_thread-vc110-mt-s-1_53:thread.obj
 0001:0000e790       ?_Buynode0@?$_Tree_buy@U?$pair@$$CBU?$pair@W4slot_meta_group@detail@signals2@boost@@V?$optional@H@4@@std@@V?$_List_iterator@V?$_List_val@U?$_List_simple_types@V?$shared_ptr@V?$connection_body@U?$pair@W4slot_meta_group@detail@signals2@boost@@V?$optional@H@4@@std@@V?$slot1@XAAVKeyEvent@app@cinder@@V?$function@$$A6AXAAVKeyEvent@app@cinder@@@Z@boost@@@signals2@boost@@Vmutex@45@@detail@signals2@boost@@@boost@@@std@@@std@@@2@@std@@V?$allocator@U?$pair@$$CBU?$pair@W4slot_meta_group@detail@signals2@boost@@V?$optional@H@4@@std@@V?$_List_iterator@V?$_List_val@U?$_List_simple_types@V?$shared_ptr@V?$connection_body@U?$pair@W4slot_meta_group@detail@signals2@boost@@V?$optional@H@4@@std@@V?$slot1@XAAVKeyEvent@app@cinder@@V?$function@$$A6AXAAVKeyEvent@app@cinder@@@Z@boost@@@signals2@boost@@Vmutex@45@@detail@signals2@boost@@@boost@@@std@@@std@@@2@@std@@@2@@std@@QAEPAU?$_Tree_node@U?$pair@$$CBU?$pair@W4slot_meta_group@detail@signals2@boost@@V?$optional@H@4@@std@@V?$_List_iterator@V?$_List_val@U?$_List_simple_types@V?$shared_ptr@V?$connection_body@U?$pair@W4slot_meta_group@detail@signals2@boost@@V?$optional@H@4@@std@@V?$slot1@XAAVKeyEvent@app@cinder@@V?$function@$$A6AXAAVKeyEvent@app@cinder@@@Z@boost@@@signals2@boost@@Vmutex@45@@detail@signals2@boost@@@boost@@@std@@@std@@@2@@std@@PAX@2@XZ 0040f790 f i cinder:Window.obj
 0001:0000e790       ?_Buynode0@?$_Tree_buy@U?$pair@$$CBU?$pair@W4slot_meta_group@detail@signals2@boost@@V?$optional@H@4@@std@@V?$_List_iterator@V?$_List_val@U?$_List_simple_types@V?$shared_ptr@V?$connection_body@U?$pair@W4slot_meta_group@detail@signals2@boost@@V?$optional@H@4@@std@@V?$slot1@XAAVFileDropEvent@app@cinder@@V?$function@$$A6AXAAVFileDropEvent@app@cinder@@@Z@boost@@@signals2@boost@@Vmutex@45@@detail@signals2@boost@@@boost@@@std@@@std@@@2@@std@@V?$allocator@U?$pair@$$CBU?$pair@W4slot_meta_group@detail@signals2@boost@@V?$optional@H@4@@std@@V?$_List_iterator@V?$_List_val@U?$_List_simple_types@V?$shared_ptr@V?$connection_body@U?$pair@W4slot_meta_group@detail@signals2@boost@@V?$optional@H@4@@std@@V?$slot1@XAAVFileDropEvent@app@cinder@@V?$function@$$A6AXAAVFileDropEvent@app@cinder@@@Z@boost@@@signals2@boost@@Vmutex@45@@detail@signals2@boost@@@boost@@@std@@@std@@@2@@std@@@2@@std@@QAEPAU?$_Tree_node@U?$pair@$$CBU?$pair@W4slot_meta_group@detail@signals2@boost@@V?$optional@H@4@@std@@V?$_List_iterator@V?$_List_val@U?$_List_simple_types@V?$shared_ptr@V?$connection_body@U?$pair@W4slot_meta_group@detail@signals2@boost@@V?$optional@H@4@@std@@V?$slot1@XAAVFileDropEvent@app@cinder@@V?$function@$$A6AXAAVFileDropEvent@app@cinder@@@Z@boost@@@signals2@boost@@Vmutex@45@@detail@signals2@boost@@@boost@@@std@@@std@@@2@@std@@PAX@2@XZ 0040f790 f i cinder:Window.obj
 0001:0000e790       ?_Buynode0@?$_Tree_buy@U?$pair@$$CBU?$pair@W4slot_meta_group@detail@signals2@boost@@V?$optional@H@4@@std@@V?$_List_iterator@V?$_List_val@U?$_List_simple_types@V?$shared_ptr@V?$connection_body@U?$pair@W4slot_meta_group@detail@signals2@boost@@V?$optional@H@4@@std@@V?$slot1@XAAVTouchEvent@app@cinder@@V?$function@$$A6AXAAVTouchEvent@app@cinder@@@Z@boost@@@signals2@boost@@Vmutex@45@@detail@signals2@boost@@@boost@@@std@@@std@@@2@@std@@V?$allocator@U?$pair@$$CBU?$pair@W4slot_meta_group@detail@signals2@boost@@V?$optional@H@4@@std@@V?$_List_iterator@V?$_List_val@U?$_List_simple_types@V?$shared_ptr@V?$connection_body@U?$pair@W4slot_meta_group@detail@signals2@boost@@V?$optional@H@4@@std@@V?$slot1@XAAVTouchEvent@app@cinder@@V?$function@$$A6AXAAVTouchEvent@app@cinder@@@Z@boost@@@signals2@boost@@Vmutex@45@@detail@signals2@boost@@@boost@@@std@@@std@@@2@@std@@@2@@std@@QAEPAU?$_Tree_node@U?$pair@$$CBU?$pair@W4slot_meta_group@detail@signals2@boost@@V?$optional@H@4@@std@@V?$_List_iterator@V?$_List_val@U?$_List_simple_types@V?$shared_ptr@V?$connection_body@U?$pair@W4slot_meta_group@detail@signals2@boost@@V?$optional@H@4@@std@@V?$slot1@XAAVTouchEvent@app@cinder@@V?$function@$$A6AXAAVTouchEvent@app@cinder@@@Z@boost@@@signals2@boost@@Vmutex@45@@detail@signals2@boost@@@boost@@@std@@@std@@@2@@std@@PAX@2@XZ 0040f790 f i cinder:Window.obj
 0001:0000e790       ?_Buynode0@?$_Tree_buy@U?$pair@$$CBU?$pair@W4slot_meta_group@detail@signals2@boost@@V?$optional@H@4@@std@@V?$_List_iterator@V?$_List_val@U?$_List_simple_types@V?$shared_ptr@V?$connection_body@U?$pair@W4slot_meta_group@detail@signals2@boost@@V?$optional@H@4@@std@@V?$slot0@_NV?$function@$$A6A_NXZ@boost@@@signals2@boost@@Vmutex@45@@detail@signals2@boost@@@boost@@@std@@@std@@@2@@std@@V?$allocator@U?$pair@$$CBU?$pair@W4slot_meta_group@detail@signals2@boost@@V?$optional@H@4@@std@@V?$_List_iterator@V?$_List_val@U?$_List_simple_types@V?$shared_ptr@V?$connection_body@U?$pair@W4slot_meta_group@detail@signals2@boost@@V?$optional@H@4@@std@@V?$slot0@_NV?$function@$$A6A_NXZ@boost@@@signals2@boost@@Vmutex@45@@detail@signals2@boost@@@boost@@@std@@@std@@@2@@std@@@2@@std@@QAEPAU?$_Tree_node@U?$pair@$$CBU?$pair@W4slot_meta_group@detail@signals2@boost@@V?$optional@H@4@@std@@V?$_List_iterator@V?$_List_val@U?$_List_simple_types@V?$shared_ptr@V?$connection_body@U?$pair@W4slot_meta_group@detail@signals2@boost@@V?$optional@H@4@@std@@V?$slot0@_NV?$function@$$A6A_NXZ@boost@@@signals2@boost@@Vmutex@45@@detail@signals2@boost@@@boost@@@std@@@std@@@2@@std@@PAX@2@XZ 0040f790 f i cinder:AppBasic.obj
 0001:0000e7d0       ?_Copy@?$basic_string@_WU?$char_traits@_W@std@@V?$allocator@_W@2@@std@@QAEXII@Z 0040f7d0 f i cinder:Window.obj
 0001:0000e930       ?_Destroy_if_not_nil@?$_Tree@V?$_Tmap_traits@U?$pair@W4slot_meta_group@detail@signals2@boost@@V?$optional@H@4@@std@@V?$_List_iterator@V?$_List_val@U?$_List_simple_types@V?$shared_ptr@V?$connection_body@U?$pair@W4slot_meta_group@detail@signals2@boost@@V?$optional@H@4@@std@@V?$slot1@XAAVTouchEvent@app@cinder@@V?$function@$$A6AXAAVTouchEvent@app@cinder@@@Z@boost@@@signals2@boost@@Vmutex@45@@detail@signals2@boost@@@boost@@@std@@@std@@@2@V?$group_key_less@HU?$less@H@std@@@detail@signals2@boost@@V?$allocator@U?$pair@$$CBU?$pair@W4slot_meta_group@detail@signals2@boost@@V?$optional@H@4@@std@@V?$_List_iterator@V?$_List_val@U?$_List_simple_types@V?$shared_ptr@V?$connection_body@U?$pair@W4slot_meta_group@detail@signals2@boost@@V?$optional@H@4@@std@@V?$slot1@XAAVTouchEvent@app@cinder@@V?$function@$$A6AXAAVTouchEvent@app@cinder@@@Z@boost@@@signals2@boost@@Vmutex@45@@detail@signals2@boost@@@boost@@@std@@@std@@@2@@std@@@2@$0A@@std@@@std@@IAEXPAU?$_Tree_node@U?$pair@$$CBU?$pair@W4slot_meta_group@detail@signals2@boost@@V?$optional@H@4@@std@@V?$_List_iterator@V?$_List_val@U?$_List_simple_types@V?$shared_ptr@V?$connection_body@U?$pair@W4slot_meta_group@detail@signals2@boost@@V?$optional@H@4@@std@@V?$slot1@XAAVTouchEvent@app@cinder@@V?$function@$$A6AXAAVTouchEvent@app@cinder@@@Z@boost@@@signals2@boost@@Vmutex@45@@detail@signals2@boost@@@boost@@@std@@@std@@@2@@std@@PAX@2@@Z 0040f930 f i cinder:Window.obj
 0001:0000e930       ?_Destroy_if_not_nil@?$_Tree@V?$_Tmap_traits@U?$pair@W4slot_meta_group@detail@signals2@boost@@V?$optional@H@4@@std@@V?$_List_iterator@V?$_List_val@U?$_List_simple_types@V?$shared_ptr@V?$connection_body@U?$pair@W4slot_meta_group@detail@signals2@boost@@V?$optional@H@4@@std@@V?$slot0@XV?$function@$$A6AXXZ@boost@@@signals2@boost@@Vmutex@45@@detail@signals2@boost@@@boost@@@std@@@std@@@2@V?$group_key_less@HU?$less@H@std@@@detail@signals2@boost@@V?$allocator@U?$pair@$$CBU?$pair@W4slot_meta_group@detail@signals2@boost@@V?$optional@H@4@@std@@V?$_List_iterator@V?$_List_val@U?$_List_simple_types@V?$shared_ptr@V?$connection_body@U?$pair@W4slot_meta_group@detail@signals2@boost@@V?$optional@H@4@@std@@V?$slot0@XV?$function@$$A6AXXZ@boost@@@signals2@boost@@Vmutex@45@@detail@signals2@boost@@@boost@@@std@@@std@@@2@@std@@@2@$0A@@std@@@std@@IAEXPAU?$_Tree_node@U?$pair@$$CBU?$pair@W4slot_meta_group@detail@signals2@boost@@V?$optional@H@4@@std@@V?$_List_iterator@V?$_List_val@U?$_List_simple_types@V?$shared_ptr@V?$connection_body@U?$pair@W4slot_meta_group@detail@signals2@boost@@V?$optional@H@4@@std@@V?$slot0@XV?$function@$$A6AXXZ@boost@@@signals2@boost@@Vmutex@45@@detail@signals2@boost@@@boost@@@std@@@std@@@2@@std@@PAX@2@@Z 0040f930 f i cinder:Window.obj
 0001:0000e930       ?_Destroy_if_not_nil@?$_Tree@V?$_Tmap_traits@U?$pair@W4slot_meta_group@detail@signals2@boost@@V?$optional@H@4@@std@@V?$_List_iterator@V?$_List_val@U?$_List_simple_types@V?$shared_ptr@V?$connection_body@U?$pair@W4slot_meta_group@detail@signals2@boost@@V?$optional@H@4@@std@@V?$slot1@XAAVKeyEvent@app@cinder@@V?$function@$$A6AXAAVKeyEvent@app@cinder@@@Z@boost@@@signals2@boost@@Vmutex@45@@detail@signals2@boost@@@boost@@@std@@@std@@@2@V?$group_key_less@HU?$less@H@std@@@detail@signals2@boost@@V?$allocator@U?$pair@$$CBU?$pair@W4slot_meta_group@detail@signals2@boost@@V?$optional@H@4@@std@@V?$_List_iterator@V?$_List_val@U?$_List_simple_types@V?$shared_ptr@V?$connection_body@U?$pair@W4slot_meta_group@detail@signals2@boost@@V?$optional@H@4@@std@@V?$slot1@XAAVKeyEvent@app@cinder@@V?$function@$$A6AXAAVKeyEvent@app@cinder@@@Z@boost@@@signals2@boost@@Vmutex@45@@detail@signals2@boost@@@boost@@@std@@@std@@@2@@std@@@2@$0A@@std@@@std@@IAEXPAU?$_Tree_node@U?$pair@$$CBU?$pair@W4slot_meta_group@detail@signals2@boost@@V?$optional@H@4@@std@@V?$_List_iterator@V?$_List_val@U?$_List_simple_types@V?$shared_ptr@V?$connection_body@U?$pair@W4slot_meta_group@detail@signals2@boost@@V?$optional@H@4@@std@@V?$slot1@XAAVKeyEvent@app@cinder@@V?$function@$$A6AXAAVKeyEvent@app@cinder@@@Z@boost@@@signals2@boost@@Vmutex@45@@detail@signals2@boost@@@boost@@@std@@@std@@@2@@std@@PAX@2@@Z 0040f930 f i cinder:Window.obj
 0001:0000e930       ?_Destroy_if_not_nil@?$_Tree@V?$_Tmap_traits@U?$pair@W4slot_meta_group@detail@signals2@boost@@V?$optional@H@4@@std@@V?$_List_iterator@V?$_List_val@U?$_List_simple_types@V?$shared_ptr@V?$connection_body@U?$pair@W4slot_meta_group@detail@signals2@boost@@V?$optional@H@4@@std@@V?$slot1@XAAVMouseEvent@app@cinder@@V?$function@$$A6AXAAVMouseEvent@app@cinder@@@Z@boost@@@signals2@boost@@Vmutex@45@@detail@signals2@boost@@@boost@@@std@@@std@@@2@V?$group_key_less@HU?$less@H@std@@@detail@signals2@boost@@V?$allocator@U?$pair@$$CBU?$pair@W4slot_meta_group@detail@signals2@boost@@V?$optional@H@4@@std@@V?$_List_iterator@V?$_List_val@U?$_List_simple_types@V?$shared_ptr@V?$connection_body@U?$pair@W4slot_meta_group@detail@signals2@boost@@V?$optional@H@4@@std@@V?$slot1@XAAVMouseEvent@app@cinder@@V?$function@$$A6AXAAVMouseEvent@app@cinder@@@Z@boost@@@signals2@boost@@Vmutex@45@@detail@signals2@boost@@@boost@@@std@@@std@@@2@@std@@@2@$0A@@std@@@std@@IAEXPAU?$_Tree_node@U?$pair@$$CBU?$pair@W4slot_meta_group@detail@signals2@boost@@V?$optional@H@4@@std@@V?$_List_iterator@V?$_List_val@U?$_List_simple_types@V?$shared_ptr@V?$connection_body@U?$pair@W4slot_meta_group@detail@signals2@boost@@V?$optional@H@4@@std@@V?$slot1@XAAVMouseEvent@app@cinder@@V?$function@$$A6AXAAVMouseEvent@app@cinder@@@Z@boost@@@signals2@boost@@Vmutex@45@@detail@signals2@boost@@@boost@@@std@@@std@@@2@@std@@PAX@2@@Z 0040f930 f i cinder:Window.obj
 0001:0000e930       ?_Destroy_if_not_nil@?$_Tree@V?$_Tmap_traits@U?$pair@W4slot_meta_group@detail@signals2@boost@@V?$optional@H@4@@std@@V?$_List_iterator@V?$_List_val@U?$_List_simple_types@V?$shared_ptr@V?$connection_body@U?$pair@W4slot_meta_group@detail@signals2@boost@@V?$optional@H@4@@std@@V?$slot1@XAAVFileDropEvent@app@cinder@@V?$function@$$A6AXAAVFileDropEvent@app@cinder@@@Z@boost@@@signals2@boost@@Vmutex@45@@detail@signals2@boost@@@boost@@@std@@@std@@@2@V?$group_key_less@HU?$less@H@std@@@detail@signals2@boost@@V?$allocator@U?$pair@$$CBU?$pair@W4slot_meta_group@detail@signals2@boost@@V?$optional@H@4@@std@@V?$_List_iterator@V?$_List_val@U?$_List_simple_types@V?$shared_ptr@V?$connection_body@U?$pair@W4slot_meta_group@detail@signals2@boost@@V?$optional@H@4@@std@@V?$slot1@XAAVFileDropEvent@app@cinder@@V?$function@$$A6AXAAVFileDropEvent@app@cinder@@@Z@boost@@@signals2@boost@@Vmutex@45@@detail@signals2@boost@@@boost@@@std@@@std@@@2@@std@@@2@$0A@@std@@@std@@IAEXPAU?$_Tree_node@U?$pair@$$CBU?$pair@W4slot_meta_group@detail@signals2@boost@@V?$optional@H@4@@std@@V?$_List_iterator@V?$_List_val@U?$_List_simple_types@V?$shared_ptr@V?$connection_body@U?$pair@W4slot_meta_group@detail@signals2@boost@@V?$optional@H@4@@std@@V?$slot1@XAAVFileDropEvent@app@cinder@@V?$function@$$A6AXAAVFileDropEvent@app@cinder@@@Z@boost@@@signals2@boost@@Vmutex@45@@detail@signals2@boost@@@boost@@@std@@@std@@@2@@std@@PAX@2@@Z 0040f930 f i cinder:Window.obj
 0001:0000e950       ?_Grow@?$basic_string@_WU?$char_traits@_W@std@@V?$allocator@_W@2@@std@@QAE_NI_N@Z 0040f950 f i cinder:Window.obj
 0001:0000ea10       ?_Lbound@?$_Tree@V?$_Tmap_traits@U?$pair@W4slot_meta_group@detail@signals2@boost@@V?$optional@H@4@@std@@V?$_List_iterator@V?$_List_val@U?$_List_simple_types@V?$shared_ptr@V?$connection_body@U?$pair@W4slot_meta_group@detail@signals2@boost@@V?$optional@H@4@@std@@V?$slot1@XAAVFileDropEvent@app@cinder@@V?$function@$$A6AXAAVFileDropEvent@app@cinder@@@Z@boost@@@signals2@boost@@Vmutex@45@@detail@signals2@boost@@@boost@@@std@@@std@@@2@V?$group_key_less@HU?$less@H@std@@@detail@signals2@boost@@V?$allocator@U?$pair@$$CBU?$pair@W4slot_meta_group@detail@signals2@boost@@V?$optional@H@4@@std@@V?$_List_iterator@V?$_List_val@U?$_List_simple_types@V?$shared_ptr@V?$connection_body@U?$pair@W4slot_meta_group@detail@signals2@boost@@V?$optional@H@4@@std@@V?$slot1@XAAVFileDropEvent@app@cinder@@V?$function@$$A6AXAAVFileDropEvent@app@cinder@@@Z@boost@@@signals2@boost@@Vmutex@45@@detail@signals2@boost@@@boost@@@std@@@std@@@2@@std@@@2@$0A@@std@@@std@@IAEPAU?$_Tree_node@U?$pair@$$CBU?$pair@W4slot_meta_group@detail@signals2@boost@@V?$optional@H@4@@std@@V?$_List_iterator@V?$_List_val@U?$_List_simple_types@V?$shared_ptr@V?$connection_body@U?$pair@W4slot_meta_group@detail@signals2@boost@@V?$optional@H@4@@std@@V?$slot1@XAAVFileDropEvent@app@cinder@@V?$function@$$A6AXAAVFileDropEvent@app@cinder@@@Z@boost@@@signals2@boost@@Vmutex@45@@detail@signals2@boost@@@boost@@@std@@@std@@@2@@std@@PAX@2@ABU?$pair@W4slot_meta_group@detail@signals2@boost@@V?$optional@H@4@@2@@Z 0040fa10 f i cinder:Window.obj
 0001:0000ea10       ?_Lbound@?$_Tree@V?$_Tmap_traits@U?$pair@W4slot_meta_group@detail@signals2@boost@@V?$optional@H@4@@std@@V?$_List_iterator@V?$_List_val@U?$_List_simple_types@V?$shared_ptr@V?$connection_body@U?$pair@W4slot_meta_group@detail@signals2@boost@@V?$optional@H@4@@std@@V?$slot0@XV?$function@$$A6AXXZ@boost@@@signals2@boost@@Vmutex@45@@detail@signals2@boost@@@boost@@@std@@@std@@@2@V?$group_key_less@HU?$less@H@std@@@detail@signals2@boost@@V?$allocator@U?$pair@$$CBU?$pair@W4slot_meta_group@detail@signals2@boost@@V?$optional@H@4@@std@@V?$_List_iterator@V?$_List_val@U?$_List_simple_types@V?$shared_ptr@V?$connection_body@U?$pair@W4slot_meta_group@detail@signals2@boost@@V?$optional@H@4@@std@@V?$slot0@XV?$function@$$A6AXXZ@boost@@@signals2@boost@@Vmutex@45@@detail@signals2@boost@@@boost@@@std@@@std@@@2@@std@@@2@$0A@@std@@@std@@IAEPAU?$_Tree_node@U?$pair@$$CBU?$pair@W4slot_meta_group@detail@signals2@boost@@V?$optional@H@4@@std@@V?$_List_iterator@V?$_List_val@U?$_List_simple_types@V?$shared_ptr@V?$connection_body@U?$pair@W4slot_meta_group@detail@signals2@boost@@V?$optional@H@4@@std@@V?$slot0@XV?$function@$$A6AXXZ@boost@@@signals2@boost@@Vmutex@45@@detail@signals2@boost@@@boost@@@std@@@std@@@2@@std@@PAX@2@ABU?$pair@W4slot_meta_group@detail@signals2@boost@@V?$optional@H@4@@2@@Z 0040fa10 f i cinder:Window.obj
 0001:0000ea10       ?_Lbound@?$_Tree@V?$_Tmap_traits@U?$pair@W4slot_meta_group@detail@signals2@boost@@V?$optional@H@4@@std@@V?$_List_iterator@V?$_List_val@U?$_List_simple_types@V?$shared_ptr@V?$connection_body@U?$pair@W4slot_meta_group@detail@signals2@boost@@V?$optional@H@4@@std@@V?$slot1@XAAVMouseEvent@app@cinder@@V?$function@$$A6AXAAVMouseEvent@app@cinder@@@Z@boost@@@signals2@boost@@Vmutex@45@@detail@signals2@boost@@@boost@@@std@@@std@@@2@V?$group_key_less@HU?$less@H@std@@@detail@signals2@boost@@V?$allocator@U?$pair@$$CBU?$pair@W4slot_meta_group@detail@signals2@boost@@V?$optional@H@4@@std@@V?$_List_iterator@V?$_List_val@U?$_List_simple_types@V?$shared_ptr@V?$connection_body@U?$pair@W4slot_meta_group@detail@signals2@boost@@V?$optional@H@4@@std@@V?$slot1@XAAVMouseEvent@app@cinder@@V?$function@$$A6AXAAVMouseEvent@app@cinder@@@Z@boost@@@signals2@boost@@Vmutex@45@@detail@signals2@boost@@@boost@@@std@@@std@@@2@@std@@@2@$0A@@std@@@std@@IAEPAU?$_Tree_node@U?$pair@$$CBU?$pair@W4slot_meta_group@detail@signals2@boost@@V?$optional@H@4@@std@@V?$_List_iterator@V?$_List_val@U?$_List_simple_types@V?$shared_ptr@V?$connection_body@U?$pair@W4slot_meta_group@detail@signals2@boost@@V?$optional@H@4@@std@@V?$slot1@XAAVMouseEvent@app@cinder@@V?$function@$$A6AXAAVMouseEvent@app@cinder@@@Z@boost@@@signals2@boost@@Vmutex@45@@detail@signals2@boost@@@boost@@@std@@@std@@@2@@std@@PAX@2@ABU?$pair@W4slot_meta_group@detail@signals2@boost@@V?$optional@H@4@@2@@Z 0040fa10 f i cinder:Window.obj
 0001:0000ea10       ?_Lbound@?$_Tree@V?$_Tmap_traits@U?$pair@W4slot_meta_group@detail@signals2@boost@@V?$optional@H@4@@std@@V?$_List_iterator@V?$_List_val@U?$_List_simple_types@V?$shared_ptr@V?$connection_body@U?$pair@W4slot_meta_group@detail@signals2@boost@@V?$optional@H@4@@std@@V?$slot1@XAAVKeyEvent@app@cinder@@V?$function@$$A6AXAAVKeyEvent@app@cinder@@@Z@boost@@@signals2@boost@@Vmutex@45@@detail@signals2@boost@@@boost@@@std@@@std@@@2@V?$group_key_less@HU?$less@H@std@@@detail@signals2@boost@@V?$allocator@U?$pair@$$CBU?$pair@W4slot_meta_group@detail@signals2@boost@@V?$optional@H@4@@std@@V?$_List_iterator@V?$_List_val@U?$_List_simple_types@V?$shared_ptr@V?$connection_body@U?$pair@W4slot_meta_group@detail@signals2@boost@@V?$optional@H@4@@std@@V?$slot1@XAAVKeyEvent@app@cinder@@V?$function@$$A6AXAAVKeyEvent@app@cinder@@@Z@boost@@@signals2@boost@@Vmutex@45@@detail@signals2@boost@@@boost@@@std@@@std@@@2@@std@@@2@$0A@@std@@@std@@IAEPAU?$_Tree_node@U?$pair@$$CBU?$pair@W4slot_meta_group@detail@signals2@boost@@V?$optional@H@4@@std@@V?$_List_iterator@V?$_List_val@U?$_List_simple_types@V?$shared_ptr@V?$connection_body@U?$pair@W4slot_meta_group@detail@signals2@boost@@V?$optional@H@4@@std@@V?$slot1@XAAVKeyEvent@app@cinder@@V?$function@$$A6AXAAVKeyEvent@app@cinder@@@Z@boost@@@signals2@boost@@Vmutex@45@@detail@signals2@boost@@@boost@@@std@@@std@@@2@@std@@PAX@2@ABU?$pair@W4slot_meta_group@detail@signals2@boost@@V?$optional@H@4@@2@@Z 0040fa10 f i cinder:Window.obj
 0001:0000ea10       ?_Lbound@?$_Tree@V?$_Tmap_traits@U?$pair@W4slot_meta_group@detail@signals2@boost@@V?$optional@H@4@@std@@V?$_List_iterator@V?$_List_val@U?$_List_simple_types@V?$shared_ptr@V?$connection_body@U?$pair@W4slot_meta_group@detail@signals2@boost@@V?$optional@H@4@@std@@V?$slot1@XAAVTouchEvent@app@cinder@@V?$function@$$A6AXAAVTouchEvent@app@cinder@@@Z@boost@@@signals2@boost@@Vmutex@45@@detail@signals2@boost@@@boost@@@std@@@std@@@2@V?$group_key_less@HU?$less@H@std@@@detail@signals2@boost@@V?$allocator@U?$pair@$$CBU?$pair@W4slot_meta_group@detail@signals2@boost@@V?$optional@H@4@@std@@V?$_List_iterator@V?$_List_val@U?$_List_simple_types@V?$shared_ptr@V?$connection_body@U?$pair@W4slot_meta_group@detail@signals2@boost@@V?$optional@H@4@@std@@V?$slot1@XAAVTouchEvent@app@cinder@@V?$function@$$A6AXAAVTouchEvent@app@cinder@@@Z@boost@@@signals2@boost@@Vmutex@45@@detail@signals2@boost@@@boost@@@std@@@std@@@2@@std@@@2@$0A@@std@@@std@@IAEPAU?$_Tree_node@U?$pair@$$CBU?$pair@W4slot_meta_group@detail@signals2@boost@@V?$optional@H@4@@std@@V?$_List_iterator@V?$_List_val@U?$_List_simple_types@V?$shared_ptr@V?$connection_body@U?$pair@W4slot_meta_group@detail@signals2@boost@@V?$optional@H@4@@std@@V?$slot1@XAAVTouchEvent@app@cinder@@V?$function@$$A6AXAAVTouchEvent@app@cinder@@@Z@boost@@@signals2@boost@@Vmutex@45@@detail@signals2@boost@@@boost@@@std@@@std@@@2@@std@@PAX@2@ABU?$pair@W4slot_meta_group@detail@signals2@boost@@V?$optional@H@4@@2@@Z 0040fa10 f i cinder:Window.obj
 0001:0000ea60       ?_Max@?$_Tree_val@U?$_Tree_simple_types@U?$pair@$$CBV?$basic_string@DU?$char_traits@D@std@@V?$allocator@D@2@@std@@V?$multimap@HU?$pair@P6A?AV?$shared_ptr@VImageTarget@cinder@@@std@@V?$shared_ptr@VDataTarget@cinder@@@2@V?$shared_ptr@VImageSource@cinder@@@2@VOptions@ImageTarget@cinder@@ABV?$basic_string@DU?$char_traits@D@std@@V?$allocator@D@2@@2@@ZV82@@std@@U?$less@H@2@V?$allocator@U?$pair@$$CBHU?$pair@P6A?AV?$shared_ptr@VImageTarget@cinder@@@std@@V?$shared_ptr@VDataTarget@cinder@@@2@V?$shared_ptr@VImageSource@cinder@@@2@VOptions@ImageTarget@cinder@@ABV?$basic_string@DU?$char_traits@D@std@@V?$allocator@D@2@@2@@ZV82@@std@@@std@@@2@@2@@std@@@std@@@std@@SAPAU?$_Tree_node@U?$pair@$$CBV?$basic_string@DU?$char_traits@D@std@@V?$allocator@D@2@@std@@V?$multimap@HU?$pair@P6A?AV?$shared_ptr@VImageTarget@cinder@@@std@@V?$shared_ptr@VDataTarget@cinder@@@2@V?$shared_ptr@VImageSource@cinder@@@2@VOptions@ImageTarget@cinder@@ABV?$basic_string@DU?$char_traits@D@std@@V?$allocator@D@2@@2@@ZV82@@std@@U?$less@H@2@V?$allocator@U?$pair@$$CBHU?$pair@P6A?AV?$shared_ptr@VImageTarget@cinder@@@std@@V?$shared_ptr@VDataTarget@cinder@@@2@V?$shared_ptr@VImageSource@cinder@@@2@VOptions@ImageTarget@cinder@@ABV?$basic_string@DU?$char_traits@D@std@@V?$allocator@D@2@@2@@ZV82@@std@@@std@@@2@@2@@std@@PAX@2@PAU32@@Z 0040fa60 f i cinder:ImageIo.obj
 0001:0000ea60       ?_Max@?$_Tree_val@U?$_Tree_simple_types@U?$pair@$$CBU?$pair@W4slot_meta_group@detail@signals2@boost@@V?$optional@H@4@@std@@V?$_List_iterator@V?$_List_val@U?$_List_simple_types@V?$shared_ptr@V?$connection_body@U?$pair@W4slot_meta_group@detail@signals2@boost@@V?$optional@H@4@@std@@V?$slot1@XAAVFileDropEvent@app@cinder@@V?$function@$$A6AXAAVFileDropEvent@app@cinder@@@Z@boost@@@signals2@boost@@Vmutex@45@@detail@signals2@boost@@@boost@@@std@@@std@@@2@@std@@@std@@@std@@SAPAU?$_Tree_node@U?$pair@$$CBU?$pair@W4slot_meta_group@detail@signals2@boost@@V?$optional@H@4@@std@@V?$_List_iterator@V?$_List_val@U?$_List_simple_types@V?$shared_ptr@V?$connection_body@U?$pair@W4slot_meta_group@detail@signals2@boost@@V?$optional@H@4@@std@@V?$slot1@XAAVFileDropEvent@app@cinder@@V?$function@$$A6AXAAVFileDropEvent@app@cinder@@@Z@boost@@@signals2@boost@@Vmutex@45@@detail@signals2@boost@@@boost@@@std@@@std@@@2@@std@@PAX@2@PAU32@@Z 0040fa60 f i cinder:Window.obj
 0001:0000ea60       ?_Max@?$_Tree_val@U?$_Tree_simple_types@U?$pair@QAXV?$shared_ptr@VTimelineItem@cinder@@@std@@@std@@@std@@@std@@SAPAU?$_Tree_node@U?$pair@QAXV?$shared_ptr@VTimelineItem@cinder@@@std@@@std@@PAX@2@PAU32@@Z 0040fa60 f i cinder:Timeline.obj
 0001:0000ea60       ?_Max@?$_Tree_val@U?$_Tree_simple_types@U?$pair@$$CBHP6A?AV?$shared_ptr@VImageSource@cinder@@@std@@V?$shared_ptr@VDataSource@cinder@@@2@VOptions@ImageSource@cinder@@@Z@std@@@std@@@std@@SAPAU?$_Tree_node@U?$pair@$$CBHP6A?AV?$shared_ptr@VImageSource@cinder@@@std@@V?$shared_ptr@VDataSource@cinder@@@2@VOptions@ImageSource@cinder@@@Z@std@@PAX@2@PAU32@@Z 0040fa60 f i cinder:ImageIo.obj
 0001:0000ea60       ?_Max@?$_Tree_val@U?$_Tree_simple_types@U?$pair@$$CBU?$pair@W4slot_meta_group@detail@signals2@boost@@V?$optional@H@4@@std@@V?$_List_iterator@V?$_List_val@U?$_List_simple_types@V?$shared_ptr@V?$connection_body@U?$pair@W4slot_meta_group@detail@signals2@boost@@V?$optional@H@4@@std@@V?$slot0@XV?$function@$$A6AXXZ@boost@@@signals2@boost@@Vmutex@45@@detail@signals2@boost@@@boost@@@std@@@std@@@2@@std@@@std@@@std@@SAPAU?$_Tree_node@U?$pair@$$CBU?$pair@W4slot_meta_group@detail@signals2@boost@@V?$optional@H@4@@std@@V?$_List_iterator@V?$_List_val@U?$_List_simple_types@V?$shared_ptr@V?$connection_body@U?$pair@W4slot_meta_group@detail@signals2@boost@@V?$optional@H@4@@std@@V?$slot0@XV?$function@$$A6AXXZ@boost@@@signals2@boost@@Vmutex@45@@detail@signals2@boost@@@boost@@@std@@@std@@@2@@std@@PAX@2@PAU32@@Z 0040fa60 f i cinder:Window.obj
 0001:0000ea60       ?_Max@?$_Tree_val@U?$_Tree_simple_types@U?$pair@$$CBU?$pair@W4slot_meta_group@detail@signals2@boost@@V?$optional@H@4@@std@@V?$_List_iterator@V?$_List_val@U?$_List_simple_types@V?$shared_ptr@V?$connection_body@U?$pair@W4slot_meta_group@detail@signals2@boost@@V?$optional@H@4@@std@@V?$slot1@XAAVKeyEvent@app@cinder@@V?$function@$$A6AXAAVKeyEvent@app@cinder@@@Z@boost@@@signals2@boost@@Vmutex@45@@detail@signals2@boost@@@boost@@@std@@@std@@@2@@std@@@std@@@std@@SAPAU?$_Tree_node@U?$pair@$$CBU?$pair@W4slot_meta_group@detail@signals2@boost@@V?$optional@H@4@@std@@V?$_List_iterator@V?$_List_val@U?$_List_simple_types@V?$shared_ptr@V?$connection_body@U?$pair@W4slot_meta_group@detail@signals2@boost@@V?$optional@H@4@@std@@V?$slot1@XAAVKeyEvent@app@cinder@@V?$function@$$A6AXAAVKeyEvent@app@cinder@@@Z@boost@@@signals2@boost@@Vmutex@45@@detail@signals2@boost@@@boost@@@std@@@std@@@2@@std@@PAX@2@PAU32@@Z 0040fa60 f i cinder:Window.obj
 0001:0000ea60       ?_Max@?$_Tree_val@U?$_Tree_simple_types@U?$pair@$$CBU?$pair@W4slot_meta_group@detail@signals2@boost@@V?$optional@H@4@@std@@V?$_List_iterator@V?$_List_val@U?$_List_simple_types@V?$shared_ptr@V?$connection_body@U?$pair@W4slot_meta_group@detail@signals2@boost@@V?$optional@H@4@@std@@V?$slot1@XAAVTouchEvent@app@cinder@@V?$function@$$A6AXAAVTouchEvent@app@cinder@@@Z@boost@@@signals2@boost@@Vmutex@45@@detail@signals2@boost@@@boost@@@std@@@std@@@2@@std@@@std@@@std@@SAPAU?$_Tree_node@U?$pair@$$CBU?$pair@W4slot_meta_group@detail@signals2@boost@@V?$optional@H@4@@std@@V?$_List_iterator@V?$_List_val@U?$_List_simple_types@V?$shared_ptr@V?$connection_body@U?$pair@W4slot_meta_group@detail@signals2@boost@@V?$optional@H@4@@std@@V?$slot1@XAAVTouchEvent@app@cinder@@V?$function@$$A6AXAAVTouchEvent@app@cinder@@@Z@boost@@@signals2@boost@@Vmutex@45@@detail@signals2@boost@@@boost@@@std@@@std@@@2@@std@@PAX@2@PAU32@@Z 0040fa60 f i cinder:Window.obj
 0001:0000ea60       ?_Max@?$_Tree_val@U?$_Tree_simple_types@U?$pair@$$CBHU?$pair@P6A?AV?$shared_ptr@VImageTarget@cinder@@@std@@V?$shared_ptr@VDataTarget@cinder@@@2@V?$shared_ptr@VImageSource@cinder@@@2@VOptions@ImageTarget@cinder@@ABV?$basic_string@DU?$char_traits@D@std@@V?$allocator@D@2@@2@@ZV82@@std@@@std@@@std@@@std@@SAPAU?$_Tree_node@U?$pair@$$CBHU?$pair@P6A?AV?$shared_ptr@VImageTarget@cinder@@@std@@V?$shared_ptr@VDataTarget@cinder@@@2@V?$shared_ptr@VImageSource@cinder@@@2@VOptions@ImageTarget@cinder@@ABV?$basic_string@DU?$char_traits@D@std@@V?$allocator@D@2@@2@@ZV82@@std@@@std@@PAX@2@PAU32@@Z 0040fa60 f i cinder:ImageIo.obj
 0001:0000ea60       ?_Max@?$_Tree_val@U?$_Tree_simple_types@U?$pair@$$CBU?$pair@W4slot_meta_group@detail@signals2@boost@@V?$optional@H@4@@std@@V?$_List_iterator@V?$_List_val@U?$_List_simple_types@V?$shared_ptr@V?$connection_body@U?$pair@W4slot_meta_group@detail@signals2@boost@@V?$optional@H@4@@std@@V?$slot1@XAAVMouseEvent@app@cinder@@V?$function@$$A6AXAAVMouseEvent@app@cinder@@@Z@boost@@@signals2@boost@@Vmutex@45@@detail@signals2@boost@@@boost@@@std@@@std@@@2@@std@@@std@@@std@@SAPAU?$_Tree_node@U?$pair@$$CBU?$pair@W4slot_meta_group@detail@signals2@boost@@V?$optional@H@4@@std@@V?$_List_iterator@V?$_List_val@U?$_List_simple_types@V?$shared_ptr@V?$connection_body@U?$pair@W4slot_meta_group@detail@signals2@boost@@V?$optional@H@4@@std@@V?$slot1@XAAVMouseEvent@app@cinder@@V?$function@$$A6AXAAVMouseEvent@app@cinder@@@Z@boost@@@signals2@boost@@Vmutex@45@@detail@signals2@boost@@@boost@@@std@@@std@@@2@@std@@PAX@2@PAU32@@Z 0040fa60 f i cinder:Window.obj
 0001:0000ea60       ?_Max@?$_Tree_val@U?$_Tree_simple_types@U?$pair@$$CBV?$basic_string@DU?$char_traits@D@std@@V?$allocator@D@2@@std@@PBU_GUID@@@std@@@std@@@std@@SAPAU?$_Tree_node@U?$pair@$$CBV?$basic_string@DU?$char_traits@D@std@@V?$allocator@D@2@@std@@PBU_GUID@@@std@@PAX@2@PAU32@@Z 0040fa60 f i cinder:ImageTargetFileWic.obj
 0001:0000ea60       ?_Max@?$_Tree_val@U?$_Tree_simple_types@U?$pair@$$CBU?$pair@W4slot_meta_group@detail@signals2@boost@@V?$optional@H@4@@std@@V?$_List_iterator@V?$_List_val@U?$_List_simple_types@V?$shared_ptr@V?$connection_body@U?$pair@W4slot_meta_group@detail@signals2@boost@@V?$optional@H@4@@std@@V?$slot0@_NV?$function@$$A6A_NXZ@boost@@@signals2@boost@@Vmutex@45@@detail@signals2@boost@@@boost@@@std@@@std@@@2@@std@@@std@@@std@@SAPAU?$_Tree_node@U?$pair@$$CBU?$pair@W4slot_meta_group@detail@signals2@boost@@V?$optional@H@4@@std@@V?$_List_iterator@V?$_List_val@U?$_List_simple_types@V?$shared_ptr@V?$connection_body@U?$pair@W4slot_meta_group@detail@signals2@boost@@V?$optional@H@4@@std@@V?$slot0@_NV?$function@$$A6A_NXZ@boost@@@signals2@boost@@Vmutex@45@@detail@signals2@boost@@@boost@@@std@@@std@@@2@@std@@PAX@2@PAU32@@Z 0040fa60 f i cinder:AppBasic.obj
 0001:0000ea60       ?_Max@?$_Tree_val@U?$_Tree_simple_types@U?$pair@$$CBKV?$Vec2@M@cinder@@@std@@@std@@@std@@SAPAU?$_Tree_node@U?$pair@$$CBKV?$Vec2@M@cinder@@@std@@PAX@2@PAU32@@Z 0040fa60 f i cinder:AppImplMsw.obj
 0001:0000ea60       ?_Max@?$_Tree_val@U?$_Tree_simple_types@U?$pair@$$CBV?$basic_string@DU?$char_traits@D@std@@V?$allocator@D@2@@std@@V?$multimap@HP6A?AV?$shared_ptr@VImageSource@cinder@@@std@@V?$shared_ptr@VDataSource@cinder@@@2@VOptions@ImageSource@cinder@@@ZU?$less@H@2@V?$allocator@U?$pair@$$CBHP6A?AV?$shared_ptr@VImageSource@cinder@@@std@@V?$shared_ptr@VDataSource@cinder@@@2@VOptions@ImageSource@cinder@@@Z@std@@@2@@2@@std@@@std@@@std@@SAPAU?$_Tree_node@U?$pair@$$CBV?$basic_string@DU?$char_traits@D@std@@V?$allocator@D@2@@std@@V?$multimap@HP6A?AV?$shared_ptr@VImageSource@cinder@@@std@@V?$shared_ptr@VDataSource@cinder@@@2@VOptions@ImageSource@cinder@@@ZU?$less@H@2@V?$allocator@U?$pair@$$CBHP6A?AV?$shared_ptr@VImageSource@cinder@@@std@@V?$shared_ptr@VDataSource@cinder@@@2@VOptions@ImageSource@cinder@@@Z@std@@@2@@2@@std@@PAX@2@PAU32@@Z 0040fa60 f i cinder:ImageIo.obj
 0001:0000ea80       ?_Ubound@?$_Tree@V?$_Tmap_traits@U?$pair@W4slot_meta_group@detail@signals2@boost@@V?$optional@H@4@@std@@V?$_List_iterator@V?$_List_val@U?$_List_simple_types@V?$shared_ptr@V?$connection_body@U?$pair@W4slot_meta_group@detail@signals2@boost@@V?$optional@H@4@@std@@V?$slot1@XAAVMouseEvent@app@cinder@@V?$function@$$A6AXAAVMouseEvent@app@cinder@@@Z@boost@@@signals2@boost@@Vmutex@45@@detail@signals2@boost@@@boost@@@std@@@std@@@2@V?$group_key_less@HU?$less@H@std@@@detail@signals2@boost@@V?$allocator@U?$pair@$$CBU?$pair@W4slot_meta_group@detail@signals2@boost@@V?$optional@H@4@@std@@V?$_List_iterator@V?$_List_val@U?$_List_simple_types@V?$shared_ptr@V?$connection_body@U?$pair@W4slot_meta_group@detail@signals2@boost@@V?$optional@H@4@@std@@V?$slot1@XAAVMouseEvent@app@cinder@@V?$function@$$A6AXAAVMouseEvent@app@cinder@@@Z@boost@@@signals2@boost@@Vmutex@45@@detail@signals2@boost@@@boost@@@std@@@std@@@2@@std@@@2@$0A@@std@@@std@@IAEPAU?$_Tree_node@U?$pair@$$CBU?$pair@W4slot_meta_group@detail@signals2@boost@@V?$optional@H@4@@std@@V?$_List_iterator@V?$_List_val@U?$_List_simple_types@V?$shared_ptr@V?$connection_body@U?$pair@W4slot_meta_group@detail@signals2@boost@@V?$optional@H@4@@std@@V?$slot1@XAAVMouseEvent@app@cinder@@V?$function@$$A6AXAAVMouseEvent@app@cinder@@@Z@boost@@@signals2@boost@@Vmutex@45@@detail@signals2@boost@@@boost@@@std@@@std@@@2@@std@@PAX@2@ABU?$pair@W4slot_meta_group@detail@signals2@boost@@V?$optional@H@4@@2@@Z 0040fa80 f i cinder:Window.obj
 0001:0000ea80       ?_Ubound@?$_Tree@V?$_Tmap_traits@U?$pair@W4slot_meta_group@detail@signals2@boost@@V?$optional@H@4@@std@@V?$_List_iterator@V?$_List_val@U?$_List_simple_types@V?$shared_ptr@V?$connection_body@U?$pair@W4slot_meta_group@detail@signals2@boost@@V?$optional@H@4@@std@@V?$slot1@XAAVFileDropEvent@app@cinder@@V?$function@$$A6AXAAVFileDropEvent@app@cinder@@@Z@boost@@@signals2@boost@@Vmutex@45@@detail@signals2@boost@@@boost@@@std@@@std@@@2@V?$group_key_less@HU?$less@H@std@@@detail@signals2@boost@@V?$allocator@U?$pair@$$CBU?$pair@W4slot_meta_group@detail@signals2@boost@@V?$optional@H@4@@std@@V?$_List_iterator@V?$_List_val@U?$_List_simple_types@V?$shared_ptr@V?$connection_body@U?$pair@W4slot_meta_group@detail@signals2@boost@@V?$optional@H@4@@std@@V?$slot1@XAAVFileDropEvent@app@cinder@@V?$function@$$A6AXAAVFileDropEvent@app@cinder@@@Z@boost@@@signals2@boost@@Vmutex@45@@detail@signals2@boost@@@boost@@@std@@@std@@@2@@std@@@2@$0A@@std@@@std@@IAEPAU?$_Tree_node@U?$pair@$$CBU?$pair@W4slot_meta_group@detail@signals2@boost@@V?$optional@H@4@@std@@V?$_List_iterator@V?$_List_val@U?$_List_simple_types@V?$shared_ptr@V?$connection_body@U?$pair@W4slot_meta_group@detail@signals2@boost@@V?$optional@H@4@@std@@V?$slot1@XAAVFileDropEvent@app@cinder@@V?$function@$$A6AXAAVFileDropEvent@app@cinder@@@Z@boost@@@signals2@boost@@Vmutex@45@@detail@signals2@boost@@@boost@@@std@@@std@@@2@@std@@PAX@2@ABU?$pair@W4slot_meta_group@detail@signals2@boost@@V?$optional@H@4@@2@@Z 0040fa80 f i cinder:Window.obj
 0001:0000ea80       ?_Ubound@?$_Tree@V?$_Tmap_traits@U?$pair@W4slot_meta_group@detail@signals2@boost@@V?$optional@H@4@@std@@V?$_List_iterator@V?$_List_val@U?$_List_simple_types@V?$shared_ptr@V?$connection_body@U?$pair@W4slot_meta_group@detail@signals2@boost@@V?$optional@H@4@@std@@V?$slot1@XAAVKeyEvent@app@cinder@@V?$function@$$A6AXAAVKeyEvent@app@cinder@@@Z@boost@@@signals2@boost@@Vmutex@45@@detail@signals2@boost@@@boost@@@std@@@std@@@2@V?$group_key_less@HU?$less@H@std@@@detail@signals2@boost@@V?$allocator@U?$pair@$$CBU?$pair@W4slot_meta_group@detail@signals2@boost@@V?$optional@H@4@@std@@V?$_List_iterator@V?$_List_val@U?$_List_simple_types@V?$shared_ptr@V?$connection_body@U?$pair@W4slot_meta_group@detail@signals2@boost@@V?$optional@H@4@@std@@V?$slot1@XAAVKeyEvent@app@cinder@@V?$function@$$A6AXAAVKeyEvent@app@cinder@@@Z@boost@@@signals2@boost@@Vmutex@45@@detail@signals2@boost@@@boost@@@std@@@std@@@2@@std@@@2@$0A@@std@@@std@@IAEPAU?$_Tree_node@U?$pair@$$CBU?$pair@W4slot_meta_group@detail@signals2@boost@@V?$optional@H@4@@std@@V?$_List_iterator@V?$_List_val@U?$_List_simple_types@V?$shared_ptr@V?$connection_body@U?$pair@W4slot_meta_group@detail@signals2@boost@@V?$optional@H@4@@std@@V?$slot1@XAAVKeyEvent@app@cinder@@V?$function@$$A6AXAAVKeyEvent@app@cinder@@@Z@boost@@@signals2@boost@@Vmutex@45@@detail@signals2@boost@@@boost@@@std@@@std@@@2@@std@@PAX@2@ABU?$pair@W4slot_meta_group@detail@signals2@boost@@V?$optional@H@4@@2@@Z 0040fa80 f i cinder:Window.obj
 0001:0000ea80       ?_Ubound@?$_Tree@V?$_Tmap_traits@U?$pair@W4slot_meta_group@detail@signals2@boost@@V?$optional@H@4@@std@@V?$_List_iterator@V?$_List_val@U?$_List_simple_types@V?$shared_ptr@V?$connection_body@U?$pair@W4slot_meta_group@detail@signals2@boost@@V?$optional@H@4@@std@@V?$slot1@XAAVTouchEvent@app@cinder@@V?$function@$$A6AXAAVTouchEvent@app@cinder@@@Z@boost@@@signals2@boost@@Vmutex@45@@detail@signals2@boost@@@boost@@@std@@@std@@@2@V?$group_key_less@HU?$less@H@std@@@detail@signals2@boost@@V?$allocator@U?$pair@$$CBU?$pair@W4slot_meta_group@detail@signals2@boost@@V?$optional@H@4@@std@@V?$_List_iterator@V?$_List_val@U?$_List_simple_types@V?$shared_ptr@V?$connection_body@U?$pair@W4slot_meta_group@detail@signals2@boost@@V?$optional@H@4@@std@@V?$slot1@XAAVTouchEvent@app@cinder@@V?$function@$$A6AXAAVTouchEvent@app@cinder@@@Z@boost@@@signals2@boost@@Vmutex@45@@detail@signals2@boost@@@boost@@@std@@@std@@@2@@std@@@2@$0A@@std@@@std@@IAEPAU?$_Tree_node@U?$pair@$$CBU?$pair@W4slot_meta_group@detail@signals2@boost@@V?$optional@H@4@@std@@V?$_List_iterator@V?$_List_val@U?$_List_simple_types@V?$shared_ptr@V?$connection_body@U?$pair@W4slot_meta_group@detail@signals2@boost@@V?$optional@H@4@@std@@V?$slot1@XAAVTouchEvent@app@cinder@@V?$function@$$A6AXAAVTouchEvent@app@cinder@@@Z@boost@@@signals2@boost@@Vmutex@45@@detail@signals2@boost@@@boost@@@std@@@std@@@2@@std@@PAX@2@ABU?$pair@W4slot_meta_group@detail@signals2@boost@@V?$optional@H@4@@2@@Z 0040fa80 f i cinder:Window.obj
 0001:0000ea80       ?_Ubound@?$_Tree@V?$_Tmap_traits@U?$pair@W4slot_meta_group@detail@signals2@boost@@V?$optional@H@4@@std@@V?$_List_iterator@V?$_List_val@U?$_List_simple_types@V?$shared_ptr@V?$connection_body@U?$pair@W4slot_meta_group@detail@signals2@boost@@V?$optional@H@4@@std@@V?$slot0@XV?$function@$$A6AXXZ@boost@@@signals2@boost@@Vmutex@45@@detail@signals2@boost@@@boost@@@std@@@std@@@2@V?$group_key_less@HU?$less@H@std@@@detail@signals2@boost@@V?$allocator@U?$pair@$$CBU?$pair@W4slot_meta_group@detail@signals2@boost@@V?$optional@H@4@@std@@V?$_List_iterator@V?$_List_val@U?$_List_simple_types@V?$shared_ptr@V?$connection_body@U?$pair@W4slot_meta_group@detail@signals2@boost@@V?$optional@H@4@@std@@V?$slot0@XV?$function@$$A6AXXZ@boost@@@signals2@boost@@Vmutex@45@@detail@signals2@boost@@@boost@@@std@@@std@@@2@@std@@@2@$0A@@std@@@std@@IAEPAU?$_Tree_node@U?$pair@$$CBU?$pair@W4slot_meta_group@detail@signals2@boost@@V?$optional@H@4@@std@@V?$_List_iterator@V?$_List_val@U?$_List_simple_types@V?$shared_ptr@V?$connection_body@U?$pair@W4slot_meta_group@detail@signals2@boost@@V?$optional@H@4@@std@@V?$slot0@XV?$function@$$A6AXXZ@boost@@@signals2@boost@@Vmutex@45@@detail@signals2@boost@@@boost@@@std@@@std@@@2@@std@@PAX@2@ABU?$pair@W4slot_meta_group@detail@signals2@boost@@V?$optional@H@4@@2@@Z 0040fa80 f i cinder:Window.obj
 0001:0000ead0       ?allocate@?$_Wrap_alloc@V?$allocator@_W@std@@@std@@QAEPA_WI@Z 0040fad0 f i cinder:Window.obj
 0001:0000eb00       ?assign@?$basic_string@_WU?$char_traits@_W@std@@V?$allocator@_W@2@@std@@QAEAAV12@ABV12@II@Z 0040fb00 f i cinder:Window.obj
 0001:0000ec20       ?clear@?$list@V?$shared_ptr@V?$connection_body@U?$pair@W4slot_meta_group@detail@signals2@boost@@V?$optional@H@4@@std@@V?$slot1@XAAVKeyEvent@app@cinder@@V?$function@$$A6AXAAVKeyEvent@app@cinder@@@Z@boost@@@signals2@boost@@Vmutex@45@@detail@signals2@boost@@@boost@@V?$allocator@V?$shared_ptr@V?$connection_body@U?$pair@W4slot_meta_group@detail@signals2@boost@@V?$optional@H@4@@std@@V?$slot1@XAAVKeyEvent@app@cinder@@V?$function@$$A6AXAAVKeyEvent@app@cinder@@@Z@boost@@@signals2@boost@@Vmutex@45@@detail@signals2@boost@@@boost@@@std@@@std@@QAEXXZ 0040fc20 f i cinder:Window.obj
 0001:0000ec20       ?clear@?$list@V?$shared_ptr@V?$connection_body@U?$pair@W4slot_meta_group@detail@signals2@boost@@V?$optional@H@4@@std@@V?$slot0@XV?$function@$$A6AXXZ@boost@@@signals2@boost@@Vmutex@45@@detail@signals2@boost@@@boost@@V?$allocator@V?$shared_ptr@V?$connection_body@U?$pair@W4slot_meta_group@detail@signals2@boost@@V?$optional@H@4@@std@@V?$slot0@XV?$function@$$A6AXXZ@boost@@@signals2@boost@@Vmutex@45@@detail@signals2@boost@@@boost@@@std@@@std@@QAEXXZ 0040fc20 f i cinder:Window.obj
 0001:0000ec20       ?clear@?$list@V?$shared_ptr@V?$connection_body@U?$pair@W4slot_meta_group@detail@signals2@boost@@V?$optional@H@4@@std@@V?$slot1@XAAVMouseEvent@app@cinder@@V?$function@$$A6AXAAVMouseEvent@app@cinder@@@Z@boost@@@signals2@boost@@Vmutex@45@@detail@signals2@boost@@@boost@@V?$allocator@V?$shared_ptr@V?$connection_body@U?$pair@W4slot_meta_group@detail@signals2@boost@@V?$optional@H@4@@std@@V?$slot1@XAAVMouseEvent@app@cinder@@V?$function@$$A6AXAAVMouseEvent@app@cinder@@@Z@boost@@@signals2@boost@@Vmutex@45@@detail@signals2@boost@@@boost@@@std@@@std@@QAEXXZ 0040fc20 f i cinder:Window.obj
 0001:0000ec20       ?clear@?$list@V?$shared_ptr@V?$connection_body@U?$pair@W4slot_meta_group@detail@signals2@boost@@V?$optional@H@4@@std@@V?$slot0@_NV?$function@$$A6A_NXZ@boost@@@signals2@boost@@Vmutex@45@@detail@signals2@boost@@@boost@@V?$allocator@V?$shared_ptr@V?$connection_body@U?$pair@W4slot_meta_group@detail@signals2@boost@@V?$optional@H@4@@std@@V?$slot0@_NV?$function@$$A6A_NXZ@boost@@@signals2@boost@@Vmutex@45@@detail@signals2@boost@@@boost@@@std@@@std@@QAEXXZ 0040fc20 f i cinder:AppBasic.obj
 0001:0000ec20       ?clear@?$list@V?$shared_ptr@V?$connection_body@U?$pair@W4slot_meta_group@detail@signals2@boost@@V?$optional@H@4@@std@@V?$slot1@XAAVFileDropEvent@app@cinder@@V?$function@$$A6AXAAVFileDropEvent@app@cinder@@@Z@boost@@@signals2@boost@@Vmutex@45@@detail@signals2@boost@@@boost@@V?$allocator@V?$shared_ptr@V?$connection_body@U?$pair@W4slot_meta_group@detail@signals2@boost@@V?$optional@H@4@@std@@V?$slot1@XAAVFileDropEvent@app@cinder@@V?$function@$$A6AXAAVFileDropEvent@app@cinder@@@Z@boost@@@signals2@boost@@Vmutex@45@@detail@signals2@boost@@@boost@@@std@@@std@@QAEXXZ 0040fc20 f i cinder:Window.obj
 0001:0000ec20       ?clear@?$list@V?$shared_ptr@V?$connection_body@U?$pair@W4slot_meta_group@detail@signals2@boost@@V?$optional@H@4@@std@@V?$slot1@XAAVTouchEvent@app@cinder@@V?$function@$$A6AXAAVTouchEvent@app@cinder@@@Z@boost@@@signals2@boost@@Vmutex@45@@detail@signals2@boost@@@boost@@V?$allocator@V?$shared_ptr@V?$connection_body@U?$pair@W4slot_meta_group@detail@signals2@boost@@V?$optional@H@4@@std@@V?$slot1@XAAVTouchEvent@app@cinder@@V?$function@$$A6AXAAVTouchEvent@app@cinder@@@Z@boost@@@signals2@boost@@Vmutex@45@@detail@signals2@boost@@@boost@@@std@@@std@@QAEXXZ 0040fc20 f i cinder:Window.obj
 0001:0000ec88       ?clone@?$clone_impl@U?$error_info_injector@Vbad_function_call@boost@@@exception_detail@boost@@@exception_detail@boost@@$0PPPPPPPM@A@BEPBVclone_base@23@XZ 0040fc88 f i cinder:Window.obj
 0001:0000ec90       ?clone@?$clone_impl@U?$error_info_injector@Vbad_function_call@boost@@@exception_detail@boost@@@exception_detail@boost@@EBEPBVclone_base@23@XZ 0040fc90 f i cinder:Window.obj
 0001:0000ed20       ?copy_boost_exception@exception_detail@boost@@YAXPAVexception@2@PBV32@@Z 0040fd20 f i cinder:Window.obj
 0001:0000ee00       ?deallocate@?$auto_buffer@V?$variant@V?$shared_ptr@X@boost@@Vforeign_void_shared_ptr@detail@signals2@2@Uvoid_@042@U6042@U6042@U6042@U6042@U6042@U6042@U6042@U6042@U6042@U6042@U6042@U6042@U6042@U6042@U6042@U6042@U6042@@boost@@U?$store_n_objects@$09@detail@signals2@2@Udefault_grow_policy@452@V?$allocator@V?$variant@V?$shared_ptr@X@boost@@Vforeign_void_shared_ptr@detail@signals2@2@Uvoid_@042@U6042@U6042@U6042@U6042@U6042@U6042@U6042@U6042@U6042@U6042@U6042@U6042@U6042@U6042@U6042@U6042@U6042@@boost@@@std@@@detail@signals2@boost@@AAEXPAV?$variant@V?$shared_ptr@X@boost@@Vforeign_void_shared_ptr@detail@signals2@2@Uvoid_@042@U6042@U6042@U6042@U6042@U6042@U6042@U6042@U6042@U6042@U6042@U6042@U6042@U6042@U6042@U6042@U6042@U6042@@4@I@Z 0040fe00 f i cinder:Window.obj
 0001:0000ee20       ?dereference@?$slot_call_iterator_t@Vslot_invoker@?$signal0_impl@XV?$optional_last_value@X@signals2@boost@@HU?$less@H@std@@V?$function@$$A6AXXZ@3@V?$function@$$A6AXABVconnection@signals2@boost@@@Z@3@Vmutex@23@@detail@signals2@boost@@V?$_List_iterator@V?$_List_val@U?$_List_simple_types@V?$shared_ptr@V?$connection_body@U?$pair@W4slot_meta_group@detail@signals2@boost@@V?$optional@H@4@@std@@V?$slot0@XV?$function@$$A6AXXZ@boost@@@signals2@boost@@Vmutex@45@@detail@signals2@boost@@@boost@@@std@@@std@@@std@@V?$connection_body@U?$pair@W4slot_meta_group@detail@signals2@boost@@V?$optional@H@4@@std@@V?$slot0@XV?$function@$$A6AXXZ@boost@@@signals2@boost@@Vmutex@45@@345@@detail@signals2@boost@@QBEABUvoid_type@234@XZ 0040fe20 f i cinder:Window.obj
 0001:0000eeb0       ?dereference@?$slot_call_iterator_t@Vslot_invoker@?$signal1_impl@XAAVKeyEvent@app@cinder@@U?$EventCombiner@VKeyEvent@app@cinder@@@23@HU?$less@H@std@@V?$function@$$A6AXAAVKeyEvent@app@cinder@@@Z@boost@@V?$function@$$A6AXABVconnection@signals2@boost@@AAVKeyEvent@app@cinder@@@Z@8@Vmutex@signals2@8@@detail@signals2@boost@@V?$_List_iterator@V?$_List_val@U?$_List_simple_types@V?$shared_ptr@V?$connection_body@U?$pair@W4slot_meta_group@detail@signals2@boost@@V?$optional@H@4@@std@@V?$slot1@XAAVKeyEvent@app@cinder@@V?$function@$$A6AXAAVKeyEvent@app@cinder@@@Z@boost@@@signals2@boost@@Vmutex@45@@detail@signals2@boost@@@boost@@@std@@@std@@@std@@V?$connection_body@U?$pair@W4slot_meta_group@detail@signals2@boost@@V?$optional@H@4@@std@@V?$slot1@XAAVKeyEvent@app@cinder@@V?$function@$$A6AXAAVKeyEvent@app@cinder@@@Z@boost@@@signals2@boost@@Vmutex@45@@345@@detail@signals2@boost@@QBEABUvoid_type@234@XZ 0040feb0 f i cinder:Window.obj
 0001:0000eeb0       ?dereference@?$slot_call_iterator_t@Vslot_invoker@?$signal1_impl@XAAVTouchEvent@app@cinder@@U?$EventCombiner@VTouchEvent@app@cinder@@@23@HU?$less@H@std@@V?$function@$$A6AXAAVTouchEvent@app@cinder@@@Z@boost@@V?$function@$$A6AXABVconnection@signals2@boost@@AAVTouchEvent@app@cinder@@@Z@8@Vmutex@signals2@8@@detail@signals2@boost@@V?$_List_iterator@V?$_List_val@U?$_List_simple_types@V?$shared_ptr@V?$connection_body@U?$pair@W4slot_meta_group@detail@signals2@boost@@V?$optional@H@4@@std@@V?$slot1@XAAVTouchEvent@app@cinder@@V?$function@$$A6AXAAVTouchEvent@app@cinder@@@Z@boost@@@signals2@boost@@Vmutex@45@@detail@signals2@boost@@@boost@@@std@@@std@@@std@@V?$connection_body@U?$pair@W4slot_meta_group@detail@signals2@boost@@V?$optional@H@4@@std@@V?$slot1@XAAVTouchEvent@app@cinder@@V?$function@$$A6AXAAVTouchEvent@app@cinder@@@Z@boost@@@signals2@boost@@Vmutex@45@@345@@detail@signals2@boost@@QBEABUvoid_type@234@XZ 0040feb0 f i cinder:Window.obj
 0001:0000eeb0       ?dereference@?$slot_call_iterator_t@Vslot_invoker@?$signal1_impl@XAAVMouseEvent@app@cinder@@U?$EventCombiner@VMouseEvent@app@cinder@@@23@HU?$less@H@std@@V?$function@$$A6AXAAVMouseEvent@app@cinder@@@Z@boost@@V?$function@$$A6AXABVconnection@signals2@boost@@AAVMouseEvent@app@cinder@@@Z@8@Vmutex@signals2@8@@detail@signals2@boost@@V?$_List_iterator@V?$_List_val@U?$_List_simple_types@V?$shared_ptr@V?$connection_body@U?$pair@W4slot_meta_group@detail@signals2@boost@@V?$optional@H@4@@std@@V?$slot1@XAAVMouseEvent@app@cinder@@V?$function@$$A6AXAAVMouseEvent@app@cinder@@@Z@boost@@@signals2@boost@@Vmutex@45@@detail@signals2@boost@@@boost@@@std@@@std@@@std@@V?$connection_body@U?$pair@W4slot_meta_group@detail@signals2@boost@@V?$optional@H@4@@std@@V?$slot1@XAAVMouseEvent@app@cinder@@V?$function@$$A6AXAAVMouseEvent@app@cinder@@@Z@boost@@@signals2@boost@@Vmutex@45@@345@@detail@signals2@boost@@QBEABUvoid_type@234@XZ 0040feb0 f i cinder:Window.obj
 0001:0000eeb0       ?dereference@?$slot_call_iterator_t@Vslot_invoker@?$signal1_impl@XAAVFileDropEvent@app@cinder@@U?$EventCombiner@VFileDropEvent@app@cinder@@@23@HU?$less@H@std@@V?$function@$$A6AXAAVFileDropEvent@app@cinder@@@Z@boost@@V?$function@$$A6AXABVconnection@signals2@boost@@AAVFileDropEvent@app@cinder@@@Z@8@Vmutex@signals2@8@@detail@signals2@boost@@V?$_List_iterator@V?$_List_val@U?$_List_simple_types@V?$shared_ptr@V?$connection_body@U?$pair@W4slot_meta_group@detail@signals2@boost@@V?$optional@H@4@@std@@V?$slot1@XAAVFileDropEvent@app@cinder@@V?$function@$$A6AXAAVFileDropEvent@app@cinder@@@Z@boost@@@signals2@boost@@Vmutex@45@@detail@signals2@boost@@@boost@@@std@@@std@@@std@@V?$connection_body@U?$pair@W4slot_meta_group@detail@signals2@boost@@V?$optional@H@4@@std@@V?$slot1@XAAVFileDropEvent@app@cinder@@V?$function@$$A6AXAAVFileDropEvent@app@cinder@@@Z@boost@@@signals2@boost@@Vmutex@45@@345@@detail@signals2@boost@@QBEABUvoid_type@234@XZ 0040feb0 f i cinder:Window.obj
 0001:0000ef80       ?destroy@sp_counted_base@detail@boost@@UAEXXZ 0040ff80 f i cinder:Window.obj
 0001:0000ef90       ?destroy_back_n@?$auto_buffer@V?$variant@V?$shared_ptr@X@boost@@Vforeign_void_shared_ptr@detail@signals2@2@Uvoid_@042@U6042@U6042@U6042@U6042@U6042@U6042@U6042@U6042@U6042@U6042@U6042@U6042@U6042@U6042@U6042@U6042@U6042@@boost@@U?$store_n_objects@$09@detail@signals2@2@Udefault_grow_policy@452@V?$allocator@V?$variant@V?$shared_ptr@X@boost@@Vforeign_void_shared_ptr@detail@signals2@2@Uvoid_@042@U6042@U6042@U6042@U6042@U6042@U6042@U6042@U6042@U6042@U6042@U6042@U6042@U6042@U6042@U6042@U6042@U6042@@boost@@@std@@@detail@signals2@boost@@AAEXIABU?$integral_constant@_N$0A@@4@@Z 0040ff90 f i cinder:Window.obj
 0001:0000f000       ?disconnect@connection_body_base@detail@signals2@boost@@QAEXXZ 00410000 f i cinder:Window.obj
 0001:0000f020       ?dispose@?$sp_counted_impl_p@V?$grouped_list@HU?$less@H@std@@V?$shared_ptr@V?$connection_body@U?$pair@W4slot_meta_group@detail@signals2@boost@@V?$optional@H@4@@std@@V?$slot1@XAAVKeyEvent@app@cinder@@V?$function@$$A6AXAAVKeyEvent@app@cinder@@@Z@boost@@@signals2@boost@@Vmutex@45@@detail@signals2@boost@@@boost@@@detail@signals2@boost@@@detail@boost@@UAEXXZ 00410020 f i cinder:Window.obj
 0001:0000f020       ?dispose@?$sp_counted_impl_p@V?$grouped_list@HU?$less@H@std@@V?$shared_ptr@V?$connection_body@U?$pair@W4slot_meta_group@detail@signals2@boost@@V?$optional@H@4@@std@@V?$slot0@XV?$function@$$A6AXXZ@boost@@@signals2@boost@@Vmutex@45@@detail@signals2@boost@@@boost@@@detail@signals2@boost@@@detail@boost@@UAEXXZ 00410020 f i cinder:Window.obj
 0001:0000f020       ?dispose@?$sp_counted_impl_p@V?$grouped_list@HU?$less@H@std@@V?$shared_ptr@V?$connection_body@U?$pair@W4slot_meta_group@detail@signals2@boost@@V?$optional@H@4@@std@@V?$slot1@XAAVTouchEvent@app@cinder@@V?$function@$$A6AXAAVTouchEvent@app@cinder@@@Z@boost@@@signals2@boost@@Vmutex@45@@detail@signals2@boost@@@boost@@@detail@signals2@boost@@@detail@boost@@UAEXXZ 00410020 f i cinder:Window.obj
 0001:0000f020       ?dispose@?$sp_counted_impl_p@V?$grouped_list@HU?$less@H@std@@V?$shared_ptr@V?$connection_body@U?$pair@W4slot_meta_group@detail@signals2@boost@@V?$optional@H@4@@std@@V?$slot1@XAAVMouseEvent@app@cinder@@V?$function@$$A6AXAAVMouseEvent@app@cinder@@@Z@boost@@@signals2@boost@@Vmutex@45@@detail@signals2@boost@@@boost@@@detail@signals2@boost@@@detail@boost@@UAEXXZ 00410020 f i cinder:Window.obj
 0001:0000f020       ?dispose@?$sp_counted_impl_p@V?$grouped_list@HU?$less@H@std@@V?$shared_ptr@V?$connection_body@U?$pair@W4slot_meta_group@detail@signals2@boost@@V?$optional@H@4@@std@@V?$slot0@_NV?$function@$$A6A_NXZ@boost@@@signals2@boost@@Vmutex@45@@detail@signals2@boost@@@boost@@@detail@signals2@boost@@@detail@boost@@UAEXXZ 00410020 f i cinder:AppBasic.obj
 0001:0000f020       ?dispose@?$sp_counted_impl_p@V?$grouped_list@HU?$less@H@std@@V?$shared_ptr@V?$connection_body@U?$pair@W4slot_meta_group@detail@signals2@boost@@V?$optional@H@4@@std@@V?$slot1@XAAVFileDropEvent@app@cinder@@V?$function@$$A6AXAAVFileDropEvent@app@cinder@@@Z@boost@@@signals2@boost@@Vmutex@45@@detail@signals2@boost@@@boost@@@detail@signals2@boost@@@detail@boost@@UAEXXZ 00410020 f i cinder:Window.obj
 0001:0000f070       ?dispose@?$sp_counted_impl_p@Vinvocation_state@?$signal1_impl@XAAVMouseEvent@app@cinder@@U?$EventCombiner@VMouseEvent@app@cinder@@@23@HU?$less@H@std@@V?$function@$$A6AXAAVMouseEvent@app@cinder@@@Z@boost@@V?$function@$$A6AXABVconnection@signals2@boost@@AAVMouseEvent@app@cinder@@@Z@8@Vmutex@signals2@8@@detail@signals2@boost@@@detail@boost@@UAEXXZ 00410070 f i cinder:Window.obj
 0001:0000f070       ?dispose@?$sp_counted_impl_p@Vinvocation_state@?$signal0_impl@XV?$optional_last_value@X@signals2@boost@@HU?$less@H@std@@V?$function@$$A6AXXZ@3@V?$function@$$A6AXABVconnection@signals2@boost@@@Z@3@Vmutex@23@@detail@signals2@boost@@@detail@boost@@UAEXXZ 00410070 f i cinder:Window.obj
 0001:0000f070       ?dispose@?$sp_counted_impl_p@Vinvocation_state@?$signal1_impl@XAAVKeyEvent@app@cinder@@U?$EventCombiner@VKeyEvent@app@cinder@@@23@HU?$less@H@std@@V?$function@$$A6AXAAVKeyEvent@app@cinder@@@Z@boost@@V?$function@$$A6AXABVconnection@signals2@boost@@AAVKeyEvent@app@cinder@@@Z@8@Vmutex@signals2@8@@detail@signals2@boost@@@detail@boost@@UAEXXZ 00410070 f i cinder:Window.obj
 0001:0000f070       ?dispose@?$sp_counted_impl_p@Vinvocation_state@?$signal1_impl@XAAVFileDropEvent@app@cinder@@U?$EventCombiner@VFileDropEvent@app@cinder@@@23@HU?$less@H@std@@V?$function@$$A6AXAAVFileDropEvent@app@cinder@@@Z@boost@@V?$function@$$A6AXABVconnection@signals2@boost@@AAVFileDropEvent@app@cinder@@@Z@8@Vmutex@signals2@8@@detail@signals2@boost@@@detail@boost@@UAEXXZ 00410070 f i cinder:Window.obj
 0001:0000f070       ?dispose@?$sp_counted_impl_p@Vinvocation_state@?$signal1_impl@XAAVTouchEvent@app@cinder@@U?$EventCombiner@VTouchEvent@app@cinder@@@23@HU?$less@H@std@@V?$function@$$A6AXAAVTouchEvent@app@cinder@@@Z@boost@@V?$function@$$A6AXABVconnection@signals2@boost@@AAVTouchEvent@app@cinder@@@Z@8@Vmutex@signals2@8@@detail@signals2@boost@@@detail@boost@@UAEXXZ 00410070 f i cinder:Window.obj
 0001:0000f070       ?dispose@?$sp_counted_impl_p@Vinvocation_state@?$signal0_impl@_NUBooleanAndEventCombiner@app@cinder@@HU?$less@H@std@@V?$function@$$A6A_NXZ@boost@@V?$function@$$A6A_NABVconnection@signals2@boost@@@Z@7@Vmutex@signals2@7@@detail@signals2@boost@@@detail@boost@@UAEXXZ 00410070 f i cinder:AppBasic.obj
 0001:0000f090       ?emitClose@Window@app@cinder@@QAEXXZ 00410090 f   cinder:Window.obj
 0001:0000f0a0       ?emitDisplayChange@Window@app@cinder@@QAEXXZ 004100a0 f   cinder:Window.obj
 0001:0000f140       ?emitDraw@Window@app@cinder@@QAEXXZ 00410140 f   cinder:Window.obj
 0001:0000f170       ?emitFileDrop@Window@app@cinder@@QAEXPAVFileDropEvent@23@@Z 00410170 f   cinder:Window.obj
 0001:0000f240       ?emitKeyDown@Window@app@cinder@@QAEXPAVKeyEvent@23@@Z 00410240 f   cinder:Window.obj
 0001:0000f310       ?emitKeyUp@Window@app@cinder@@QAEXPAVKeyEvent@23@@Z 00410310 f   cinder:Window.obj
 0001:0000f3e0       ?emitMouseDown@Window@app@cinder@@QAEXPAVMouseEvent@23@@Z 004103e0 f   cinder:Window.obj
 0001:0000f4a0       ?emitMouseDrag@Window@app@cinder@@QAEXPAVMouseEvent@23@@Z 004104a0 f   cinder:Window.obj
 0001:0000f560       ?emitMouseMove@Window@app@cinder@@QAEXPAVMouseEvent@23@@Z 00410560 f   cinder:Window.obj
 0001:0000f620       ?emitMouseUp@Window@app@cinder@@QAEXPAVMouseEvent@23@@Z 00410620 f   cinder:Window.obj
 0001:0000f6e0       ?emitMouseWheel@Window@app@cinder@@QAEXPAVMouseEvent@23@@Z 004106e0 f   cinder:Window.obj
 0001:0000f7a0       ?emitMove@Window@app@cinder@@QAEXXZ 004107a0 f   cinder:Window.obj
 0001:0000f840       ?emitResize@Window@app@cinder@@QAEXXZ 00410840 f   cinder:Window.obj
 0001:0000f930       ?emitTouchesBegan@Window@app@cinder@@QAEXPAVTouchEvent@23@@Z 00410930 f   cinder:Window.obj
 0001:0000fa50       ?emitTouchesEnded@Window@app@cinder@@QAEXPAVTouchEvent@23@@Z 00410a50 f   cinder:Window.obj
 0001:0000fb70       ?emitTouchesMoved@Window@app@cinder@@QAEXPAVTouchEvent@23@@Z 00410b70 f   cinder:Window.obj
 0001:0000fc90       ?erase@?$_Tree@V?$_Tmap_traits@U?$pair@W4slot_meta_group@detail@signals2@boost@@V?$optional@H@4@@std@@V?$_List_iterator@V?$_List_val@U?$_List_simple_types@V?$shared_ptr@V?$connection_body@U?$pair@W4slot_meta_group@detail@signals2@boost@@V?$optional@H@4@@std@@V?$slot1@XAAVKeyEvent@app@cinder@@V?$function@$$A6AXAAVKeyEvent@app@cinder@@@Z@boost@@@signals2@boost@@Vmutex@45@@detail@signals2@boost@@@boost@@@std@@@std@@@2@V?$group_key_less@HU?$less@H@std@@@detail@signals2@boost@@V?$allocator@U?$pair@$$CBU?$pair@W4slot_meta_group@detail@signals2@boost@@V?$optional@H@4@@std@@V?$_List_iterator@V?$_List_val@U?$_List_simple_types@V?$shared_ptr@V?$connection_body@U?$pair@W4slot_meta_group@detail@signals2@boost@@V?$optional@H@4@@std@@V?$slot1@XAAVKeyEvent@app@cinder@@V?$function@$$A6AXAAVKeyEvent@app@cinder@@@Z@boost@@@signals2@boost@@Vmutex@45@@detail@signals2@boost@@@boost@@@std@@@std@@@2@@std@@@2@$0A@@std@@@std@@QAE?AV?$_Tree_iterator@V?$_Tree_val@U?$_Tree_simple_types@U?$pair@$$CBU?$pair@W4slot_meta_group@detail@signals2@boost@@V?$optional@H@4@@std@@V?$_List_iterator@V?$_List_val@U?$_List_simple_types@V?$shared_ptr@V?$connection_body@U?$pair@W4slot_meta_group@detail@signals2@boost@@V?$optional@H@4@@std@@V?$slot1@XAAVKeyEvent@app@cinder@@V?$function@$$A6AXAAVKeyEvent@app@cinder@@@Z@boost@@@signals2@boost@@Vmutex@45@@detail@signals2@boost@@@boost@@@std@@@std@@@2@@std@@@std@@@std@@@2@V?$_Tree_const_iterator@V?$_Tree_val@U?$_Tree_simple_types@U?$pair@$$CBU?$pair@W4slot_meta_group@detail@signals2@boost@@V?$optional@H@4@@std@@V?$_List_iterator@V?$_List_val@U?$_List_simple_types@V?$shared_ptr@V?$connection_body@U?$pair@W4slot_meta_group@detail@signals2@boost@@V?$optional@H@4@@std@@V?$slot1@XAAVKeyEvent@app@cinder@@V?$function@$$A6AXAAVKeyEvent@app@cinder@@@Z@boost@@@signals2@boost@@Vmutex@45@@detail@signals2@boost@@@boost@@@std@@@std@@@2@@std@@@std@@@std@@@2@0@Z 00410c90 f i cinder:Window.obj
 0001:0000fc90       ?erase@?$_Tree@V?$_Tmap_traits@U?$pair@W4slot_meta_group@detail@signals2@boost@@V?$optional@H@4@@std@@V?$_List_iterator@V?$_List_val@U?$_List_simple_types@V?$shared_ptr@V?$connection_body@U?$pair@W4slot_meta_group@detail@signals2@boost@@V?$optional@H@4@@std@@V?$slot0@XV?$function@$$A6AXXZ@boost@@@signals2@boost@@Vmutex@45@@detail@signals2@boost@@@boost@@@std@@@std@@@2@V?$group_key_less@HU?$less@H@std@@@detail@signals2@boost@@V?$allocator@U?$pair@$$CBU?$pair@W4slot_meta_group@detail@signals2@boost@@V?$optional@H@4@@std@@V?$_List_iterator@V?$_List_val@U?$_List_simple_types@V?$shared_ptr@V?$connection_body@U?$pair@W4slot_meta_group@detail@signals2@boost@@V?$optional@H@4@@std@@V?$slot0@XV?$function@$$A6AXXZ@boost@@@signals2@boost@@Vmutex@45@@detail@signals2@boost@@@boost@@@std@@@std@@@2@@std@@@2@$0A@@std@@@std@@QAE?AV?$_Tree_iterator@V?$_Tree_val@U?$_Tree_simple_types@U?$pair@$$CBU?$pair@W4slot_meta_group@detail@signals2@boost@@V?$optional@H@4@@std@@V?$_List_iterator@V?$_List_val@U?$_List_simple_types@V?$shared_ptr@V?$connection_body@U?$pair@W4slot_meta_group@detail@signals2@boost@@V?$optional@H@4@@std@@V?$slot0@XV?$function@$$A6AXXZ@boost@@@signals2@boost@@Vmutex@45@@detail@signals2@boost@@@boost@@@std@@@std@@@2@@std@@@std@@@std@@@2@V?$_Tree_const_iterator@V?$_Tree_val@U?$_Tree_simple_types@U?$pair@$$CBU?$pair@W4slot_meta_group@detail@signals2@boost@@V?$optional@H@4@@std@@V?$_List_iterator@V?$_List_val@U?$_List_simple_types@V?$shared_ptr@V?$connection_body@U?$pair@W4slot_meta_group@detail@signals2@boost@@V?$optional@H@4@@std@@V?$slot0@XV?$function@$$A6AXXZ@boost@@@signals2@boost@@Vmutex@45@@detail@signals2@boost@@@boost@@@std@@@std@@@2@@std@@@std@@@std@@@2@0@Z 00410c90 f i cinder:Window.obj
 0001:0000fc90       ?erase@?$_Tree@V?$_Tmap_traits@U?$pair@W4slot_meta_group@detail@signals2@boost@@V?$optional@H@4@@std@@V?$_List_iterator@V?$_List_val@U?$_List_simple_types@V?$shared_ptr@V?$connection_body@U?$pair@W4slot_meta_group@detail@signals2@boost@@V?$optional@H@4@@std@@V?$slot0@_NV?$function@$$A6A_NXZ@boost@@@signals2@boost@@Vmutex@45@@detail@signals2@boost@@@boost@@@std@@@std@@@2@V?$group_key_less@HU?$less@H@std@@@detail@signals2@boost@@V?$allocator@U?$pair@$$CBU?$pair@W4slot_meta_group@detail@signals2@boost@@V?$optional@H@4@@std@@V?$_List_iterator@V?$_List_val@U?$_List_simple_types@V?$shared_ptr@V?$connection_body@U?$pair@W4slot_meta_group@detail@signals2@boost@@V?$optional@H@4@@std@@V?$slot0@_NV?$function@$$A6A_NXZ@boost@@@signals2@boost@@Vmutex@45@@detail@signals2@boost@@@boost@@@std@@@std@@@2@@std@@@2@$0A@@std@@@std@@QAE?AV?$_Tree_iterator@V?$_Tree_val@U?$_Tree_simple_types@U?$pair@$$CBU?$pair@W4slot_meta_group@detail@signals2@boost@@V?$optional@H@4@@std@@V?$_List_iterator@V?$_List_val@U?$_List_simple_types@V?$shared_ptr@V?$connection_body@U?$pair@W4slot_meta_group@detail@signals2@boost@@V?$optional@H@4@@std@@V?$slot0@_NV?$function@$$A6A_NXZ@boost@@@signals2@boost@@Vmutex@45@@detail@signals2@boost@@@boost@@@std@@@std@@@2@@std@@@std@@@std@@@2@V?$_Tree_const_iterator@V?$_Tree_val@U?$_Tree_simple_types@U?$pair@$$CBU?$pair@W4slot_meta_group@detail@signals2@boost@@V?$optional@H@4@@std@@V?$_List_iterator@V?$_List_val@U?$_List_simple_types@V?$shared_ptr@V?$connection_body@U?$pair@W4slot_meta_group@detail@signals2@boost@@V?$optional@H@4@@std@@V?$slot0@_NV?$function@$$A6A_NXZ@boost@@@signals2@boost@@Vmutex@45@@detail@signals2@boost@@@boost@@@std@@@std@@@2@@std@@@std@@@std@@@2@0@Z 00410c90 f i cinder:AppBasic.obj
 0001:0000fc90       ?erase@?$_Tree@V?$_Tmap_traits@U?$pair@W4slot_meta_group@detail@signals2@boost@@V?$optional@H@4@@std@@V?$_List_iterator@V?$_List_val@U?$_List_simple_types@V?$shared_ptr@V?$connection_body@U?$pair@W4slot_meta_group@detail@signals2@boost@@V?$optional@H@4@@std@@V?$slot1@XAAVTouchEvent@app@cinder@@V?$function@$$A6AXAAVTouchEvent@app@cinder@@@Z@boost@@@signals2@boost@@Vmutex@45@@detail@signals2@boost@@@boost@@@std@@@std@@@2@V?$group_key_less@HU?$less@H@std@@@detail@signals2@boost@@V?$allocator@U?$pair@$$CBU?$pair@W4slot_meta_group@detail@signals2@boost@@V?$optional@H@4@@std@@V?$_List_iterator@V?$_List_val@U?$_List_simple_types@V?$shared_ptr@V?$connection_body@U?$pair@W4slot_meta_group@detail@signals2@boost@@V?$optional@H@4@@std@@V?$slot1@XAAVTouchEvent@app@cinder@@V?$function@$$A6AXAAVTouchEvent@app@cinder@@@Z@boost@@@signals2@boost@@Vmutex@45@@detail@signals2@boost@@@boost@@@std@@@std@@@2@@std@@@2@$0A@@std@@@std@@QAE?AV?$_Tree_iterator@V?$_Tree_val@U?$_Tree_simple_types@U?$pair@$$CBU?$pair@W4slot_meta_group@detail@signals2@boost@@V?$optional@H@4@@std@@V?$_List_iterator@V?$_List_val@U?$_List_simple_types@V?$shared_ptr@V?$connection_body@U?$pair@W4slot_meta_group@detail@signals2@boost@@V?$optional@H@4@@std@@V?$slot1@XAAVTouchEvent@app@cinder@@V?$function@$$A6AXAAVTouchEvent@app@cinder@@@Z@boost@@@signals2@boost@@Vmutex@45@@detail@signals2@boost@@@boost@@@std@@@std@@@2@@std@@@std@@@std@@@2@V?$_Tree_const_iterator@V?$_Tree_val@U?$_Tree_simple_types@U?$pair@$$CBU?$pair@W4slot_meta_group@detail@signals2@boost@@V?$optional@H@4@@std@@V?$_List_iterator@V?$_List_val@U?$_List_simple_types@V?$shared_ptr@V?$connection_body@U?$pair@W4slot_meta_group@detail@signals2@boost@@V?$optional@H@4@@std@@V?$slot1@XAAVTouchEvent@app@cinder@@V?$function@$$A6AXAAVTouchEvent@app@cinder@@@Z@boost@@@signals2@boost@@Vmutex@45@@detail@signals2@boost@@@boost@@@std@@@std@@@2@@std@@@std@@@std@@@2@0@Z 00410c90 f i cinder:Window.obj
 0001:0000fc90       ?erase@?$_Tree@V?$_Tmap_traits@U?$pair@W4slot_meta_group@detail@signals2@boost@@V?$optional@H@4@@std@@V?$_List_iterator@V?$_List_val@U?$_List_simple_types@V?$shared_ptr@V?$connection_body@U?$pair@W4slot_meta_group@detail@signals2@boost@@V?$optional@H@4@@std@@V?$slot1@XAAVFileDropEvent@app@cinder@@V?$function@$$A6AXAAVFileDropEvent@app@cinder@@@Z@boost@@@signals2@boost@@Vmutex@45@@detail@signals2@boost@@@boost@@@std@@@std@@@2@V?$group_key_less@HU?$less@H@std@@@detail@signals2@boost@@V?$allocator@U?$pair@$$CBU?$pair@W4slot_meta_group@detail@signals2@boost@@V?$optional@H@4@@std@@V?$_List_iterator@V?$_List_val@U?$_List_simple_types@V?$shared_ptr@V?$connection_body@U?$pair@W4slot_meta_group@detail@signals2@boost@@V?$optional@H@4@@std@@V?$slot1@XAAVFileDropEvent@app@cinder@@V?$function@$$A6AXAAVFileDropEvent@app@cinder@@@Z@boost@@@signals2@boost@@Vmutex@45@@detail@signals2@boost@@@boost@@@std@@@std@@@2@@std@@@2@$0A@@std@@@std@@QAE?AV?$_Tree_iterator@V?$_Tree_val@U?$_Tree_simple_types@U?$pair@$$CBU?$pair@W4slot_meta_group@detail@signals2@boost@@V?$optional@H@4@@std@@V?$_List_iterator@V?$_List_val@U?$_List_simple_types@V?$shared_ptr@V?$connection_body@U?$pair@W4slot_meta_group@detail@signals2@boost@@V?$optional@H@4@@std@@V?$slot1@XAAVFileDropEvent@app@cinder@@V?$function@$$A6AXAAVFileDropEvent@app@cinder@@@Z@boost@@@signals2@boost@@Vmutex@45@@detail@signals2@boost@@@boost@@@std@@@std@@@2@@std@@@std@@@std@@@2@V?$_Tree_const_iterator@V?$_Tree_val@U?$_Tree_simple_types@U?$pair@$$CBU?$pair@W4slot_meta_group@detail@signals2@boost@@V?$optional@H@4@@std@@V?$_List_iterator@V?$_List_val@U?$_List_simple_types@V?$shared_ptr@V?$connection_body@U?$pair@W4slot_meta_group@detail@signals2@boost@@V?$optional@H@4@@std@@V?$slot1@XAAVFileDropEvent@app@cinder@@V?$function@$$A6AXAAVFileDropEvent@app@cinder@@@Z@boost@@@signals2@boost@@Vmutex@45@@detail@signals2@boost@@@boost@@@std@@@std@@@2@@std@@@std@@@std@@@2@0@Z 00410c90 f i cinder:Window.obj
 0001:0000fc90       ?erase@?$_Tree@V?$_Tmap_traits@U?$pair@W4slot_meta_group@detail@signals2@boost@@V?$optional@H@4@@std@@V?$_List_iterator@V?$_List_val@U?$_List_simple_types@V?$shared_ptr@V?$connection_body@U?$pair@W4slot_meta_group@detail@signals2@boost@@V?$optional@H@4@@std@@V?$slot1@XAAVMouseEvent@app@cinder@@V?$function@$$A6AXAAVMouseEvent@app@cinder@@@Z@boost@@@signals2@boost@@Vmutex@45@@detail@signals2@boost@@@boost@@@std@@@std@@@2@V?$group_key_less@HU?$less@H@std@@@detail@signals2@boost@@V?$allocator@U?$pair@$$CBU?$pair@W4slot_meta_group@detail@signals2@boost@@V?$optional@H@4@@std@@V?$_List_iterator@V?$_List_val@U?$_List_simple_types@V?$shared_ptr@V?$connection_body@U?$pair@W4slot_meta_group@detail@signals2@boost@@V?$optional@H@4@@std@@V?$slot1@XAAVMouseEvent@app@cinder@@V?$function@$$A6AXAAVMouseEvent@app@cinder@@@Z@boost@@@signals2@boost@@Vmutex@45@@detail@signals2@boost@@@boost@@@std@@@std@@@2@@std@@@2@$0A@@std@@@std@@QAE?AV?$_Tree_iterator@V?$_Tree_val@U?$_Tree_simple_types@U?$pair@$$CBU?$pair@W4slot_meta_group@detail@signals2@boost@@V?$optional@H@4@@std@@V?$_List_iterator@V?$_List_val@U?$_List_simple_types@V?$shared_ptr@V?$connection_body@U?$pair@W4slot_meta_group@detail@signals2@boost@@V?$optional@H@4@@std@@V?$slot1@XAAVMouseEvent@app@cinder@@V?$function@$$A6AXAAVMouseEvent@app@cinder@@@Z@boost@@@signals2@boost@@Vmutex@45@@detail@signals2@boost@@@boost@@@std@@@std@@@2@@std@@@std@@@std@@@2@V?$_Tree_const_iterator@V?$_Tree_val@U?$_Tree_simple_types@U?$pair@$$CBU?$pair@W4slot_meta_group@detail@signals2@boost@@V?$optional@H@4@@std@@V?$_List_iterator@V?$_List_val@U?$_List_simple_types@V?$shared_ptr@V?$connection_body@U?$pair@W4slot_meta_group@detail@signals2@boost@@V?$optional@H@4@@std@@V?$slot1@XAAVMouseEvent@app@cinder@@V?$function@$$A6AXAAVMouseEvent@app@cinder@@@Z@boost@@@signals2@boost@@Vmutex@45@@detail@signals2@boost@@@boost@@@std@@@std@@@2@@std@@@std@@@std@@@2@0@Z 00410c90 f i cinder:Window.obj
 0001:0000fd30       ?erase@?$_Tree@V?$_Tmap_traits@U?$pair@W4slot_meta_group@detail@signals2@boost@@V?$optional@H@4@@std@@V?$_List_iterator@V?$_List_val@U?$_List_simple_types@V?$shared_ptr@V?$connection_body@U?$pair@W4slot_meta_group@detail@signals2@boost@@V?$optional@H@4@@std@@V?$slot1@XAAVTouchEvent@app@cinder@@V?$function@$$A6AXAAVTouchEvent@app@cinder@@@Z@boost@@@signals2@boost@@Vmutex@45@@detail@signals2@boost@@@boost@@@std@@@std@@@2@V?$group_key_less@HU?$less@H@std@@@detail@signals2@boost@@V?$allocator@U?$pair@$$CBU?$pair@W4slot_meta_group@detail@signals2@boost@@V?$optional@H@4@@std@@V?$_List_iterator@V?$_List_val@U?$_List_simple_types@V?$shared_ptr@V?$connection_body@U?$pair@W4slot_meta_group@detail@signals2@boost@@V?$optional@H@4@@std@@V?$slot1@XAAVTouchEvent@app@cinder@@V?$function@$$A6AXAAVTouchEvent@app@cinder@@@Z@boost@@@signals2@boost@@Vmutex@45@@detail@signals2@boost@@@boost@@@std@@@std@@@2@@std@@@2@$0A@@std@@@std@@QAE?AV?$_Tree_iterator@V?$_Tree_val@U?$_Tree_simple_types@U?$pair@$$CBU?$pair@W4slot_meta_group@detail@signals2@boost@@V?$optional@H@4@@std@@V?$_List_iterator@V?$_List_val@U?$_List_simple_types@V?$shared_ptr@V?$connection_body@U?$pair@W4slot_meta_group@detail@signals2@boost@@V?$optional@H@4@@std@@V?$slot1@XAAVTouchEvent@app@cinder@@V?$function@$$A6AXAAVTouchEvent@app@cinder@@@Z@boost@@@signals2@boost@@Vmutex@45@@detail@signals2@boost@@@boost@@@std@@@std@@@2@@std@@@std@@@std@@@2@V?$_Tree_const_iterator@V?$_Tree_val@U?$_Tree_simple_types@U?$pair@$$CBU?$pair@W4slot_meta_group@detail@signals2@boost@@V?$optional@H@4@@std@@V?$_List_iterator@V?$_List_val@U?$_List_simple_types@V?$shared_ptr@V?$connection_body@U?$pair@W4slot_meta_group@detail@signals2@boost@@V?$optional@H@4@@std@@V?$slot1@XAAVTouchEvent@app@cinder@@V?$function@$$A6AXAAVTouchEvent@app@cinder@@@Z@boost@@@signals2@boost@@Vmutex@45@@detail@signals2@boost@@@boost@@@std@@@std@@@2@@std@@@std@@@std@@@2@@Z 00410d30 f i cinder:Window.obj
 0001:0000fd30       ?erase@?$_Tree@V?$_Tmap_traits@U?$pair@W4slot_meta_group@detail@signals2@boost@@V?$optional@H@4@@std@@V?$_List_iterator@V?$_List_val@U?$_List_simple_types@V?$shared_ptr@V?$connection_body@U?$pair@W4slot_meta_group@detail@signals2@boost@@V?$optional@H@4@@std@@V?$slot0@_NV?$function@$$A6A_NXZ@boost@@@signals2@boost@@Vmutex@45@@detail@signals2@boost@@@boost@@@std@@@std@@@2@V?$group_key_less@HU?$less@H@std@@@detail@signals2@boost@@V?$allocator@U?$pair@$$CBU?$pair@W4slot_meta_group@detail@signals2@boost@@V?$optional@H@4@@std@@V?$_List_iterator@V?$_List_val@U?$_List_simple_types@V?$shared_ptr@V?$connection_body@U?$pair@W4slot_meta_group@detail@signals2@boost@@V?$optional@H@4@@std@@V?$slot0@_NV?$function@$$A6A_NXZ@boost@@@signals2@boost@@Vmutex@45@@detail@signals2@boost@@@boost@@@std@@@std@@@2@@std@@@2@$0A@@std@@@std@@QAE?AV?$_Tree_iterator@V?$_Tree_val@U?$_Tree_simple_types@U?$pair@$$CBU?$pair@W4slot_meta_group@detail@signals2@boost@@V?$optional@H@4@@std@@V?$_List_iterator@V?$_List_val@U?$_List_simple_types@V?$shared_ptr@V?$connection_body@U?$pair@W4slot_meta_group@detail@signals2@boost@@V?$optional@H@4@@std@@V?$slot0@_NV?$function@$$A6A_NXZ@boost@@@signals2@boost@@Vmutex@45@@detail@signals2@boost@@@boost@@@std@@@std@@@2@@std@@@std@@@std@@@2@V?$_Tree_const_iterator@V?$_Tree_val@U?$_Tree_simple_types@U?$pair@$$CBU?$pair@W4slot_meta_group@detail@signals2@boost@@V?$optional@H@4@@std@@V?$_List_iterator@V?$_List_val@U?$_List_simple_types@V?$shared_ptr@V?$connection_body@U?$pair@W4slot_meta_group@detail@signals2@boost@@V?$optional@H@4@@std@@V?$slot0@_NV?$function@$$A6A_NXZ@boost@@@signals2@boost@@Vmutex@45@@detail@signals2@boost@@@boost@@@std@@@std@@@2@@std@@@std@@@std@@@2@@Z 00410d30 f i cinder:AppBasic.obj
 0001:0000fd30       ?erase@?$_Tree@V?$_Tmap_traits@U?$pair@W4slot_meta_group@detail@signals2@boost@@V?$optional@H@4@@std@@V?$_List_iterator@V?$_List_val@U?$_List_simple_types@V?$shared_ptr@V?$connection_body@U?$pair@W4slot_meta_group@detail@signals2@boost@@V?$optional@H@4@@std@@V?$slot0@XV?$function@$$A6AXXZ@boost@@@signals2@boost@@Vmutex@45@@detail@signals2@boost@@@boost@@@std@@@std@@@2@V?$group_key_less@HU?$less@H@std@@@detail@signals2@boost@@V?$allocator@U?$pair@$$CBU?$pair@W4slot_meta_group@detail@signals2@boost@@V?$optional@H@4@@std@@V?$_List_iterator@V?$_List_val@U?$_List_simple_types@V?$shared_ptr@V?$connection_body@U?$pair@W4slot_meta_group@detail@signals2@boost@@V?$optional@H@4@@std@@V?$slot0@XV?$function@$$A6AXXZ@boost@@@signals2@boost@@Vmutex@45@@detail@signals2@boost@@@boost@@@std@@@std@@@2@@std@@@2@$0A@@std@@@std@@QAE?AV?$_Tree_iterator@V?$_Tree_val@U?$_Tree_simple_types@U?$pair@$$CBU?$pair@W4slot_meta_group@detail@signals2@boost@@V?$optional@H@4@@std@@V?$_List_iterator@V?$_List_val@U?$_List_simple_types@V?$shared_ptr@V?$connection_body@U?$pair@W4slot_meta_group@detail@signals2@boost@@V?$optional@H@4@@std@@V?$slot0@XV?$function@$$A6AXXZ@boost@@@signals2@boost@@Vmutex@45@@detail@signals2@boost@@@boost@@@std@@@std@@@2@@std@@@std@@@std@@@2@V?$_Tree_const_iterator@V?$_Tree_val@U?$_Tree_simple_types@U?$pair@$$CBU?$pair@W4slot_meta_group@detail@signals2@boost@@V?$optional@H@4@@std@@V?$_List_iterator@V?$_List_val@U?$_List_simple_types@V?$shared_ptr@V?$connection_body@U?$pair@W4slot_meta_group@detail@signals2@boost@@V?$optional@H@4@@std@@V?$slot0@XV?$function@$$A6AXXZ@boost@@@signals2@boost@@Vmutex@45@@detail@signals2@boost@@@boost@@@std@@@std@@@2@@std@@@std@@@std@@@2@@Z 00410d30 f i cinder:Window.obj
 0001:0000fd30       ?erase@?$_Tree@V?$_Tmap_traits@U?$pair@W4slot_meta_group@detail@signals2@boost@@V?$optional@H@4@@std@@V?$_List_iterator@V?$_List_val@U?$_List_simple_types@V?$shared_ptr@V?$connection_body@U?$pair@W4slot_meta_group@detail@signals2@boost@@V?$optional@H@4@@std@@V?$slot1@XAAVFileDropEvent@app@cinder@@V?$function@$$A6AXAAVFileDropEvent@app@cinder@@@Z@boost@@@signals2@boost@@Vmutex@45@@detail@signals2@boost@@@boost@@@std@@@std@@@2@V?$group_key_less@HU?$less@H@std@@@detail@signals2@boost@@V?$allocator@U?$pair@$$CBU?$pair@W4slot_meta_group@detail@signals2@boost@@V?$optional@H@4@@std@@V?$_List_iterator@V?$_List_val@U?$_List_simple_types@V?$shared_ptr@V?$connection_body@U?$pair@W4slot_meta_group@detail@signals2@boost@@V?$optional@H@4@@std@@V?$slot1@XAAVFileDropEvent@app@cinder@@V?$function@$$A6AXAAVFileDropEvent@app@cinder@@@Z@boost@@@signals2@boost@@Vmutex@45@@detail@signals2@boost@@@boost@@@std@@@std@@@2@@std@@@2@$0A@@std@@@std@@QAE?AV?$_Tree_iterator@V?$_Tree_val@U?$_Tree_simple_types@U?$pair@$$CBU?$pair@W4slot_meta_group@detail@signals2@boost@@V?$optional@H@4@@std@@V?$_List_iterator@V?$_List_val@U?$_List_simple_types@V?$shared_ptr@V?$connection_body@U?$pair@W4slot_meta_group@detail@signals2@boost@@V?$optional@H@4@@std@@V?$slot1@XAAVFileDropEvent@app@cinder@@V?$function@$$A6AXAAVFileDropEvent@app@cinder@@@Z@boost@@@signals2@boost@@Vmutex@45@@detail@signals2@boost@@@boost@@@std@@@std@@@2@@std@@@std@@@std@@@2@V?$_Tree_const_iterator@V?$_Tree_val@U?$_Tree_simple_types@U?$pair@$$CBU?$pair@W4slot_meta_group@detail@signals2@boost@@V?$optional@H@4@@std@@V?$_List_iterator@V?$_List_val@U?$_List_simple_types@V?$shared_ptr@V?$connection_body@U?$pair@W4slot_meta_group@detail@signals2@boost@@V?$optional@H@4@@std@@V?$slot1@XAAVFileDropEvent@app@cinder@@V?$function@$$A6AXAAVFileDropEvent@app@cinder@@@Z@boost@@@signals2@boost@@Vmutex@45@@detail@signals2@boost@@@boost@@@std@@@std@@@2@@std@@@std@@@std@@@2@@Z 00410d30 f i cinder:Window.obj
 0001:0000fd30       ?erase@?$_Tree@V?$_Tmap_traits@U?$pair@W4slot_meta_group@detail@signals2@boost@@V?$optional@H@4@@std@@V?$_List_iterator@V?$_List_val@U?$_List_simple_types@V?$shared_ptr@V?$connection_body@U?$pair@W4slot_meta_group@detail@signals2@boost@@V?$optional@H@4@@std@@V?$slot1@XAAVKeyEvent@app@cinder@@V?$function@$$A6AXAAVKeyEvent@app@cinder@@@Z@boost@@@signals2@boost@@Vmutex@45@@detail@signals2@boost@@@boost@@@std@@@std@@@2@V?$group_key_less@HU?$less@H@std@@@detail@signals2@boost@@V?$allocator@U?$pair@$$CBU?$pair@W4slot_meta_group@detail@signals2@boost@@V?$optional@H@4@@std@@V?$_List_iterator@V?$_List_val@U?$_List_simple_types@V?$shared_ptr@V?$connection_body@U?$pair@W4slot_meta_group@detail@signals2@boost@@V?$optional@H@4@@std@@V?$slot1@XAAVKeyEvent@app@cinder@@V?$function@$$A6AXAAVKeyEvent@app@cinder@@@Z@boost@@@signals2@boost@@Vmutex@45@@detail@signals2@boost@@@boost@@@std@@@std@@@2@@std@@@2@$0A@@std@@@std@@QAE?AV?$_Tree_iterator@V?$_Tree_val@U?$_Tree_simple_types@U?$pair@$$CBU?$pair@W4slot_meta_group@detail@signals2@boost@@V?$optional@H@4@@std@@V?$_List_iterator@V?$_List_val@U?$_List_simple_types@V?$shared_ptr@V?$connection_body@U?$pair@W4slot_meta_group@detail@signals2@boost@@V?$optional@H@4@@std@@V?$slot1@XAAVKeyEvent@app@cinder@@V?$function@$$A6AXAAVKeyEvent@app@cinder@@@Z@boost@@@signals2@boost@@Vmutex@45@@detail@signals2@boost@@@boost@@@std@@@std@@@2@@std@@@std@@@std@@@2@V?$_Tree_const_iterator@V?$_Tree_val@U?$_Tree_simple_types@U?$pair@$$CBU?$pair@W4slot_meta_group@detail@signals2@boost@@V?$optional@H@4@@std@@V?$_List_iterator@V?$_List_val@U?$_List_simple_types@V?$shared_ptr@V?$connection_body@U?$pair@W4slot_meta_group@detail@signals2@boost@@V?$optional@H@4@@std@@V?$slot1@XAAVKeyEvent@app@cinder@@V?$function@$$A6AXAAVKeyEvent@app@cinder@@@Z@boost@@@signals2@boost@@Vmutex@45@@detail@signals2@boost@@@boost@@@std@@@std@@@2@@std@@@std@@@std@@@2@@Z 00410d30 f i cinder:Window.obj
 0001:0000fd30       ?erase@?$_Tree@V?$_Tmap_traits@U?$pair@W4slot_meta_group@detail@signals2@boost@@V?$optional@H@4@@std@@V?$_List_iterator@V?$_List_val@U?$_List_simple_types@V?$shared_ptr@V?$connection_body@U?$pair@W4slot_meta_group@detail@signals2@boost@@V?$optional@H@4@@std@@V?$slot1@XAAVMouseEvent@app@cinder@@V?$function@$$A6AXAAVMouseEvent@app@cinder@@@Z@boost@@@signals2@boost@@Vmutex@45@@detail@signals2@boost@@@boost@@@std@@@std@@@2@V?$group_key_less@HU?$less@H@std@@@detail@signals2@boost@@V?$allocator@U?$pair@$$CBU?$pair@W4slot_meta_group@detail@signals2@boost@@V?$optional@H@4@@std@@V?$_List_iterator@V?$_List_val@U?$_List_simple_types@V?$shared_ptr@V?$connection_body@U?$pair@W4slot_meta_group@detail@signals2@boost@@V?$optional@H@4@@std@@V?$slot1@XAAVMouseEvent@app@cinder@@V?$function@$$A6AXAAVMouseEvent@app@cinder@@@Z@boost@@@signals2@boost@@Vmutex@45@@detail@signals2@boost@@@boost@@@std@@@std@@@2@@std@@@2@$0A@@std@@@std@@QAE?AV?$_Tree_iterator@V?$_Tree_val@U?$_Tree_simple_types@U?$pair@$$CBU?$pair@W4slot_meta_group@detail@signals2@boost@@V?$optional@H@4@@std@@V?$_List_iterator@V?$_List_val@U?$_List_simple_types@V?$shared_ptr@V?$connection_body@U?$pair@W4slot_meta_group@detail@signals2@boost@@V?$optional@H@4@@std@@V?$slot1@XAAVMouseEvent@app@cinder@@V?$function@$$A6AXAAVMouseEvent@app@cinder@@@Z@boost@@@signals2@boost@@Vmutex@45@@detail@signals2@boost@@@boost@@@std@@@std@@@2@@std@@@std@@@std@@@2@V?$_Tree_const_iterator@V?$_Tree_val@U?$_Tree_simple_types@U?$pair@$$CBU?$pair@W4slot_meta_group@detail@signals2@boost@@V?$optional@H@4@@std@@V?$_List_iterator@V?$_List_val@U?$_List_simple_types@V?$shared_ptr@V?$connection_body@U?$pair@W4slot_meta_group@detail@signals2@boost@@V?$optional@H@4@@std@@V?$slot1@XAAVMouseEvent@app@cinder@@V?$function@$$A6AXAAVMouseEvent@app@cinder@@@Z@boost@@@signals2@boost@@Vmutex@45@@detail@signals2@boost@@@boost@@@std@@@std@@@2@@std@@@std@@@std@@@2@@Z 00410d30 f i cinder:Window.obj
 0001:0000ffd0       ?erase@?$basic_string@_WU?$char_traits@_W@std@@V?$allocator@_W@2@@std@@QAEAAV12@I@Z 00410fd0 f i cinder:Window.obj
 0001:00010010       ?erase@?$basic_string@_WU?$char_traits@_W@std@@V?$allocator@_W@2@@std@@QAEAAV12@II@Z 00411010 f i cinder:Window.obj
 0001:000100c0       ?erase@?$list@V?$shared_ptr@V?$connection_body@U?$pair@W4slot_meta_group@detail@signals2@boost@@V?$optional@H@4@@std@@V?$slot0@XV?$function@$$A6AXXZ@boost@@@signals2@boost@@Vmutex@45@@detail@signals2@boost@@@boost@@V?$allocator@V?$shared_ptr@V?$connection_body@U?$pair@W4slot_meta_group@detail@signals2@boost@@V?$optional@H@4@@std@@V?$slot0@XV?$function@$$A6AXXZ@boost@@@signals2@boost@@Vmutex@45@@detail@signals2@boost@@@boost@@@std@@@std@@QAE?AV?$_List_iterator@V?$_List_val@U?$_List_simple_types@V?$shared_ptr@V?$connection_body@U?$pair@W4slot_meta_group@detail@signals2@boost@@V?$optional@H@4@@std@@V?$slot0@XV?$function@$$A6AXXZ@boost@@@signals2@boost@@Vmutex@45@@detail@signals2@boost@@@boost@@@std@@@std@@@2@V?$_List_const_iterator@V?$_List_val@U?$_List_simple_types@V?$shared_ptr@V?$connection_body@U?$pair@W4slot_meta_group@detail@signals2@boost@@V?$optional@H@4@@std@@V?$slot0@XV?$function@$$A6AXXZ@boost@@@signals2@boost@@Vmutex@45@@detail@signals2@boost@@@boost@@@std@@@std@@@2@@Z 004110c0 f i cinder:Window.obj
 0001:000100c0       ?erase@?$list@V?$shared_ptr@V?$connection_body@U?$pair@W4slot_meta_group@detail@signals2@boost@@V?$optional@H@4@@std@@V?$slot1@XAAVFileDropEvent@app@cinder@@V?$function@$$A6AXAAVFileDropEvent@app@cinder@@@Z@boost@@@signals2@boost@@Vmutex@45@@detail@signals2@boost@@@boost@@V?$allocator@V?$shared_ptr@V?$connection_body@U?$pair@W4slot_meta_group@detail@signals2@boost@@V?$optional@H@4@@std@@V?$slot1@XAAVFileDropEvent@app@cinder@@V?$function@$$A6AXAAVFileDropEvent@app@cinder@@@Z@boost@@@signals2@boost@@Vmutex@45@@detail@signals2@boost@@@boost@@@std@@@std@@QAE?AV?$_List_iterator@V?$_List_val@U?$_List_simple_types@V?$shared_ptr@V?$connection_body@U?$pair@W4slot_meta_group@detail@signals2@boost@@V?$optional@H@4@@std@@V?$slot1@XAAVFileDropEvent@app@cinder@@V?$function@$$A6AXAAVFileDropEvent@app@cinder@@@Z@boost@@@signals2@boost@@Vmutex@45@@detail@signals2@boost@@@boost@@@std@@@std@@@2@V?$_List_const_iterator@V?$_List_val@U?$_List_simple_types@V?$shared_ptr@V?$connection_body@U?$pair@W4slot_meta_group@detail@signals2@boost@@V?$optional@H@4@@std@@V?$slot1@XAAVFileDropEvent@app@cinder@@V?$function@$$A6AXAAVFileDropEvent@app@cinder@@@Z@boost@@@signals2@boost@@Vmutex@45@@detail@signals2@boost@@@boost@@@std@@@std@@@2@@Z 004110c0 f i cinder:Window.obj
 0001:000100c0       ?erase@?$list@V?$shared_ptr@V?$connection_body@U?$pair@W4slot_meta_group@detail@signals2@boost@@V?$optional@H@4@@std@@V?$slot1@XAAVKeyEvent@app@cinder@@V?$function@$$A6AXAAVKeyEvent@app@cinder@@@Z@boost@@@signals2@boost@@Vmutex@45@@detail@signals2@boost@@@boost@@V?$allocator@V?$shared_ptr@V?$connection_body@U?$pair@W4slot_meta_group@detail@signals2@boost@@V?$optional@H@4@@std@@V?$slot1@XAAVKeyEvent@app@cinder@@V?$function@$$A6AXAAVKeyEvent@app@cinder@@@Z@boost@@@signals2@boost@@Vmutex@45@@detail@signals2@boost@@@boost@@@std@@@std@@QAE?AV?$_List_iterator@V?$_List_val@U?$_List_simple_types@V?$shared_ptr@V?$connection_body@U?$pair@W4slot_meta_group@detail@signals2@boost@@V?$optional@H@4@@std@@V?$slot1@XAAVKeyEvent@app@cinder@@V?$function@$$A6AXAAVKeyEvent@app@cinder@@@Z@boost@@@signals2@boost@@Vmutex@45@@detail@signals2@boost@@@boost@@@std@@@std@@@2@V?$_List_const_iterator@V?$_List_val@U?$_List_simple_types@V?$shared_ptr@V?$connection_body@U?$pair@W4slot_meta_group@detail@signals2@boost@@V?$optional@H@4@@std@@V?$slot1@XAAVKeyEvent@app@cinder@@V?$function@$$A6AXAAVKeyEvent@app@cinder@@@Z@boost@@@signals2@boost@@Vmutex@45@@detail@signals2@boost@@@boost@@@std@@@std@@@2@@Z 004110c0 f i cinder:Window.obj
 0001:000100c0       ?erase@?$list@V?$shared_ptr@V?$connection_body@U?$pair@W4slot_meta_group@detail@signals2@boost@@V?$optional@H@4@@std@@V?$slot1@XAAVMouseEvent@app@cinder@@V?$function@$$A6AXAAVMouseEvent@app@cinder@@@Z@boost@@@signals2@boost@@Vmutex@45@@detail@signals2@boost@@@boost@@V?$allocator@V?$shared_ptr@V?$connection_body@U?$pair@W4slot_meta_group@detail@signals2@boost@@V?$optional@H@4@@std@@V?$slot1@XAAVMouseEvent@app@cinder@@V?$function@$$A6AXAAVMouseEvent@app@cinder@@@Z@boost@@@signals2@boost@@Vmutex@45@@detail@signals2@boost@@@boost@@@std@@@std@@QAE?AV?$_List_iterator@V?$_List_val@U?$_List_simple_types@V?$shared_ptr@V?$connection_body@U?$pair@W4slot_meta_group@detail@signals2@boost@@V?$optional@H@4@@std@@V?$slot1@XAAVMouseEvent@app@cinder@@V?$function@$$A6AXAAVMouseEvent@app@cinder@@@Z@boost@@@signals2@boost@@Vmutex@45@@detail@signals2@boost@@@boost@@@std@@@std@@@2@V?$_List_const_iterator@V?$_List_val@U?$_List_simple_types@V?$shared_ptr@V?$connection_body@U?$pair@W4slot_meta_group@detail@signals2@boost@@V?$optional@H@4@@std@@V?$slot1@XAAVMouseEvent@app@cinder@@V?$function@$$A6AXAAVMouseEvent@app@cinder@@@Z@boost@@@signals2@boost@@Vmutex@45@@detail@signals2@boost@@@boost@@@std@@@std@@@2@@Z 004110c0 f i cinder:Window.obj
 0001:000100c0       ?erase@?$list@V?$shared_ptr@V?$connection_body@U?$pair@W4slot_meta_group@detail@signals2@boost@@V?$optional@H@4@@std@@V?$slot1@XAAVTouchEvent@app@cinder@@V?$function@$$A6AXAAVTouchEvent@app@cinder@@@Z@boost@@@signals2@boost@@Vmutex@45@@detail@signals2@boost@@@boost@@V?$allocator@V?$shared_ptr@V?$connection_body@U?$pair@W4slot_meta_group@detail@signals2@boost@@V?$optional@H@4@@std@@V?$slot1@XAAVTouchEvent@app@cinder@@V?$function@$$A6AXAAVTouchEvent@app@cinder@@@Z@boost@@@signals2@boost@@Vmutex@45@@detail@signals2@boost@@@boost@@@std@@@std@@QAE?AV?$_List_iterator@V?$_List_val@U?$_List_simple_types@V?$shared_ptr@V?$connection_body@U?$pair@W4slot_meta_group@detail@signals2@boost@@V?$optional@H@4@@std@@V?$slot1@XAAVTouchEvent@app@cinder@@V?$function@$$A6AXAAVTouchEvent@app@cinder@@@Z@boost@@@signals2@boost@@Vmutex@45@@detail@signals2@boost@@@boost@@@std@@@std@@@2@V?$_List_const_iterator@V?$_List_val@U?$_List_simple_types@V?$shared_ptr@V?$connection_body@U?$pair@W4slot_meta_group@detail@signals2@boost@@V?$optional@H@4@@std@@V?$slot1@XAAVTouchEvent@app@cinder@@V?$function@$$A6AXAAVTouchEvent@app@cinder@@@Z@boost@@@signals2@boost@@Vmutex@45@@detail@signals2@boost@@@boost@@@std@@@std@@@2@@Z 004110c0 f i cinder:Window.obj
 0001:00010140       ?expired@slot_base@signals2@boost@@QBE_NXZ 00411140 f i cinder:Window.obj
 0001:000101d0       ?force_cleanup_connections@?$signal0_impl@XV?$optional_last_value@X@signals2@boost@@HU?$less@H@std@@V?$function@$$A6AXXZ@3@V?$function@$$A6AXABVconnection@signals2@boost@@@Z@3@Vmutex@23@@detail@signals2@boost@@ABEXPBV?$grouped_list@HU?$less@H@std@@V?$shared_ptr@V?$connection_body@U?$pair@W4slot_meta_group@detail@signals2@boost@@V?$optional@H@4@@std@@V?$slot0@XV?$function@$$A6AXXZ@boost@@@signals2@boost@@Vmutex@45@@detail@signals2@boost@@@boost@@@234@@Z 004111d0 f i cinder:Window.obj
 0001:00010290       ?force_cleanup_connections@?$signal1_impl@XAAVFileDropEvent@app@cinder@@U?$EventCombiner@VFileDropEvent@app@cinder@@@23@HU?$less@H@std@@V?$function@$$A6AXAAVFileDropEvent@app@cinder@@@Z@boost@@V?$function@$$A6AXABVconnection@signals2@boost@@AAVFileDropEvent@app@cinder@@@Z@8@Vmutex@signals2@8@@detail@signals2@boost@@ABEXPBV?$grouped_list@HU?$less@H@std@@V?$shared_ptr@V?$connection_body@U?$pair@W4slot_meta_group@detail@signals2@boost@@V?$optional@H@4@@std@@V?$slot1@XAAVFileDropEvent@app@cinder@@V?$function@$$A6AXAAVFileDropEvent@app@cinder@@@Z@boost@@@signals2@boost@@Vmutex@45@@detail@signals2@boost@@@boost@@@234@@Z 00411290 f i cinder:Window.obj
 0001:00010350       ?force_cleanup_connections@?$signal1_impl@XAAVKeyEvent@app@cinder@@U?$EventCombiner@VKeyEvent@app@cinder@@@23@HU?$less@H@std@@V?$function@$$A6AXAAVKeyEvent@app@cinder@@@Z@boost@@V?$function@$$A6AXABVconnection@signals2@boost@@AAVKeyEvent@app@cinder@@@Z@8@Vmutex@signals2@8@@detail@signals2@boost@@ABEXPBV?$grouped_list@HU?$less@H@std@@V?$shared_ptr@V?$connection_body@U?$pair@W4slot_meta_group@detail@signals2@boost@@V?$optional@H@4@@std@@V?$slot1@XAAVKeyEvent@app@cinder@@V?$function@$$A6AXAAVKeyEvent@app@cinder@@@Z@boost@@@signals2@boost@@Vmutex@45@@detail@signals2@boost@@@boost@@@234@@Z 00411350 f i cinder:Window.obj
 0001:00010410       ?force_cleanup_connections@?$signal1_impl@XAAVMouseEvent@app@cinder@@U?$EventCombiner@VMouseEvent@app@cinder@@@23@HU?$less@H@std@@V?$function@$$A6AXAAVMouseEvent@app@cinder@@@Z@boost@@V?$function@$$A6AXABVconnection@signals2@boost@@AAVMouseEvent@app@cinder@@@Z@8@Vmutex@signals2@8@@detail@signals2@boost@@ABEXPBV?$grouped_list@HU?$less@H@std@@V?$shared_ptr@V?$connection_body@U?$pair@W4slot_meta_group@detail@signals2@boost@@V?$optional@H@4@@std@@V?$slot1@XAAVMouseEvent@app@cinder@@V?$function@$$A6AXAAVMouseEvent@app@cinder@@@Z@boost@@@signals2@boost@@Vmutex@45@@detail@signals2@boost@@@boost@@@234@@Z 00411410 f i cinder:Window.obj
 0001:000104d0       ?force_cleanup_connections@?$signal1_impl@XAAVTouchEvent@app@cinder@@U?$EventCombiner@VTouchEvent@app@cinder@@@23@HU?$less@H@std@@V?$function@$$A6AXAAVTouchEvent@app@cinder@@@Z@boost@@V?$function@$$A6AXABVconnection@signals2@boost@@AAVTouchEvent@app@cinder@@@Z@8@Vmutex@signals2@8@@detail@signals2@boost@@ABEXPBV?$grouped_list@HU?$less@H@std@@V?$shared_ptr@V?$connection_body@U?$pair@W4slot_meta_group@detail@signals2@boost@@V?$optional@H@4@@std@@V?$slot1@XAAVTouchEvent@app@cinder@@V?$function@$$A6AXAAVTouchEvent@app@cinder@@@Z@boost@@@signals2@boost@@Vmutex@45@@detail@signals2@boost@@@boost@@@234@@Z 004114d0 f i cinder:Window.obj
 0001:00010590       ?getContentScale@Window@app@cinder@@QBEMXZ 00411590 f   cinder:Window.obj
 0001:000105c0       ?getRenderer@Window@app@cinder@@QBE?AV?$shared_ptr@VRenderer@app@cinder@@@std@@XZ 004115c0 f   cinder:Window.obj
 0001:00010610       ?getSize@Window@app@cinder@@UBE?AV?$Vec2@H@3@XZ 00411610 f   cinder:Window.obj
 0001:00010660       ?get_untyped_deleter@?$sp_counted_impl_p@V?$clone_impl@Ubad_exception_@exception_detail@boost@@@exception_detail@boost@@@detail@boost@@UAEPAXXZ 00411660 f i libboost_thread-vc110-mt-s-1_53:thread.obj
 0001:00010660       ?get_untyped_deleter@?$sp_counted_impl_p@Vinvocation_state@?$signal1_impl@XAAVFileDropEvent@app@cinder@@U?$EventCombiner@VFileDropEvent@app@cinder@@@23@HU?$less@H@std@@V?$function@$$A6AXAAVFileDropEvent@app@cinder@@@Z@boost@@V?$function@$$A6AXABVconnection@signals2@boost@@AAVFileDropEvent@app@cinder@@@Z@8@Vmutex@signals2@8@@detail@signals2@boost@@@detail@boost@@UAEPAXXZ 00411660 f i cinder:Window.obj
 0001:00010660       ?do_encoding@windows_file_codecvt@@MBEHXZ 00411660 f i libboost_filesystem-vc110-mt-s-1_53:path.obj
 0001:00010660       ?get_untyped_deleter@?$sp_counted_impl_p@V?$signal1_impl@XAAVMouseEvent@app@cinder@@U?$EventCombiner@VMouseEvent@app@cinder@@@23@HU?$less@H@std@@V?$function@$$A6AXAAVMouseEvent@app@cinder@@@Z@boost@@V?$function@$$A6AXABVconnection@signals2@boost@@AAVMouseEvent@app@cinder@@@Z@8@Vmutex@signals2@8@@detail@signals2@boost@@@detail@boost@@UAEPAXXZ 00411660 f i cinder:AppImplMsw.obj
 0001:00010660       ?sync@?$basic_streambuf@DU?$char_traits@D@std@@@std@@MAEHXZ 00411660 f i cinder:App.obj
 0001:00010660       ?get_untyped_deleter@?$sp_counted_impl_p@V?$grouped_list@HU?$less@H@std@@V?$shared_ptr@V?$connection_body@U?$pair@W4slot_meta_group@detail@signals2@boost@@V?$optional@H@4@@std@@V?$slot1@XAAVFileDropEvent@app@cinder@@V?$function@$$A6AXAAVFileDropEvent@app@cinder@@@Z@boost@@@signals2@boost@@Vmutex@45@@detail@signals2@boost@@@boost@@@detail@signals2@boost@@@detail@boost@@UAEPAXXZ 00411660 f i cinder:Window.obj
 0001:00010660       ?get_untyped_deleter@?$sp_counted_impl_p@U?$EventCombiner@VMouseEvent@app@cinder@@@app@cinder@@@detail@boost@@UAEPAXXZ 00411660 f i cinder:Window.obj
 0001:00010660       ?get_untyped_deleter@?$sp_counted_impl_p@V?$signal1_impl@XAAVKeyEvent@app@cinder@@U?$EventCombiner@VKeyEvent@app@cinder@@@23@HU?$less@H@std@@V?$function@$$A6AXAAVKeyEvent@app@cinder@@@Z@boost@@V?$function@$$A6AXABVconnection@signals2@boost@@AAVKeyEvent@app@cinder@@@Z@8@Vmutex@signals2@8@@detail@signals2@boost@@@detail@boost@@UAEPAXXZ 00411660 f i cinder:AppImplMsw.obj
 0001:00010660       ?get_untyped_deleter@?$sp_counted_impl_p@UBooleanAndEventCombiner@app@cinder@@@detail@boost@@UAEPAXXZ 00411660 f i cinder:AppBasic.obj
 0001:00010660       ?get_untyped_deleter@?$sp_counted_impl_p@V?$signal1_impl@XAAVFileDropEvent@app@cinder@@U?$EventCombiner@VFileDropEvent@app@cinder@@@23@HU?$less@H@std@@V?$function@$$A6AXAAVFileDropEvent@app@cinder@@@Z@boost@@V?$function@$$A6AXABVconnection@signals2@boost@@AAVFileDropEvent@app@cinder@@@Z@8@Vmutex@signals2@8@@detail@signals2@boost@@@detail@boost@@UAEPAXXZ 00411660 f i cinder:AppImplMsw.obj
 0001:00010660       ?get_untyped_deleter@?$sp_counted_impl_p@V?$grouped_list@HU?$less@H@std@@V?$shared_ptr@V?$connection_body@U?$pair@W4slot_meta_group@detail@signals2@boost@@V?$optional@H@4@@std@@V?$slot1@XAAVMouseEvent@app@cinder@@V?$function@$$A6AXAAVMouseEvent@app@cinder@@@Z@boost@@@signals2@boost@@Vmutex@45@@detail@signals2@boost@@@boost@@@detail@signals2@boost@@@detail@boost@@UAEPAXXZ 00411660 f i cinder:Window.obj
 0001:00010660       ?get_untyped_deleter@?$sp_counted_impl_p@Vinvocation_state@?$signal0_impl@XV?$optional_last_value@X@signals2@boost@@HU?$less@H@std@@V?$function@$$A6AXXZ@3@V?$function@$$A6AXABVconnection@signals2@boost@@@Z@3@Vmutex@23@@detail@signals2@boost@@@detail@boost@@UAEPAXXZ 00411660 f i cinder:Window.obj
 0001:00010660       ?get_untyped_deleter@?$sp_counted_impl_p@V?$grouped_list@HU?$less@H@std@@V?$shared_ptr@V?$connection_body@U?$pair@W4slot_meta_group@detail@signals2@boost@@V?$optional@H@4@@std@@V?$slot1@XAAVTouchEvent@app@cinder@@V?$function@$$A6AXAAVTouchEvent@app@cinder@@@Z@boost@@@signals2@boost@@Vmutex@45@@detail@signals2@boost@@@boost@@@detail@signals2@boost@@@detail@boost@@UAEPAXXZ 00411660 f i cinder:Window.obj
 0001:00010660       ?getDc@Renderer@app@cinder@@UAEPAUHDC__@@XZ 00411660 f i cinder:Renderer.obj
 0001:00010660       ?get_untyped_deleter@?$sp_counted_impl_p@Vinvocation_state@?$signal0_impl@_NUBooleanAndEventCombiner@app@cinder@@HU?$less@H@std@@V?$function@$$A6A_NXZ@boost@@V?$function@$$A6A_NABVconnection@signals2@boost@@@Z@7@Vmutex@signals2@7@@detail@signals2@boost@@@detail@boost@@UAEPAXXZ 00411660 f i cinder:AppBasic.obj
 0001:00010660       ?get_untyped_deleter@?$sp_counted_impl_p@V?$grouped_list@HU?$less@H@std@@V?$shared_ptr@V?$connection_body@U?$pair@W4slot_meta_group@detail@signals2@boost@@V?$optional@H@4@@std@@V?$slot0@_NV?$function@$$A6A_NXZ@boost@@@signals2@boost@@Vmutex@45@@detail@signals2@boost@@@boost@@@detail@signals2@boost@@@detail@boost@@UAEPAXXZ 00411660 f i cinder:AppBasic.obj
 0001:00010660       ?get_untyped_deleter@?$sp_counted_impl_p@U?$EventCombiner@VTouchEvent@app@cinder@@@app@cinder@@@detail@boost@@UAEPAXXZ 00411660 f i cinder:Window.obj
 0001:00010660       ?get_untyped_deleter@?$sp_counted_impl_p@V?$clone_impl@Ubad_alloc_@exception_detail@boost@@@exception_detail@boost@@@detail@boost@@UAEPAXXZ 00411660 f i libboost_thread-vc110-mt-s-1_53:thread.obj
 0001:00010660       ?get_untyped_deleter@?$sp_counted_impl_p@V?$signal1_impl@XAAVTouchEvent@app@cinder@@U?$EventCombiner@VTouchEvent@app@cinder@@@23@HU?$less@H@std@@V?$function@$$A6AXAAVTouchEvent@app@cinder@@@Z@boost@@V?$function@$$A6AXABVconnection@signals2@boost@@AAVTouchEvent@app@cinder@@@Z@8@Vmutex@signals2@8@@detail@signals2@boost@@@detail@boost@@UAEPAXXZ 00411660 f i cinder:AppImplMsw.obj
 0001:00010660       ?get_untyped_deleter@?$sp_counted_impl_p@Vinvocation_state@?$signal1_impl@XAAVKeyEvent@app@cinder@@U?$EventCombiner@VKeyEvent@app@cinder@@@23@HU?$less@H@std@@V?$function@$$A6AXAAVKeyEvent@app@cinder@@@Z@boost@@V?$function@$$A6AXABVconnection@signals2@boost@@AAVKeyEvent@app@cinder@@@Z@8@Vmutex@signals2@8@@detail@signals2@boost@@@detail@boost@@UAEPAXXZ 00411660 f i cinder:Window.obj
 0001:00010660       ?do_max_length@windows_file_codecvt@@MBEHXZ 00411660 f i libboost_filesystem-vc110-mt-s-1_53:path.obj
 0001:00010660       ?get_untyped_deleter@?$sp_counted_impl_p@V?$optional_last_value@X@signals2@boost@@@detail@boost@@UAEPAXXZ 00411660 f i cinder:App.obj
 0001:00010660       ?get_untyped_deleter@?$sp_counted_impl_p@U?$EventCombiner@VFileDropEvent@app@cinder@@@app@cinder@@@detail@boost@@UAEPAXXZ 00411660 f i cinder:Window.obj
 0001:00010660       ?get_untyped_deleter@?$sp_counted_impl_p@V?$grouped_list@HU?$less@H@std@@V?$shared_ptr@V?$connection_body@U?$pair@W4slot_meta_group@detail@signals2@boost@@V?$optional@H@4@@std@@V?$slot1@XAAVKeyEvent@app@cinder@@V?$function@$$A6AXAAVKeyEvent@app@cinder@@@Z@boost@@@signals2@boost@@Vmutex@45@@detail@signals2@boost@@@boost@@@detail@signals2@boost@@@detail@boost@@UAEPAXXZ 00411660 f i cinder:Window.obj
 0001:00010660       ?get_untyped_deleter@?$sp_counted_impl_p@Vinvocation_state@?$signal1_impl@XAAVMouseEvent@app@cinder@@U?$EventCombiner@VMouseEvent@app@cinder@@@23@HU?$less@H@std@@V?$function@$$A6AXAAVMouseEvent@app@cinder@@@Z@boost@@V?$function@$$A6AXABVconnection@signals2@boost@@AAVMouseEvent@app@cinder@@@Z@8@Vmutex@signals2@8@@detail@signals2@boost@@@detail@boost@@UAEPAXXZ 00411660 f i cinder:Window.obj
 0001:00010660       ?get_untyped_deleter@?$sp_counted_impl_p@V?$signal0_impl@_NUBooleanAndEventCombiner@app@cinder@@HU?$less@H@std@@V?$function@$$A6A_NXZ@boost@@V?$function@$$A6A_NABVconnection@signals2@boost@@@Z@7@Vmutex@signals2@7@@detail@signals2@boost@@@detail@boost@@UAEPAXXZ 00411660 f i cinder:AppBasic.obj
 0001:00010660       ?get_untyped_deleter@?$sp_counted_impl_p@Vinvocation_state@?$signal1_impl@XAAVTouchEvent@app@cinder@@U?$EventCombiner@VTouchEvent@app@cinder@@@23@HU?$less@H@std@@V?$function@$$A6AXAAVTouchEvent@app@cinder@@@Z@boost@@V?$function@$$A6AXABVconnection@signals2@boost@@AAVTouchEvent@app@cinder@@@Z@8@Vmutex@signals2@8@@detail@signals2@boost@@@detail@boost@@UAEPAXXZ 00411660 f i cinder:Window.obj
 0001:00010660       ?get_untyped_deleter@?$sp_counted_impl_p@V?$signal0_impl@XV?$optional_last_value@X@signals2@boost@@HU?$less@H@std@@V?$function@$$A6AXXZ@3@V?$function@$$A6AXABVconnection@signals2@boost@@@Z@3@Vmutex@23@@detail@signals2@boost@@@detail@boost@@UAEPAXXZ 00411660 f i cinder:App.obj
 0001:00010660       ?get_untyped_deleter@?$sp_counted_impl_p@U?$EventCombiner@VKeyEvent@app@cinder@@@app@cinder@@@detail@boost@@UAEPAXXZ 00411660 f i cinder:Window.obj
 0001:00010660       ?get_untyped_deleter@?$sp_counted_impl_p@V?$grouped_list@HU?$less@H@std@@V?$shared_ptr@V?$connection_body@U?$pair@W4slot_meta_group@detail@signals2@boost@@V?$optional@H@4@@std@@V?$slot0@XV?$function@$$A6AXXZ@boost@@@signals2@boost@@Vmutex@45@@detail@signals2@boost@@@boost@@@detail@signals2@boost@@@detail@boost@@UAEPAXXZ 00411660 f i cinder:Window.obj
 0001:00010670       ?lock@?$weak_ptr@X@boost@@QBE?AV?$shared_ptr@X@2@XZ 00411670 f i cinder:Window.obj
 0001:000106a0       ?lock@foreign_void_weak_ptr@detail@signals2@boost@@QBE?AVforeign_void_shared_ptr@234@XZ 004116a0 f i cinder:Window.obj
 0001:000106c0       ?lock_next_callable@?$slot_call_iterator_t@Vslot_invoker@?$signal0_impl@XV?$optional_last_value@X@signals2@boost@@HU?$less@H@std@@V?$function@$$A6AXXZ@3@V?$function@$$A6AXABVconnection@signals2@boost@@@Z@3@Vmutex@23@@detail@signals2@boost@@V?$_List_iterator@V?$_List_val@U?$_List_simple_types@V?$shared_ptr@V?$connection_body@U?$pair@W4slot_meta_group@detail@signals2@boost@@V?$optional@H@4@@std@@V?$slot0@XV?$function@$$A6AXXZ@boost@@@signals2@boost@@Vmutex@45@@detail@signals2@boost@@@boost@@@std@@@std@@@std@@V?$connection_body@U?$pair@W4slot_meta_group@detail@signals2@boost@@V?$optional@H@4@@std@@V?$slot0@XV?$function@$$A6AXXZ@boost@@@signals2@boost@@Vmutex@45@@345@@detail@signals2@boost@@ABEXXZ 004116c0 f i cinder:Window.obj
 0001:000106c0       ?lock_next_callable@?$slot_call_iterator_t@Vslot_invoker@?$signal1_impl@XAAVKeyEvent@app@cinder@@U?$EventCombiner@VKeyEvent@app@cinder@@@23@HU?$less@H@std@@V?$function@$$A6AXAAVKeyEvent@app@cinder@@@Z@boost@@V?$function@$$A6AXABVconnection@signals2@boost@@AAVKeyEvent@app@cinder@@@Z@8@Vmutex@signals2@8@@detail@signals2@boost@@V?$_List_iterator@V?$_List_val@U?$_List_simple_types@V?$shared_ptr@V?$connection_body@U?$pair@W4slot_meta_group@detail@signals2@boost@@V?$optional@H@4@@std@@V?$slot1@XAAVKeyEvent@app@cinder@@V?$function@$$A6AXAAVKeyEvent@app@cinder@@@Z@boost@@@signals2@boost@@Vmutex@45@@detail@signals2@boost@@@boost@@@std@@@std@@@std@@V?$connection_body@U?$pair@W4slot_meta_group@detail@signals2@boost@@V?$optional@H@4@@std@@V?$slot1@XAAVKeyEvent@app@cinder@@V?$function@$$A6AXAAVKeyEvent@app@cinder@@@Z@boost@@@signals2@boost@@Vmutex@45@@345@@detail@signals2@boost@@ABEXXZ 004116c0 f i cinder:Window.obj
 0001:000106c0       ?lock_next_callable@?$slot_call_iterator_t@Vslot_invoker@?$signal1_impl@XAAVMouseEvent@app@cinder@@U?$EventCombiner@VMouseEvent@app@cinder@@@23@HU?$less@H@std@@V?$function@$$A6AXAAVMouseEvent@app@cinder@@@Z@boost@@V?$function@$$A6AXABVconnection@signals2@boost@@AAVMouseEvent@app@cinder@@@Z@8@Vmutex@signals2@8@@detail@signals2@boost@@V?$_List_iterator@V?$_List_val@U?$_List_simple_types@V?$shared_ptr@V?$connection_body@U?$pair@W4slot_meta_group@detail@signals2@boost@@V?$optional@H@4@@std@@V?$slot1@XAAVMouseEvent@app@cinder@@V?$function@$$A6AXAAVMouseEvent@app@cinder@@@Z@boost@@@signals2@boost@@Vmutex@45@@detail@signals2@boost@@@boost@@@std@@@std@@@std@@V?$connection_body@U?$pair@W4slot_meta_group@detail@signals2@boost@@V?$optional@H@4@@std@@V?$slot1@XAAVMouseEvent@app@cinder@@V?$function@$$A6AXAAVMouseEvent@app@cinder@@@Z@boost@@@signals2@boost@@Vmutex@45@@345@@detail@signals2@boost@@ABEXXZ 004116c0 f i cinder:Window.obj
 0001:000106c0       ?lock_next_callable@?$slot_call_iterator_t@Vslot_invoker@?$signal1_impl@XAAVTouchEvent@app@cinder@@U?$EventCombiner@VTouchEvent@app@cinder@@@23@HU?$less@H@std@@V?$function@$$A6AXAAVTouchEvent@app@cinder@@@Z@boost@@V?$function@$$A6AXABVconnection@signals2@boost@@AAVTouchEvent@app@cinder@@@Z@8@Vmutex@signals2@8@@detail@signals2@boost@@V?$_List_iterator@V?$_List_val@U?$_List_simple_types@V?$shared_ptr@V?$connection_body@U?$pair@W4slot_meta_group@detail@signals2@boost@@V?$optional@H@4@@std@@V?$slot1@XAAVTouchEvent@app@cinder@@V?$function@$$A6AXAAVTouchEvent@app@cinder@@@Z@boost@@@signals2@boost@@Vmutex@45@@detail@signals2@boost@@@boost@@@std@@@std@@@std@@V?$connection_body@U?$pair@W4slot_meta_group@detail@signals2@boost@@V?$optional@H@4@@std@@V?$slot1@XAAVTouchEvent@app@cinder@@V?$function@$$A6AXAAVTouchEvent@app@cinder@@@Z@boost@@@signals2@boost@@Vmutex@45@@345@@detail@signals2@boost@@ABEXXZ 004116c0 f i cinder:Window.obj
 0001:000106c0       ?lock_next_callable@?$slot_call_iterator_t@Vslot_invoker@?$signal1_impl@XAAVFileDropEvent@app@cinder@@U?$EventCombiner@VFileDropEvent@app@cinder@@@23@HU?$less@H@std@@V?$function@$$A6AXAAVFileDropEvent@app@cinder@@@Z@boost@@V?$function@$$A6AXABVconnection@signals2@boost@@AAVFileDropEvent@app@cinder@@@Z@8@Vmutex@signals2@8@@detail@signals2@boost@@V?$_List_iterator@V?$_List_val@U?$_List_simple_types@V?$shared_ptr@V?$connection_body@U?$pair@W4slot_meta_group@detail@signals2@boost@@V?$optional@H@4@@std@@V?$slot1@XAAVFileDropEvent@app@cinder@@V?$function@$$A6AXAAVFileDropEvent@app@cinder@@@Z@boost@@@signals2@boost@@Vmutex@45@@detail@signals2@boost@@@boost@@@std@@@std@@@std@@V?$connection_body@U?$pair@W4slot_meta_group@detail@signals2@boost@@V?$optional@H@4@@std@@V?$slot1@XAAVFileDropEvent@app@cinder@@V?$function@$$A6AXAAVFileDropEvent@app@cinder@@@Z@boost@@@signals2@boost@@Vmutex@45@@345@@detail@signals2@boost@@ABEXXZ 004116c0 f i cinder:Window.obj
 0001:000107e0       ?move@?$char_traits@_W@std@@SAPA_WPA_WPB_WI@Z 004117e0 f i cinder:Window.obj
 0001:00010800       ?move_to_new_buffer@?$auto_buffer@V?$variant@V?$shared_ptr@X@boost@@Vforeign_void_shared_ptr@detail@signals2@2@Uvoid_@042@U6042@U6042@U6042@U6042@U6042@U6042@U6042@U6042@U6042@U6042@U6042@U6042@U6042@U6042@U6042@U6042@U6042@@boost@@U?$store_n_objects@$09@detail@signals2@2@Udefault_grow_policy@452@V?$allocator@V?$variant@V?$shared_ptr@X@boost@@Vforeign_void_shared_ptr@detail@signals2@2@Uvoid_@042@U6042@U6042@U6042@U6042@U6042@U6042@U6042@U6042@U6042@U6042@U6042@U6042@U6042@U6042@U6042@U6042@U6042@@boost@@@std@@@detail@signals2@boost@@AAEPAV?$variant@V?$shared_ptr@X@boost@@Vforeign_void_shared_ptr@detail@signals2@2@Uvoid_@042@U6042@U6042@U6042@U6042@U6042@U6042@U6042@U6042@U6042@U6042@U6042@U6042@U6042@U6042@U6042@U6042@U6042@@4@IABU?$integral_constant@_N$0A@@4@@Z 00411800 f i cinder:Window.obj
 0001:000108c0       ?nolock_cleanup_connections_from@?$signal0_impl@XV?$optional_last_value@X@signals2@boost@@HU?$less@H@std@@V?$function@$$A6AXXZ@3@V?$function@$$A6AXABVconnection@signals2@boost@@@Z@3@Vmutex@23@@detail@signals2@boost@@ABEX_NABV?$_List_iterator@V?$_List_val@U?$_List_simple_types@V?$shared_ptr@V?$connection_body@U?$pair@W4slot_meta_group@detail@signals2@boost@@V?$optional@H@4@@std@@V?$slot0@XV?$function@$$A6AXXZ@boost@@@signals2@boost@@Vmutex@45@@detail@signals2@boost@@@boost@@@std@@@std@@@std@@I@Z 004118c0 f i cinder:Window.obj
 0001:000108c0       ?nolock_cleanup_connections_from@?$signal1_impl@XAAVTouchEvent@app@cinder@@U?$EventCombiner@VTouchEvent@app@cinder@@@23@HU?$less@H@std@@V?$function@$$A6AXAAVTouchEvent@app@cinder@@@Z@boost@@V?$function@$$A6AXABVconnection@signals2@boost@@AAVTouchEvent@app@cinder@@@Z@8@Vmutex@signals2@8@@detail@signals2@boost@@ABEX_NABV?$_List_iterator@V?$_List_val@U?$_List_simple_types@V?$shared_ptr@V?$connection_body@U?$pair@W4slot_meta_group@detail@signals2@boost@@V?$optional@H@4@@std@@V?$slot1@XAAVTouchEvent@app@cinder@@V?$function@$$A6AXAAVTouchEvent@app@cinder@@@Z@boost@@@signals2@boost@@Vmutex@45@@detail@signals2@boost@@@boost@@@std@@@std@@@std@@I@Z 004118c0 f i cinder:Window.obj
 0001:000108c0       ?nolock_cleanup_connections_from@?$signal1_impl@XAAVMouseEvent@app@cinder@@U?$EventCombiner@VMouseEvent@app@cinder@@@23@HU?$less@H@std@@V?$function@$$A6AXAAVMouseEvent@app@cinder@@@Z@boost@@V?$function@$$A6AXABVconnection@signals2@boost@@AAVMouseEvent@app@cinder@@@Z@8@Vmutex@signals2@8@@detail@signals2@boost@@ABEX_NABV?$_List_iterator@V?$_List_val@U?$_List_simple_types@V?$shared_ptr@V?$connection_body@U?$pair@W4slot_meta_group@detail@signals2@boost@@V?$optional@H@4@@std@@V?$slot1@XAAVMouseEvent@app@cinder@@V?$function@$$A6AXAAVMouseEvent@app@cinder@@@Z@boost@@@signals2@boost@@Vmutex@45@@detail@signals2@boost@@@boost@@@std@@@std@@@std@@I@Z 004118c0 f i cinder:Window.obj
 0001:000108c0       ?nolock_cleanup_connections_from@?$signal1_impl@XAAVFileDropEvent@app@cinder@@U?$EventCombiner@VFileDropEvent@app@cinder@@@23@HU?$less@H@std@@V?$function@$$A6AXAAVFileDropEvent@app@cinder@@@Z@boost@@V?$function@$$A6AXABVconnection@signals2@boost@@AAVFileDropEvent@app@cinder@@@Z@8@Vmutex@signals2@8@@detail@signals2@boost@@ABEX_NABV?$_List_iterator@V?$_List_val@U?$_List_simple_types@V?$shared_ptr@V?$connection_body@U?$pair@W4slot_meta_group@detail@signals2@boost@@V?$optional@H@4@@std@@V?$slot1@XAAVFileDropEvent@app@cinder@@V?$function@$$A6AXAAVFileDropEvent@app@cinder@@@Z@boost@@@signals2@boost@@Vmutex@45@@detail@signals2@boost@@@boost@@@std@@@std@@@std@@I@Z 004118c0 f i cinder:Window.obj
 0001:000108c0       ?nolock_cleanup_connections_from@?$signal1_impl@XAAVKeyEvent@app@cinder@@U?$EventCombiner@VKeyEvent@app@cinder@@@23@HU?$less@H@std@@V?$function@$$A6AXAAVKeyEvent@app@cinder@@@Z@boost@@V?$function@$$A6AXABVconnection@signals2@boost@@AAVKeyEvent@app@cinder@@@Z@8@Vmutex@signals2@8@@detail@signals2@boost@@ABEX_NABV?$_List_iterator@V?$_List_val@U?$_List_simple_types@V?$shared_ptr@V?$connection_body@U?$pair@W4slot_meta_group@detail@signals2@boost@@V?$optional@H@4@@std@@V?$slot1@XAAVKeyEvent@app@cinder@@V?$function@$$A6AXAAVKeyEvent@app@cinder@@@Z@boost@@@signals2@boost@@Vmutex@45@@detail@signals2@boost@@@boost@@@std@@@std@@@std@@I@Z 004118c0 f i cinder:Window.obj
 0001:00010a00       ?reserve@?$auto_buffer@V?$variant@V?$shared_ptr@X@boost@@Vforeign_void_shared_ptr@detail@signals2@2@Uvoid_@042@U6042@U6042@U6042@U6042@U6042@U6042@U6042@U6042@U6042@U6042@U6042@U6042@U6042@U6042@U6042@U6042@U6042@@boost@@U?$store_n_objects@$09@detail@signals2@2@Udefault_grow_policy@452@V?$allocator@V?$variant@V?$shared_ptr@X@boost@@Vforeign_void_shared_ptr@detail@signals2@2@Uvoid_@042@U6042@U6042@U6042@U6042@U6042@U6042@U6042@U6042@U6042@U6042@U6042@U6042@U6042@U6042@U6042@U6042@U6042@@boost@@@std@@@detail@signals2@boost@@QAEXI@Z 00411a00 f i cinder:Window.obj
 0001:00010a73       ?rethrow@?$clone_impl@U?$error_info_injector@Vbad_function_call@boost@@@exception_detail@boost@@@exception_detail@boost@@$0PPPPPPPM@A@BEXXZ 00411a73 f i cinder:Window.obj
 0001:00010a80       ?rethrow@?$clone_impl@U?$error_info_injector@Vbad_function_call@boost@@@exception_detail@boost@@@exception_detail@boost@@EBEXXZ 00411a80 f i cinder:Window.obj
 0001:00010b60       ?setPos@Window@app@cinder@@QBEXABV?$Vec2@H@3@@Z 00411b60 f   cinder:Window.obj
 0001:00010ba0       ?set_combiner@?$signal1_impl@XAAVFileDropEvent@app@cinder@@U?$EventCombiner@VFileDropEvent@app@cinder@@@23@HU?$less@H@std@@V?$function@$$A6AXAAVFileDropEvent@app@cinder@@@Z@boost@@V?$function@$$A6AXABVconnection@signals2@boost@@AAVFileDropEvent@app@cinder@@@Z@8@Vmutex@signals2@8@@detail@signals2@boost@@QAEXABU?$EventCombiner@VFileDropEvent@app@cinder@@@app@cinder@@@Z 00411ba0 f i cinder:Window.obj
 0001:00010c90       ?set_combiner@?$signal1_impl@XAAVKeyEvent@app@cinder@@U?$EventCombiner@VKeyEvent@app@cinder@@@23@HU?$less@H@std@@V?$function@$$A6AXAAVKeyEvent@app@cinder@@@Z@boost@@V?$function@$$A6AXABVconnection@signals2@boost@@AAVKeyEvent@app@cinder@@@Z@8@Vmutex@signals2@8@@detail@signals2@boost@@QAEXABU?$EventCombiner@VKeyEvent@app@cinder@@@app@cinder@@@Z 00411c90 f i cinder:Window.obj
 0001:00010d80       ?set_combiner@?$signal1_impl@XAAVMouseEvent@app@cinder@@U?$EventCombiner@VMouseEvent@app@cinder@@@23@HU?$less@H@std@@V?$function@$$A6AXAAVMouseEvent@app@cinder@@@Z@boost@@V?$function@$$A6AXABVconnection@signals2@boost@@AAVMouseEvent@app@cinder@@@Z@8@Vmutex@signals2@8@@detail@signals2@boost@@QAEXABU?$EventCombiner@VMouseEvent@app@cinder@@@app@cinder@@@Z 00411d80 f i cinder:Window.obj
 0001:00010e70       ?set_combiner@?$signal1_impl@XAAVTouchEvent@app@cinder@@U?$EventCombiner@VTouchEvent@app@cinder@@@23@HU?$less@H@std@@V?$function@$$A6AXAAVTouchEvent@app@cinder@@@Z@boost@@V?$function@$$A6AXABVconnection@signals2@boost@@AAVTouchEvent@app@cinder@@@Z@8@Vmutex@signals2@8@@detail@signals2@boost@@QAEXABU?$EventCombiner@VTouchEvent@app@cinder@@@app@cinder@@@Z 00411e70 f i cinder:Window.obj
 0001:00010f60       ?what@ExcInvalidWindow@app@cinder@@EBEPBDXZ 00411f60 f i cinder:Window.obj
 0001:00010f70       ??$?0$$BY00$$CBD@path@filesystem@boost@@QAE@AAY00$$CBDPAX@Z 00411f70 f i cinder:DataSource.obj
 0001:00010f70       ??$?0$$BY05$$CBD@path@filesystem@boost@@QAE@AAY05$$CBDPAX@Z 00411f70 f i cinder:App.obj
 0001:00011050       ??$?0V?$basic_string@DU?$char_traits@D@std@@V?$allocator@D@2@@std@@@path@filesystem@boost@@QAE@ABV?$basic_string@DU?$char_traits@D@std@@V?$allocator@D@2@@std@@PAX@Z 00412050 f i cinder:App.obj
 0001:000110e0       ??$?0V?$optional_last_value@X@signals2@boost@@@?$shared_ptr@V?$optional_last_value@X@signals2@boost@@@boost@@QAE@PAV?$optional_last_value@X@signals2@1@@Z 004120e0 f i cinder:App.obj
 0001:00011190       ??$?0V?$optional_last_value@X@signals2@boost@@@shared_count@detail@boost@@QAE@PAV?$optional_last_value@X@signals2@2@@Z 00412190 f i cinder:App.obj
 0001:00011230       ??$?0V?$signal0_impl@XV?$optional_last_value@X@signals2@boost@@HU?$less@H@std@@V?$function@$$A6AXXZ@3@V?$function@$$A6AXABVconnection@signals2@boost@@@Z@3@Vmutex@23@@detail@signals2@boost@@@?$shared_ptr@V?$signal0_impl@XV?$optional_last_value@X@signals2@boost@@HU?$less@H@std@@V?$function@$$A6AXXZ@3@V?$function@$$A6AXABVconnection@signals2@boost@@@Z@3@Vmutex@23@@detail@signals2@boost@@@boost@@QAE@PAV?$signal0_impl@XV?$optional_last_value@X@signals2@boost@@HU?$less@H@std@@V?$function@$$A6AXXZ@3@V?$function@$$A6AXABVconnection@signals2@boost@@@Z@3@Vmutex@23@@detail@signals2@1@@Z 00412230 f i cinder:App.obj
 0001:000112e0       ??$?0V?$signal0_impl@XV?$optional_last_value@X@signals2@boost@@HU?$less@H@std@@V?$function@$$A6AXXZ@3@V?$function@$$A6AXABVconnection@signals2@boost@@@Z@3@Vmutex@23@@detail@signals2@boost@@@shared_count@detail@boost@@QAE@PAV?$signal0_impl@XV?$optional_last_value@X@signals2@boost@@HU?$less@H@std@@V?$function@$$A6AXXZ@3@V?$function@$$A6AXABVconnection@signals2@boost@@@Z@3@Vmutex@23@@1signals2@2@@Z 004122e0 f i cinder:App.obj
 0001:00011380       ??$?0Vwin_iocp_io_service@detail@asio@boost@@I@service_registry@detail@asio@boost@@QAE@AAVio_service@23@PAVwin_iocp_io_service@123@I@Z 00412380 f i cinder:App.obj
 0001:00011440       ??$_Resetp@V?$basic_dostream@DU?$char_traits@D@std@@@msw@cinder@@@?$shared_ptr@V?$basic_dostream@DU?$char_traits@D@std@@@msw@cinder@@@std@@AAEXPAV?$basic_dostream@DU?$char_traits@D@std@@@msw@cinder@@@Z 00412440 f i cinder:App.obj
 0001:00011510       ??$_Resetp@Vio_service@asio@boost@@@?$shared_ptr@Vio_service@asio@boost@@@std@@AAEXPAVio_service@asio@boost@@@Z 00412510 f i cinder:App.obj
 0001:000115e0       ??$_Resetp@Vwork@io_service@asio@boost@@@?$shared_ptr@Vwork@io_service@asio@boost@@@std@@AAEXPAVwork@io_service@asio@boost@@@Z 004125e0 f i cinder:App.obj
 0001:000116c0       ??$_Uninit_move@PAUFormat@Window@app@cinder@@PAU1234@V?$allocator@UFormat@Window@app@cinder@@@std@@U1234@@std@@YAPAUFormat@Window@app@cinder@@PAU1234@00AAU?$_Wrap_alloc@V?$allocator@UFormat@Window@app@cinder@@@std@@@0@0U_Nonscalar_ptr_iterator_tag@0@@Z 004126c0 f i cinder:App.obj
 0001:00011760       ??$_Uninit_move@PAVpath@filesystem@boost@@PAV123@V?$allocator@Vpath@filesystem@boost@@@std@@V123@@std@@YAPAVpath@filesystem@boost@@PAV123@00AAU?$_Wrap_alloc@V?$allocator@Vpath@filesystem@boost@@@std@@@0@0U_Nonscalar_ptr_iterator_tag@0@@Z 00412760 f i cinder:App.obj
 0001:00011820       ??$enable_current_exception@U?$error_info_injector@Vsystem_error@system@boost@@@exception_detail@boost@@@boost@@YA?AV?$clone_impl@U?$error_info_injector@Vsystem_error@system@boost@@@exception_detail@boost@@@exception_detail@0@ABU?$error_info_injector@Vsystem_error@system@boost@@@20@@Z 00412820 f i cinder:App.obj
 0001:000118d0       ??$enable_error_info@Vsystem_error@system@boost@@@boost@@YA?AU?$error_info_injector@Vsystem_error@system@boost@@@exception_detail@0@ABVsystem_error@system@0@@Z 004128d0 f i cinder:App.obj
 0001:000118f0       ??$throw_exception@Vsystem_error@system@boost@@@boost@@YAXABVsystem_error@system@0@@Z 004128f0 f i cinder:App.obj
 0001:00011950       ??0?$basic_dostream@DU?$char_traits@D@std@@@msw@cinder@@QAE@XZ 00412950 f i cinder:App.obj
 0001:00011a40       ??0?$basic_ostream@DU?$char_traits@D@std@@@std@@QAE@PAV?$basic_streambuf@DU?$char_traits@D@std@@@1@_N@Z 00412a40 f i cinder:App.obj
 0001:00011ae0       ??0?$basic_streambuf@DU?$char_traits@D@std@@@std@@IAE@XZ 00412ae0 f i cinder:App.obj
 0001:00011b70       ??0?$basic_string@DU?$char_traits@D@std@@V?$allocator@D@2@@std@@QAE@$$QAV01@@Z 00412b70 f i cinder:App.obj
 0001:00011be0       ??0?$basic_string@DU?$char_traits@D@std@@V?$allocator@D@2@@std@@QAE@ABV01@@Z 00412be0 f i cinder:App.obj
 0001:00011c10       ??0?$clone_impl@U?$error_info_injector@Vsystem_error@system@boost@@@exception_detail@boost@@@exception_detail@boost@@AAE@ABV012@Uclone_tag@012@@Z 00412c10 f i cinder:App.obj
 0001:00011cd0       ??0?$clone_impl@U?$error_info_injector@Vsystem_error@system@boost@@@exception_detail@boost@@@exception_detail@boost@@QAE@ABV012@@Z 00412cd0 f i cinder:App.obj
 0001:00011d70       ??0?$error_info_injector@Vsystem_error@system@boost@@@exception_detail@boost@@QAE@ABU012@@Z 00412d70 f i cinder:App.obj
 0001:00011e30       ??0?$error_info_injector@Vsystem_error@system@boost@@@exception_detail@boost@@QAE@ABVsystem_error@system@2@@Z 00412e30 f i cinder:App.obj
 0001:00011ef0       ??0?$signal0_impl@XV?$optional_last_value@X@signals2@boost@@HU?$less@H@std@@V?$function@$$A6AXXZ@3@V?$function@$$A6AXABVconnection@signals2@boost@@@Z@3@Vmutex@23@@detail@signals2@boost@@QAE@ABV?$optional_last_value@X@23@ABU?$less@H@std@@@Z 00412ef0 f i cinder:App.obj
 0001:00012000       ??0App@app@cinder@@QAE@XZ  00413000 f   cinder:App.obj
 0001:000122b0       ??0Format@Window@app@cinder@@QAE@ABU0123@@Z 004132b0 f i cinder:App.obj
 0001:000123d0       ??0Format@Window@app@cinder@@QAE@V?$shared_ptr@VRenderer@app@cinder@@@std@@V?$shared_ptr@VDisplay@cinder@@@5@_NV?$Vec2@H@3@3@Z 004133d0 f i cinder:App.obj
 0001:00012560       ??0ResourceLoadExc@app@cinder@@QAE@HABV?$basic_string@DU?$char_traits@D@std@@V?$allocator@D@2@@std@@@Z 00413560 f   cinder:App.obj
 0001:000125a0       ??0Settings@App@app@cinder@@QAE@XZ 004135a0 f   cinder:App.obj
 0001:00012680       ??0invocation_state@?$signal0_impl@XV?$optional_last_value@X@signals2@boost@@HU?$less@H@std@@V?$function@$$A6AXXZ@3@V?$function@$$A6AXABVconnection@signals2@boost@@@Z@3@Vmutex@23@@detail@signals2@boost@@QAE@ABV?$grouped_list@HU?$less@H@std@@V?$shared_ptr@V?$connection_body@U?$pair@W4slot_meta_group@detail@signals2@boost@@V?$optional@H@4@@std@@V?$slot0@XV?$function@$$A6AXXZ@boost@@@signals2@boost@@Vmutex@45@@detail@signals2@boost@@@boost@@@234@ABV?$optional_last_value@X@34@@Z 00413680 f i cinder:App.obj
 0001:00012710       ??0io_service@asio@boost@@QAE@XZ 00413710 f i cinder:App.obj
 0001:00012800       ??0system_error@system@boost@@QAE@ABV012@@Z 00413800 f i cinder:App.obj
 0001:00012890       ??0win_iocp_io_service@detail@asio@boost@@QAE@AAVio_service@23@I@Z 00413890 f i cinder:App.obj
 0001:000129d0       ??1?$basic_ios@DU?$char_traits@D@std@@@std@@UAE@XZ 004139d0 f i cinder:App.obj
 0001:000129e0       ??1?$basic_ostream@DU?$char_traits@D@std@@@std@@UAE@XZ 004139e0 f i cinder:App.obj
 0001:00012a00       ??1?$basic_streambuf@DU?$char_traits@D@std@@@std@@UAE@XZ 00413a00 f i cinder:App.obj
 0001:00012a30       ??1?$basic_stringbuf@DU?$char_traits@D@std@@V?$allocator@D@2@@std@@UAE@XZ 00413a30 f i cinder:App.obj
 0001:00012a70       ??1?$error_info_injector@Vsystem_error@system@boost@@@exception_detail@boost@@UAE@XZ 00413a70 f i cinder:App.obj
 0001:00012ad0       ??1?$op_queue@Vwin_iocp_operation@detail@asio@boost@@@detail@asio@boost@@QAE@XZ 00413ad0 f i cinder:App.obj
 0001:00012b30       ??1?$scoped_lock@Vwin_mutex@detail@asio@boost@@@detail@asio@boost@@QAE@XZ 00413b30 f i cinder:App.obj
 0001:00012b40       ??1?$scoped_ptr@Vwin_thread@detail@asio@boost@@@detail@asio@boost@@QAE@XZ 00413b40 f i cinder:App.obj
 0001:00012b60       ??1?$service_base@Vwin_iocp_io_service@detail@asio@boost@@@detail@asio@boost@@UAE@XZ 00413b60 f i cinder:App.obj
 0001:00012b70       ??1?$signal@$$A6AXXZV?$optional_last_value@X@signals2@boost@@HU?$less@H@std@@V?$function@$$A6AXXZ@3@V?$function@$$A6AXABVconnection@signals2@boost@@@Z@3@Vmutex@23@@signals2@boost@@UAE@XZ 00413b70 f i cinder:App.obj
 0001:00012c00       ??1?$vector@UFormat@Window@app@cinder@@V?$allocator@UFormat@Window@app@cinder@@@std@@@std@@QAE@XZ 00413c00 f i cinder:App.obj
 0001:00012c00       ?_Tidy@?$vector@UFormat@Window@app@cinder@@V?$allocator@UFormat@Window@app@cinder@@@std@@@std@@IAEXXZ 00413c00 f i cinder:App.obj
 0001:00012c50       ??1?$vector@V?$basic_string@DU?$char_traits@D@std@@V?$allocator@D@2@@std@@V?$allocator@V?$basic_string@DU?$char_traits@D@std@@V?$allocator@D@2@@std@@@2@@std@@QAE@XZ 00413c50 f i cinder:App.obj
 0001:00012c90       ??1?$winsock_init@$01$0A@@detail@asio@boost@@QAE@XZ 00413c90 f i cinder:App.obj
 0001:00012cb0       ??1App@app@cinder@@UAE@XZ  00413cb0 f   cinder:App.obj
 0001:00012ee0       ??1Format@Window@app@cinder@@QAE@XZ 00413ee0 f i cinder:App.obj
 0001:00012f90       ??1Settings@App@app@cinder@@UAE@XZ 00413f90 f i cinder:App.obj
 0001:00013020       ??1auto_handle@win_iocp_io_service@detail@asio@boost@@QAE@XZ 00414020 f i cinder:App.obj
 0001:00013030       ??1context@?$call_stack@Vwin_iocp_io_service@detail@asio@boost@@Uwin_iocp_thread_info@234@@detail@asio@boost@@QAE@XZ 00414030 f i cinder:App.obj
 0001:00013040       ??1service_registry@detail@asio@boost@@QAE@XZ 00414040 f i cinder:App.obj
 0001:000130d0       ??1signal_base@signals2@boost@@UAE@XZ 004140d0 f i cinder:App.obj
 0001:000130e0       ??1win_iocp_thread_info@detail@asio@boost@@QAE@XZ 004140e0 f i cinder:App.obj
 0001:000130f0       ??1win_mutex@detail@asio@boost@@QAE@XZ 004140f0 f i cinder:App.obj
 0001:00013100       ??1work_finished_on_block_exit@win_iocp_io_service@detail@asio@boost@@QAE@XZ 00414100 f i cinder:App.obj
 0001:00013120       ??4?$basic_string@DU?$char_traits@D@std@@V?$allocator@D@2@@std@@QAEAAV01@PBD@Z 00414120 f i cinder:App.obj
 0001:00013160       ??_D?$basic_dostream@DU?$char_traits@D@std@@@msw@cinder@@QAEXXZ 00414160 f i cinder:App.obj
 0001:00013200       ??_D?$basic_ostream@DU?$char_traits@D@std@@@std@@QAEXXZ 00414200 f i cinder:App.obj
 0001:00013230       ??_D?$clone_impl@U?$error_info_injector@Vsystem_error@system@boost@@@exception_detail@boost@@@exception_detail@boost@@QAEXXZ 00414230 f i cinder:App.obj
 0001:00013269       ??_E?$basic_dostream@DU?$char_traits@D@std@@@msw@cinder@@$4PPPPPPPM@A@AEPAXI@Z 00414269 f i cinder:App.obj
 0001:00013271       ??_E?$basic_ostream@DU?$char_traits@D@std@@@std@@$4PPPPPPPM@A@AEPAXI@Z 00414271 f i cinder:App.obj
 0001:00013279       ??_E?$clone_impl@U?$error_info_injector@Vsystem_error@system@boost@@@exception_detail@boost@@@exception_detail@boost@@$4PPPPPPPM@EI@AEPAXI@Z 00414279 f i cinder:App.obj
 0001:00013284       ??_E?$clone_impl@U?$error_info_injector@Vsystem_error@system@boost@@@exception_detail@boost@@@exception_detail@boost@@WCM@AEPAXI@Z 00414284 f i cinder:App.obj
 0001:0001328c       ??_E?$error_info_injector@Vsystem_error@system@boost@@@exception_detail@boost@@WCM@AEPAXI@Z 0041428c f i cinder:App.obj
 0001:000132a0       ??_E?$basic_debugbuf@DU?$char_traits@D@std@@@msw@cinder@@UAEPAXI@Z 004142a0 f i cinder:App.obj
 0001:000132a0       ??_G?$basic_debugbuf@DU?$char_traits@D@std@@@msw@cinder@@UAEPAXI@Z 004142a0 f i cinder:App.obj
 0001:00013350       ??_E?$basic_dostream@DU?$char_traits@D@std@@@msw@cinder@@UAEPAXI@Z 00414350 f i cinder:App.obj
 0001:00013350       ??_G?$basic_dostream@DU?$char_traits@D@std@@@msw@cinder@@UAEPAXI@Z 00414350 f i cinder:App.obj
 0001:00013380       ??_G?$basic_ostream@DU?$char_traits@D@std@@@std@@UAEPAXI@Z 00414380 f i cinder:App.obj
 0001:00013380       ??_E?$basic_ostream@DU?$char_traits@D@std@@@std@@UAEPAXI@Z 00414380 f i cinder:App.obj
 0001:000133d0       ??_G?$basic_streambuf@DU?$char_traits@D@std@@@std@@UAEPAXI@Z 004143d0 f i cinder:App.obj
 0001:000133d0       ??_E?$basic_streambuf@DU?$char_traits@D@std@@@std@@UAEPAXI@Z 004143d0 f i cinder:App.obj
 0001:00013420       ??_E?$basic_stringbuf@DU?$char_traits@D@std@@V?$allocator@D@2@@std@@UAEPAXI@Z 00414420 f i cinder:App.obj
 0001:00013420       ??_G?$basic_stringbuf@DU?$char_traits@D@std@@V?$allocator@D@2@@std@@UAEPAXI@Z 00414420 f i cinder:App.obj
 0001:00013480       ??_E?$clone_impl@U?$error_info_injector@Vsystem_error@system@boost@@@exception_detail@boost@@@exception_detail@boost@@UAEPAXI@Z 00414480 f i cinder:App.obj
 0001:00013480       ??_G?$clone_impl@U?$error_info_injector@Vsystem_error@system@boost@@@exception_detail@boost@@@exception_detail@boost@@UAEPAXI@Z 00414480 f i cinder:App.obj
 0001:000134d0       ??_E?$error_info_injector@Vsystem_error@system@boost@@@exception_detail@boost@@UAEPAXI@Z 004144d0 f i cinder:App.obj
 0001:000134d0       ??_G?$error_info_injector@Vsystem_error@system@boost@@@exception_detail@boost@@UAEPAXI@Z 004144d0 f i cinder:App.obj
 0001:00013500       ??_E?$signal0@XV?$optional_last_value@X@signals2@boost@@HU?$less@H@std@@V?$function@$$A6AXXZ@3@V?$function@$$A6AXABVconnection@signals2@boost@@@Z@3@Vmutex@23@@signals2@boost@@UAEPAXI@Z 00414500 f i cinder:App.obj
 0001:00013500       ??_G?$signal@$$A6AXXZV?$optional_last_value@X@signals2@boost@@HU?$less@H@std@@V?$function@$$A6AXXZ@3@V?$function@$$A6AXABVconnection@signals2@boost@@@Z@3@Vmutex@23@@signals2@boost@@UAEPAXI@Z 00414500 f i cinder:App.obj
 0001:00013500       ??_E?$signal@$$A6AXXZV?$optional_last_value@X@signals2@boost@@HU?$less@H@std@@V?$function@$$A6AXXZ@3@V?$function@$$A6AXABVconnection@signals2@boost@@@Z@3@Vmutex@23@@signals2@boost@@UAEPAXI@Z 00414500 f i cinder:App.obj
 0001:00013500       ??_G?$signal0@XV?$optional_last_value@X@signals2@boost@@HU?$less@H@std@@V?$function@$$A6AXXZ@3@V?$function@$$A6AXABVconnection@signals2@boost@@@Z@3@Vmutex@23@@signals2@boost@@UAEPAXI@Z 00414500 f i cinder:App.obj
 0001:000135a0       ??_GApp@app@cinder@@UAEPAXI@Z 004145a0 f i cinder:App.obj
 0001:000135a0       ??_EApp@app@cinder@@UAEPAXI@Z 004145a0 f i cinder:App.obj
 0001:000135d0       ??_Gmisc_category@detail@error@asio@boost@@UAEPAXI@Z 004145d0 f i cinder:App.obj
 0001:000135d0       ??_Eerror_category@system@boost@@UAEPAXI@Z 004145d0 f i cinder:App.obj
 0001:000135d0       ??_Emisc_category@detail@error@asio@boost@@UAEPAXI@Z 004145d0 f i cinder:App.obj
 0001:000135d0       ??_Gerror_category@system@boost@@UAEPAXI@Z 004145d0 f i cinder:App.obj
 0001:00013600       ??_Gio_service@asio@boost@@QAEPAXI@Z 00414600 f i cinder:App.obj
 0001:00013690       ??_Eios_base@std@@UAEPAXI@Z 00414690 f i cinder:App.obj
 0001:00013690       ??_G?$basic_ios@DU?$char_traits@D@std@@@std@@UAEPAXI@Z 00414690 f i cinder:App.obj
 0001:00013690       ??_Gios_base@std@@UAEPAXI@Z 00414690 f i cinder:App.obj
 0001:00013690       ??_E?$basic_ios@DU?$char_traits@D@std@@@std@@UAEPAXI@Z 00414690 f i cinder:App.obj
 0001:000136c0       ??_Eservice@io_service@asio@boost@@MAEPAXI@Z 004146c0 f i cinder:App.obj
 0001:000136c0       ??_Gservice@io_service@asio@boost@@MAEPAXI@Z 004146c0 f i cinder:App.obj
 0001:000136f0       ??_Gsignal_base@signals2@boost@@UAEPAXI@Z 004146f0 f i cinder:App.obj
 0001:000136f0       ??_Esignal_base@signals2@boost@@UAEPAXI@Z 004146f0 f i cinder:App.obj
 0001:00013720       ??_Gsystem_error@system@boost@@UAEPAXI@Z 00414720 f i cinder:App.obj
 0001:00013720       ??_Esystem_error@system@boost@@UAEPAXI@Z 00414720 f i cinder:App.obj
 0001:00013770       ??_Ewin_iocp_io_service@detail@asio@boost@@UAEPAXI@Z 00414770 f i cinder:App.obj
 0001:00013770       ??_Gwin_iocp_io_service@detail@asio@boost@@UAEPAXI@Z 00414770 f i cinder:App.obj
 0001:0001380e       ?_Add_vtordisp2@?$basic_ostream@DU?$char_traits@D@std@@@std@@$4PPPPPPPM@7AEXXZ 0041480e f i cinder:App.obj
 0001:00013819       ?_Add_vtordisp2@?$basic_ostream@DU?$char_traits@D@std@@@std@@$4PPPPPPPM@A@AEXXZ 00414819 f i cinder:App.obj
 0001:00013830       ?_Destroy@?$_Ref_count@V?$basic_dostream@DU?$char_traits@D@std@@@msw@cinder@@@std@@EAEXXZ 00414830 f i cinder:App.obj
 0001:00013850       ?_Destroy@?$_Ref_count@Vio_service@asio@boost@@@std@@EAEXXZ 00414850 f i cinder:App.obj
 0001:000138d0       ?_Destroy@?$_Ref_count@Vwork@io_service@asio@boost@@@std@@EAEXXZ 004148d0 f i cinder:App.obj
 0001:00013900       ?_Destroy@?$vector@V?$basic_string@DU?$char_traits@D@std@@V?$allocator@D@2@@std@@V?$allocator@V?$basic_string@DU?$char_traits@D@std@@V?$allocator@D@2@@std@@@2@@std@@IAEXPAV?$basic_string@DU?$char_traits@D@std@@V?$allocator@D@2@@2@0@Z 00414900 f i cinder:App.obj
 0001:00013940       ?_Gnavail@?$basic_streambuf@DU?$char_traits@D@std@@@std@@IBE_JXZ 00414940 f i cinder:App.obj
 0001:00013960       ?_Init@?$basic_streambuf@DU?$char_traits@D@std@@@std@@IAEXXZ 00414960 f i cinder:App.obj
 0001:000139c0       ?_Init@?$basic_stringbuf@DU?$char_traits@D@std@@V?$allocator@D@2@@std@@IAEXPBDIH@Z 004149c0 f i cinder:App.obj
 0001:00013a80       ?_Init@ios_base@std@@IAEXXZ 00414a80 f i cinder:App.obj
 0001:00013b00       ?_Reallocate@?$vector@UFormat@Window@app@cinder@@V?$allocator@UFormat@Window@app@cinder@@@std@@@std@@IAEXI@Z 00414b00 f i cinder:App.obj
 0001:00013c10       ?_Reallocate@?$vector@Vpath@filesystem@boost@@V?$allocator@Vpath@filesystem@boost@@@std@@@std@@IAEXI@Z 00414c10 f i cinder:App.obj
 0001:00013d10       ?_Reserve@?$vector@UFormat@Window@app@cinder@@V?$allocator@UFormat@Window@app@cinder@@@std@@@std@@IAEXI@Z 00414d10 f i cinder:App.obj
 0001:00013dc0       ?_Reserve@?$vector@Vpath@filesystem@boost@@V?$allocator@Vpath@filesystem@boost@@@std@@@std@@IAEXI@Z 00414dc0 f i cinder:App.obj
 0001:00013e70       ?_Tidy@?$basic_stringbuf@DU?$char_traits@D@std@@V?$allocator@D@2@@std@@IAEXXZ 00414e70 f i cinder:App.obj
 0001:00013ed0       ?append@?$basic_string@DU?$char_traits@D@std@@V?$allocator@D@2@@std@@QAEAAV12@ABV12@II@Z 00414ed0 f i cinder:App.obj
 0001:00013fd0       ?append@?$basic_string@DU?$char_traits@D@std@@V?$allocator@D@2@@std@@QAEAAV12@PBDI@Z 00414fd0 f i cinder:App.obj
 0001:00014100       ?clear@ios_base@std@@QAEXH@Z 00415100 f i cinder:App.obj
 0001:00014189       ?clone@?$clone_impl@U?$error_info_injector@Vsystem_error@system@boost@@@exception_detail@boost@@@exception_detail@boost@@$0PPPPPPPM@A@BEPBVclone_base@23@XZ 00415189 f i cinder:App.obj
 0001:000141a0       ?clone@?$clone_impl@U?$error_info_injector@Vsystem_error@system@boost@@@exception_detail@boost@@@exception_detail@boost@@EBEPBVclone_base@23@XZ 004151a0 f i cinder:App.obj
 0001:00014230       ?console@App@app@cinder@@QAEAAV?$basic_ostream@DU?$char_traits@D@std@@@std@@XZ 00415230 f   cinder:App.obj
 0001:000142f0       ?create@Timeline@cinder@@SA?AV?$shared_ptr@VTimeline@cinder@@@std@@XZ 004152f0 f i cinder:App.obj
 0001:00014380       ?dispose@?$sp_counted_impl_p@V?$signal1_impl@XAAVFileDropEvent@app@cinder@@U?$EventCombiner@VFileDropEvent@app@cinder@@@23@HU?$less@H@std@@V?$function@$$A6AXAAVFileDropEvent@app@cinder@@@Z@boost@@V?$function@$$A6AXABVconnection@signals2@boost@@AAVFileDropEvent@app@cinder@@@Z@8@Vmutex@signals2@8@@detail@signals2@boost@@@detail@boost@@UAEXXZ 00415380 f i cinder:AppImplMsw.obj
 0001:00014380       ?dispose@?$sp_counted_impl_p@V?$signal0_impl@_NUBooleanAndEventCombiner@app@cinder@@HU?$less@H@std@@V?$function@$$A6A_NXZ@boost@@V?$function@$$A6A_NABVconnection@signals2@boost@@@Z@7@Vmutex@signals2@7@@detail@signals2@boost@@@detail@boost@@UAEXXZ 00415380 f i cinder:AppBasic.obj
 0001:00014380       ?dispose@?$sp_counted_impl_p@V?$signal1_impl@XAAVTouchEvent@app@cinder@@U?$EventCombiner@VTouchEvent@app@cinder@@@23@HU?$less@H@std@@V?$function@$$A6AXAAVTouchEvent@app@cinder@@@Z@boost@@V?$function@$$A6AXABVconnection@signals2@boost@@AAVTouchEvent@app@cinder@@@Z@8@Vmutex@signals2@8@@detail@signals2@boost@@@detail@boost@@UAEXXZ 00415380 f i cinder:AppImplMsw.obj
 0001:00014380       ?dispose@?$sp_counted_impl_p@V?$signal1_impl@XAAVMouseEvent@app@cinder@@U?$EventCombiner@VMouseEvent@app@cinder@@@23@HU?$less@H@std@@V?$function@$$A6AXAAVMouseEvent@app@cinder@@@Z@boost@@V?$function@$$A6AXABVconnection@signals2@boost@@AAVMouseEvent@app@cinder@@@Z@8@Vmutex@signals2@8@@detail@signals2@boost@@@detail@boost@@UAEXXZ 00415380 f i cinder:AppImplMsw.obj
 0001:00014380       ?dispose@?$sp_counted_impl_p@V?$signal0_impl@XV?$optional_last_value@X@signals2@boost@@HU?$less@H@std@@V?$function@$$A6AXXZ@3@V?$function@$$A6AXABVconnection@signals2@boost@@@Z@3@Vmutex@23@@detail@signals2@boost@@@detail@boost@@UAEXXZ 00415380 f i cinder:App.obj
 0001:00014380       ?dispose@?$sp_counted_impl_p@V?$signal1_impl@XAAVKeyEvent@app@cinder@@U?$EventCombiner@VKeyEvent@app@cinder@@@23@HU?$less@H@std@@V?$function@$$A6AXAAVKeyEvent@app@cinder@@@Z@boost@@V?$function@$$A6AXABVconnection@signals2@boost@@AAVKeyEvent@app@cinder@@@Z@8@Vmutex@signals2@8@@detail@signals2@boost@@@detail@boost@@UAEXXZ 00415380 f i cinder:AppImplMsw.obj
 0001:000143d0       ?do_init@win_mutex@detail@asio@boost@@AAEHXZ 004153d0 f i cinder:App.obj
 0001:00014490       ?do_one@win_iocp_io_service@detail@asio@boost@@AAEI_NAAVerror_code@system@4@@Z 00415490 f i cinder:App.obj
 0001:00014720       ?do_throw_error@detail@asio@boost@@YAXABVerror_code@system@3@@Z 00415720 f i cinder:App.obj
 0001:000147a0       ?do_throw_error@detail@asio@boost@@YAXABVerror_code@system@3@PBD@Z 004157a0 f i cinder:App.obj
 0001:00014820       ?emitShutdown@App@app@cinder@@QAEXXZ 00415820 f   cinder:App.obj
 0001:00014840       ?executeLaunch@App@app@cinder@@KAXPAV123@V?$shared_ptr@VRenderer@app@cinder@@@std@@PBDHQBQAD@Z 00415840 f   cinder:App.obj
 0001:00014920       ?findSharedRenderer@App@app@cinder@@QBE?AV?$shared_ptr@VRenderer@app@cinder@@@std@@V45@@Z 00415920 f   cinder:App.obj
 0001:00014b40       ?get_readable_state@?$signal1_impl@XAAVFileDropEvent@app@cinder@@U?$EventCombiner@VFileDropEvent@app@cinder@@@23@HU?$less@H@std@@V?$function@$$A6AXAAVFileDropEvent@app@cinder@@@Z@boost@@V?$function@$$A6AXABVconnection@signals2@boost@@AAVFileDropEvent@app@cinder@@@Z@8@Vmutex@signals2@8@@detail@signals2@boost@@ABE?AV?$shared_ptr@Vinvocation_state@?$signal1_impl@XAAVFileDropEvent@app@cinder@@U?$EventCombiner@VFileDropEvent@app@cinder@@@23@HU?$less@H@std@@V?$function@$$A6AXAAVFileDropEvent@app@cinder@@@Z@boost@@V?$function@$$A6AXABVconnection@signals2@boost@@AAVFileDropEvent@app@cinder@@@Z@8@Vmutex@signals2@8@@detail@signals2@boost@@@4@XZ 00415b40 f i cinder:AppImplMsw.obj
 0001:00014b40       ?get_readable_state@?$signal1_impl@XAAVTouchEvent@app@cinder@@U?$EventCombiner@VTouchEvent@app@cinder@@@23@HU?$less@H@std@@V?$function@$$A6AXAAVTouchEvent@app@cinder@@@Z@boost@@V?$function@$$A6AXABVconnection@signals2@boost@@AAVTouchEvent@app@cinder@@@Z@8@Vmutex@signals2@8@@detail@signals2@boost@@ABE?AV?$shared_ptr@Vinvocation_state@?$signal1_impl@XAAVTouchEvent@app@cinder@@U?$EventCombiner@VTouchEvent@app@cinder@@@23@HU?$less@H@std@@V?$function@$$A6AXAAVTouchEvent@app@cinder@@@Z@boost@@V?$function@$$A6AXABVconnection@signals2@boost@@AAVTouchEvent@app@cinder@@@Z@8@Vmutex@signals2@8@@detail@signals2@boost@@@4@XZ 00415b40 f i cinder:AppImplMsw.obj
 0001:00014b40       ?get_readable_state@?$signal1_impl@XAAVMouseEvent@app@cinder@@U?$EventCombiner@VMouseEvent@app@cinder@@@23@HU?$less@H@std@@V?$function@$$A6AXAAVMouseEvent@app@cinder@@@Z@boost@@V?$function@$$A6AXABVconnection@signals2@boost@@AAVMouseEvent@app@cinder@@@Z@8@Vmutex@signals2@8@@detail@signals2@boost@@ABE?AV?$shared_ptr@Vinvocation_state@?$signal1_impl@XAAVMouseEvent@app@cinder@@U?$EventCombiner@VMouseEvent@app@cinder@@@23@HU?$less@H@std@@V?$function@$$A6AXAAVMouseEvent@app@cinder@@@Z@boost@@V?$function@$$A6AXABVconnection@signals2@boost@@AAVMouseEvent@app@cinder@@@Z@8@Vmutex@signals2@8@@detail@signals2@boost@@@4@XZ 00415b40 f i cinder:AppImplMsw.obj
 0001:00014b40       ?get_readable_state@?$signal0_impl@_NUBooleanAndEventCombiner@app@cinder@@HU?$less@H@std@@V?$function@$$A6A_NXZ@boost@@V?$function@$$A6A_NABVconnection@signals2@boost@@@Z@7@Vmutex@signals2@7@@detail@signals2@boost@@ABE?AV?$shared_ptr@Vinvocation_state@?$signal0_impl@_NUBooleanAndEventCombiner@app@cinder@@HU?$less@H@std@@V?$function@$$A6A_NXZ@boost@@V?$function@$$A6A_NABVconnection@signals2@boost@@@Z@7@Vmutex@signals2@7@@detail@signals2@boost@@@4@XZ 00415b40 f i cinder:AppBasic.obj
 0001:00014b40       ?get_readable_state@?$signal1_impl@XAAVKeyEvent@app@cinder@@U?$EventCombiner@VKeyEvent@app@cinder@@@23@HU?$less@H@std@@V?$function@$$A6AXAAVKeyEvent@app@cinder@@@Z@boost@@V?$function@$$A6AXABVconnection@signals2@boost@@AAVKeyEvent@app@cinder@@@Z@8@Vmutex@signals2@8@@detail@signals2@boost@@ABE?AV?$shared_ptr@Vinvocation_state@?$signal1_impl@XAAVKeyEvent@app@cinder@@U?$EventCombiner@VKeyEvent@app@cinder@@@23@HU?$less@H@std@@V?$function@$$A6AXAAVKeyEvent@app@cinder@@@Z@boost@@V?$function@$$A6AXABVconnection@signals2@boost@@AAVKeyEvent@app@cinder@@@Z@8@Vmutex@signals2@8@@detail@signals2@boost@@@4@XZ 00415b40 f i cinder:AppImplMsw.obj
 0001:00014b40       ?get_readable_state@?$signal0_impl@XV?$optional_last_value@X@signals2@boost@@HU?$less@H@std@@V?$function@$$A6AXXZ@3@V?$function@$$A6AXABVconnection@signals2@boost@@@Z@3@Vmutex@23@@detail@signals2@boost@@ABE?AV?$shared_ptr@Vinvocation_state@?$signal0_impl@XV?$optional_last_value@X@signals2@boost@@HU?$less@H@std@@V?$function@$$A6AXXZ@3@V?$function@$$A6AXABVconnection@signals2@boost@@@Z@3@Vmutex@23@@detail@signals2@boost@@@4@XZ 00415b40 f i cinder:App.obj
 0001:00014b90       ?init@?$basic_ios@DU?$char_traits@D@std@@@std@@IAEXPAV?$basic_streambuf@DU?$char_traits@D@std@@@2@_N@Z 00415b90 f i cinder:App.obj
 0001:00014cb0       ?join@win_thread@detail@asio@boost@@QAEXXZ 00415cb0 f i cinder:App.obj
 0001:00014d20       ?loadResource@App@app@cinder@@SA?AV?$shared_ptr@VDataSource@cinder@@@std@@ABV?$basic_string@DU?$char_traits@D@std@@V?$allocator@D@2@@5@H0@Z 00415d20 f   cinder:App.obj
 0001:00014db0       ?message@error_code@system@boost@@QBE?AV?$basic_string@DU?$char_traits@D@std@@V?$allocator@D@2@@std@@XZ 00415db0 f i cinder:App.obj
 0001:00014de0       ?message@misc_category@detail@error@asio@boost@@UBE?AV?$basic_string@DU?$char_traits@D@std@@V?$allocator@D@2@@std@@H@Z 00415de0 f i cinder:App.obj
 0001:00014e90       ?name@misc_category@detail@error@asio@boost@@UBEPBDXZ 00415e90 f i cinder:App.obj
 0001:00014ea0       ?overflow@?$basic_stringbuf@DU?$char_traits@D@std@@V?$allocator@D@2@@std@@MAEHH@Z 00415ea0 f i cinder:App.obj
 0001:00015080       ?overflow@?$basic_streambuf@DU?$char_traits@D@std@@@std@@MAEHH@Z 00416080 f i cinder:App.obj
 0001:00015080       ?pbackfail@?$basic_streambuf@DU?$char_traits@D@std@@@std@@MAEHH@Z 00416080 f i cinder:App.obj
 0001:00015090       ?pbackfail@?$basic_stringbuf@DU?$char_traits@D@std@@V?$allocator@D@2@@std@@MAEHH@Z 00416090 f i cinder:App.obj
 0001:000150f0       ?poll@win_iocp_io_service@detail@asio@boost@@QAEIAAVerror_code@system@4@@Z 004160f0 f i cinder:App.obj
 0001:000151f0       ?post_deferred_completions@win_iocp_io_service@detail@asio@boost@@QAEXAAV?$op_queue@Vwin_iocp_operation@detail@asio@boost@@@234@@Z 004161f0 f i cinder:App.obj
 0001:000152a0       ?privateSetup__@App@app@cinder@@UAEXXZ 004162a0 f   cinder:App.obj
 0001:000152e0       ?privateUpdate__@App@app@cinder@@UAEXXZ 004162e0 f   cinder:App.obj
 0001:000153b2       ?rethrow@?$clone_impl@U?$error_info_injector@Vsystem_error@system@boost@@@exception_detail@boost@@@exception_detail@boost@@$0PPPPPPPM@A@BEXXZ 004163b2 f i cinder:App.obj
 0001:000153c0       ?rethrow@?$clone_impl@U?$error_info_injector@Vsystem_error@system@boost@@@exception_detail@boost@@@exception_detail@boost@@EBEXXZ 004163c0 f i cinder:App.obj
 0001:00015460       ?seekoff@?$basic_streambuf@DU?$char_traits@D@std@@@std@@MAE?AV?$fpos@H@2@_JHH@Z 00416460 f i cinder:App.obj
 0001:00015490       ?seekoff@?$basic_stringbuf@DU?$char_traits@D@std@@V?$allocator@D@2@@std@@MAE?AV?$fpos@H@2@_JHH@Z 00416490 f i cinder:App.obj
 0001:00015660       ?seekpos@?$basic_streambuf@DU?$char_traits@D@std@@@std@@MAE?AV?$fpos@H@2@V32@H@Z 00416660 f i cinder:App.obj
 0001:00015690       ?seekpos@?$basic_stringbuf@DU?$char_traits@D@std@@V?$allocator@D@2@@std@@MAE?AV?$fpos@H@2@V32@H@Z 00416690 f i cinder:App.obj
 0001:000157c0       ?setFrameRate@Settings@App@app@cinder@@QAEXM@Z 004167c0 f   cinder:App.obj
 0001:000157e0       ?setbuf@?$basic_streambuf@DU?$char_traits@D@std@@@std@@MAEPAV12@PAD_J@Z 004167e0 f i cinder:App.obj
 0001:000157f0       ?showmanyc@?$basic_streambuf@DU?$char_traits@D@std@@@std@@MAE_JXZ 004167f0 f i cinder:App.obj
 0001:00015800       ?shutdown_service@win_iocp_io_service@detail@asio@boost@@UAEXXZ 00416800 f i cinder:App.obj
 0001:000159d0       ?stop@win_iocp_io_service@detail@asio@boost@@QAEXXZ 004169d0 f i cinder:App.obj
 0001:00015a40       ?str@?$basic_stringbuf@DU?$char_traits@D@std@@V?$allocator@D@2@@std@@QBE?AV?$basic_string@DU?$char_traits@D@std@@V?$allocator@D@2@@2@XZ 00416a40 f i cinder:App.obj
 0001:00015b50       ?sync@?$basic_debugbuf@DU?$char_traits@D@std@@@msw@cinder@@MAEHXZ 00416b50 f i cinder:App.obj
 0001:00015c10       ?uflow@?$basic_streambuf@DU?$char_traits@D@std@@@std@@MAEHXZ 00416c10 f i cinder:App.obj
 0001:00015c40       ?underflow@?$basic_streambuf@DU?$char_traits@D@std@@@std@@MAEHXZ 00416c40 f i cinder:App.obj
 0001:00015c50       ?underflow@?$basic_stringbuf@DU?$char_traits@D@std@@V?$allocator@D@2@@std@@MAEHXZ 00416c50 f i cinder:App.obj
 0001:00015cb0       ?update_timeout@win_iocp_io_service@detail@asio@boost@@AAEXXZ 00416cb0 f i cinder:App.obj
 0001:00015d30       ?getFilePath@DataTarget@cinder@@QBEABVpath@filesystem@boost@@XZ 00416d30 f i cinder:DataTarget.obj
 0001:00015d30       ?what@ResourceLoadExc@app@cinder@@UBEPBDXZ 00416d30 f i cinder:App.obj
 0001:00015d30       ?getFilePath@DataSource@cinder@@QAEABVpath@filesystem@boost@@XZ 00416d30 f i cinder:DataSource.obj
 0001:00015d40       ?what@system_error@system@boost@@UBEPBDXZ 00416d40 f i cinder:App.obj
 0001:00015e30       ?xsgetn@?$basic_streambuf@DU?$char_traits@D@std@@@std@@MAE_JPAD_J@Z 00416e30 f i cinder:App.obj
 0001:00015f20       ?xsputn@?$basic_streambuf@DU?$char_traits@D@std@@@std@@MAE_JPBD_J@Z 00416f20 f i cinder:App.obj
 0001:00016010       ??$?0UBooleanAndEventCombiner@app@cinder@@@?$shared_ptr@UBooleanAndEventCombiner@app@cinder@@@boost@@QAE@PAUBooleanAndEventCombiner@app@cinder@@@Z 00417010 f i cinder:AppBasic.obj
 0001:000160c0       ??$?0UBooleanAndEventCombiner@app@cinder@@@shared_count@detail@boost@@QAE@PAUBooleanAndEventCombiner@app@cinder@@@Z 004170c0 f i cinder:AppBasic.obj
 0001:00016160       ??$?0V?$grouped_list@HU?$less@H@std@@V?$shared_ptr@V?$connection_body@U?$pair@W4slot_meta_group@detail@signals2@boost@@V?$optional@H@4@@std@@V?$slot0@_NV?$function@$$A6A_NXZ@boost@@@signals2@boost@@Vmutex@45@@detail@signals2@boost@@@boost@@@detail@signals2@boost@@@?$shared_ptr@V?$grouped_list@HU?$less@H@std@@V?$shared_ptr@V?$connection_body@U?$pair@W4slot_meta_group@detail@signals2@boost@@V?$optional@H@4@@std@@V?$slot0@_NV?$function@$$A6A_NXZ@boost@@@signals2@boost@@Vmutex@45@@detail@signals2@boost@@@boost@@@detail@signals2@boost@@@boost@@QAE@PAV?$grouped_list@HU?$less@H@std@@V?$shared_ptr@V?$connection_body@U?$pair@W4slot_meta_group@detail@signals2@boost@@V?$optional@H@4@@std@@V?$slot0@_NV?$function@$$A6A_NXZ@boost@@@signals2@boost@@Vmutex@45@@detail@signals2@boost@@@boost@@@detail@signals2@1@@Z 00417160 f i cinder:AppBasic.obj
 0001:00016210       ??$?0V?$grouped_list@HU?$less@H@std@@V?$shared_ptr@V?$connection_body@U?$pair@W4slot_meta_group@detail@signals2@boost@@V?$optional@H@4@@std@@V?$slot0@_NV?$function@$$A6A_NXZ@boost@@@signals2@boost@@Vmutex@45@@detail@signals2@boost@@@boost@@@detail@signals2@boost@@@shared_count@detail@boost@@QAE@PAV?$grouped_list@HU?$less@H@std@@V?$shared_ptr@V?$connection_body@U?$pair@W4slot_meta_group@detail@signals2@boost@@V?$optional@H@4@@std@@V?$slot0@_NV?$function@$$A6A_NXZ@boost@@@signals2@boost@@Vmutex@45@@detail@signals2@boost@@@boost@@@1signals2@2@@Z 00417210 f i cinder:AppBasic.obj
 0001:000162b0       ??$?0V?$signal0_impl@_NUBooleanAndEventCombiner@app@cinder@@HU?$less@H@std@@V?$function@$$A6A_NXZ@boost@@V?$function@$$A6A_NABVconnection@signals2@boost@@@Z@7@Vmutex@signals2@7@@detail@signals2@boost@@@?$shared_ptr@V?$signal0_impl@_NUBooleanAndEventCombiner@app@cinder@@HU?$less@H@std@@V?$function@$$A6A_NXZ@boost@@V?$function@$$A6A_NABVconnection@signals2@boost@@@Z@7@Vmutex@signals2@7@@detail@signals2@boost@@@boost@@QAE@PAV?$signal0_impl@_NUBooleanAndEventCombiner@app@cinder@@HU?$less@H@std@@V?$function@$$A6A_NXZ@boost@@V?$function@$$A6A_NABVconnection@signals2@boost@@@Z@7@Vmutex@signals2@7@@detail@signals2@1@@Z 004172b0 f i cinder:AppBasic.obj
 0001:00016360       ??$?0V?$signal0_impl@_NUBooleanAndEventCombiner@app@cinder@@HU?$less@H@std@@V?$function@$$A6A_NXZ@boost@@V?$function@$$A6A_NABVconnection@signals2@boost@@@Z@7@Vmutex@signals2@7@@detail@signals2@boost@@@shared_count@detail@boost@@QAE@PAV?$signal0_impl@_NUBooleanAndEventCombiner@app@cinder@@HU?$less@H@std@@V?$function@$$A6A_NXZ@boost@@V?$function@$$A6A_NABVconnection@signals2@boost@@@Z@7@Vmutex@signals2@7@@1signals2@2@@Z 00417360 f i cinder:AppBasic.obj
 0001:00016400       ??$?0Vinvocation_state@?$signal0_impl@_NUBooleanAndEventCombiner@app@cinder@@HU?$less@H@std@@V?$function@$$A6A_NXZ@boost@@V?$function@$$A6A_NABVconnection@signals2@boost@@@Z@7@Vmutex@signals2@7@@detail@signals2@boost@@@?$shared_ptr@Vinvocation_state@?$signal0_impl@_NUBooleanAndEventCombiner@app@cinder@@HU?$less@H@std@@V?$function@$$A6A_NXZ@boost@@V?$function@$$A6A_NABVconnection@signals2@boost@@@Z@7@Vmutex@signals2@7@@detail@signals2@boost@@@boost@@QAE@PAVinvocation_state@?$signal0_impl@_NUBooleanAndEventCombiner@app@cinder@@HU?$less@H@std@@V?$function@$$A6A_NXZ@boost@@V?$function@$$A6A_NABVconnection@signals2@boost@@@Z@7@Vmutex@signals2@7@@detail@signals2@1@@Z 00417400 f i cinder:AppBasic.obj
 0001:000164b0       ??$?0Vinvocation_state@?$signal0_impl@_NUBooleanAndEventCombiner@app@cinder@@HU?$less@H@std@@V?$function@$$A6A_NXZ@boost@@V?$function@$$A6A_NABVconnection@signals2@boost@@@Z@7@Vmutex@signals2@7@@detail@signals2@boost@@@shared_count@detail@boost@@QAE@PAVinvocation_state@?$signal0_impl@_NUBooleanAndEventCombiner@app@cinder@@HU?$less@H@std@@V?$function@$$A6A_NXZ@boost@@V?$function@$$A6A_NABVconnection@signals2@boost@@@Z@7@Vmutex@signals2@7@@1signals2@2@@Z 004174b0 f i cinder:AppBasic.obj
 0001:00016550       ??$_Copy@U?$integral_constant@_N$0A@@std@@@?$_Tree@V?$_Tmap_traits@U?$pair@W4slot_meta_group@detail@signals2@boost@@V?$optional@H@4@@std@@V?$_List_iterator@V?$_List_val@U?$_List_simple_types@V?$shared_ptr@V?$connection_body@U?$pair@W4slot_meta_group@detail@signals2@boost@@V?$optional@H@4@@std@@V?$slot1@XAAVKeyEvent@app@cinder@@V?$function@$$A6AXAAVKeyEvent@app@cinder@@@Z@boost@@@signals2@boost@@Vmutex@45@@detail@signals2@boost@@@boost@@@std@@@std@@@2@V?$group_key_less@HU?$less@H@std@@@detail@signals2@boost@@V?$allocator@U?$pair@$$CBU?$pair@W4slot_meta_group@detail@signals2@boost@@V?$optional@H@4@@std@@V?$_List_iterator@V?$_List_val@U?$_List_simple_types@V?$shared_ptr@V?$connection_body@U?$pair@W4slot_meta_group@detail@signals2@boost@@V?$optional@H@4@@std@@V?$slot1@XAAVKeyEvent@app@cinder@@V?$function@$$A6AXAAVKeyEvent@app@cinder@@@Z@boost@@@signals2@boost@@Vmutex@45@@detail@signals2@boost@@@boost@@@std@@@std@@@2@@std@@@2@$0A@@std@@@std@@IAEXABV01@U?$integral_constant@_N$0A@@1@@Z 00417550 f i cinder:Window.obj
 0001:00016550       ??$_Copy@U?$integral_constant@_N$0A@@std@@@?$_Tree@V?$_Tmap_traits@U?$pair@W4slot_meta_group@detail@signals2@boost@@V?$optional@H@4@@std@@V?$_List_iterator@V?$_List_val@U?$_List_simple_types@V?$shared_ptr@V?$connection_body@U?$pair@W4slot_meta_group@detail@signals2@boost@@V?$optional@H@4@@std@@V?$slot0@XV?$function@$$A6AXXZ@boost@@@signals2@boost@@Vmutex@45@@detail@signals2@boost@@@boost@@@std@@@std@@@2@V?$group_key_less@HU?$less@H@std@@@detail@signals2@boost@@V?$allocator@U?$pair@$$CBU?$pair@W4slot_meta_group@detail@signals2@boost@@V?$optional@H@4@@std@@V?$_List_iterator@V?$_List_val@U?$_List_simple_types@V?$shared_ptr@V?$connection_body@U?$pair@W4slot_meta_group@detail@signals2@boost@@V?$optional@H@4@@std@@V?$slot0@XV?$function@$$A6AXXZ@boost@@@signals2@boost@@Vmutex@45@@detail@signals2@boost@@@boost@@@std@@@std@@@2@@std@@@2@$0A@@std@@@std@@IAEXABV01@U?$integral_constant@_N$0A@@1@@Z 00417550 f i cinder:Window.obj
 0001:00016550       ??$_Copy@U?$integral_constant@_N$0A@@std@@@?$_Tree@V?$_Tmap_traits@U?$pair@W4slot_meta_group@detail@signals2@boost@@V?$optional@H@4@@std@@V?$_List_iterator@V?$_List_val@U?$_List_simple_types@V?$shared_ptr@V?$connection_body@U?$pair@W4slot_meta_group@detail@signals2@boost@@V?$optional@H@4@@std@@V?$slot1@XAAVTouchEvent@app@cinder@@V?$function@$$A6AXAAVTouchEvent@app@cinder@@@Z@boost@@@signals2@boost@@Vmutex@45@@detail@signals2@boost@@@boost@@@std@@@std@@@2@V?$group_key_less@HU?$less@H@std@@@detail@signals2@boost@@V?$allocator@U?$pair@$$CBU?$pair@W4slot_meta_group@detail@signals2@boost@@V?$optional@H@4@@std@@V?$_List_iterator@V?$_List_val@U?$_List_simple_types@V?$shared_ptr@V?$connection_body@U?$pair@W4slot_meta_group@detail@signals2@boost@@V?$optional@H@4@@std@@V?$slot1@XAAVTouchEvent@app@cinder@@V?$function@$$A6AXAAVTouchEvent@app@cinder@@@Z@boost@@@signals2@boost@@Vmutex@45@@detail@signals2@boost@@@boost@@@std@@@std@@@2@@std@@@2@$0A@@std@@@std@@IAEXABV01@U?$integral_constant@_N$0A@@1@@Z 00417550 f i cinder:Window.obj
 0001:00016550       ??$_Copy@U?$integral_constant@_N$0A@@std@@@?$_Tree@V?$_Tmap_traits@U?$pair@W4slot_meta_group@detail@signals2@boost@@V?$optional@H@4@@std@@V?$_List_iterator@V?$_List_val@U?$_List_simple_types@V?$shared_ptr@V?$connection_body@U?$pair@W4slot_meta_group@detail@signals2@boost@@V?$optional@H@4@@std@@V?$slot1@XAAVFileDropEvent@app@cinder@@V?$function@$$A6AXAAVFileDropEvent@app@cinder@@@Z@boost@@@signals2@boost@@Vmutex@45@@detail@signals2@boost@@@boost@@@std@@@std@@@2@V?$group_key_less@HU?$less@H@std@@@detail@signals2@boost@@V?$allocator@U?$pair@$$CBU?$pair@W4slot_meta_group@detail@signals2@boost@@V?$optional@H@4@@std@@V?$_List_iterator@V?$_List_val@U?$_List_simple_types@V?$shared_ptr@V?$connection_body@U?$pair@W4slot_meta_group@detail@signals2@boost@@V?$optional@H@4@@std@@V?$slot1@XAAVFileDropEvent@app@cinder@@V?$function@$$A6AXAAVFileDropEvent@app@cinder@@@Z@boost@@@signals2@boost@@Vmutex@45@@detail@signals2@boost@@@boost@@@std@@@std@@@2@@std@@@2@$0A@@std@@@std@@IAEXABV01@U?$integral_constant@_N$0A@@1@@Z 00417550 f i cinder:Window.obj
 0001:00016550       ??$_Copy@U?$integral_constant@_N$0A@@std@@@?$_Tree@V?$_Tmap_traits@U?$pair@W4slot_meta_group@detail@signals2@boost@@V?$optional@H@4@@std@@V?$_List_iterator@V?$_List_val@U?$_List_simple_types@V?$shared_ptr@V?$connection_body@U?$pair@W4slot_meta_group@detail@signals2@boost@@V?$optional@H@4@@std@@V?$slot0@_NV?$function@$$A6A_NXZ@boost@@@signals2@boost@@Vmutex@45@@detail@signals2@boost@@@boost@@@std@@@std@@@2@V?$group_key_less@HU?$less@H@std@@@detail@signals2@boost@@V?$allocator@U?$pair@$$CBU?$pair@W4slot_meta_group@detail@signals2@boost@@V?$optional@H@4@@std@@V?$_List_iterator@V?$_List_val@U?$_List_simple_types@V?$shared_ptr@V?$connection_body@U?$pair@W4slot_meta_group@detail@signals2@boost@@V?$optional@H@4@@std@@V?$slot0@_NV?$function@$$A6A_NXZ@boost@@@signals2@boost@@Vmutex@45@@detail@signals2@boost@@@boost@@@std@@@std@@@2@@std@@@2@$0A@@std@@@std@@IAEXABV01@U?$integral_constant@_N$0A@@1@@Z 00417550 f i cinder:AppBasic.obj
 0001:00016550       ??$_Copy@U?$integral_constant@_N$0A@@std@@@?$_Tree@V?$_Tmap_traits@U?$pair@W4slot_meta_group@detail@signals2@boost@@V?$optional@H@4@@std@@V?$_List_iterator@V?$_List_val@U?$_List_simple_types@V?$shared_ptr@V?$connection_body@U?$pair@W4slot_meta_group@detail@signals2@boost@@V?$optional@H@4@@std@@V?$slot1@XAAVMouseEvent@app@cinder@@V?$function@$$A6AXAAVMouseEvent@app@cinder@@@Z@boost@@@signals2@boost@@Vmutex@45@@detail@signals2@boost@@@boost@@@std@@@std@@@2@V?$group_key_less@HU?$less@H@std@@@detail@signals2@boost@@V?$allocator@U?$pair@$$CBU?$pair@W4slot_meta_group@detail@signals2@boost@@V?$optional@H@4@@std@@V?$_List_iterator@V?$_List_val@U?$_List_simple_types@V?$shared_ptr@V?$connection_body@U?$pair@W4slot_meta_group@detail@signals2@boost@@V?$optional@H@4@@std@@V?$slot1@XAAVMouseEvent@app@cinder@@V?$function@$$A6AXAAVMouseEvent@app@cinder@@@Z@boost@@@signals2@boost@@Vmutex@45@@detail@signals2@boost@@@boost@@@std@@@std@@@2@@std@@@2@$0A@@std@@@std@@IAEXABV01@U?$integral_constant@_N$0A@@1@@Z 00417550 f i cinder:Window.obj
 0001:000165d0       ??$_Copy_nodes@U?$integral_constant@_N$0A@@std@@@?$_Tree@V?$_Tmap_traits@U?$pair@W4slot_meta_group@detail@signals2@boost@@V?$optional@H@4@@std@@V?$_List_iterator@V?$_List_val@U?$_List_simple_types@V?$shared_ptr@V?$connection_body@U?$pair@W4slot_meta_group@detail@signals2@boost@@V?$optional@H@4@@std@@V?$slot1@XAAVFileDropEvent@app@cinder@@V?$function@$$A6AXAAVFileDropEvent@app@cinder@@@Z@boost@@@signals2@boost@@Vmutex@45@@detail@signals2@boost@@@boost@@@std@@@std@@@2@V?$group_key_less@HU?$less@H@std@@@detail@signals2@boost@@V?$allocator@U?$pair@$$CBU?$pair@W4slot_meta_group@detail@signals2@boost@@V?$optional@H@4@@std@@V?$_List_iterator@V?$_List_val@U?$_List_simple_types@V?$shared_ptr@V?$connection_body@U?$pair@W4slot_meta_group@detail@signals2@boost@@V?$optional@H@4@@std@@V?$slot1@XAAVFileDropEvent@app@cinder@@V?$function@$$A6AXAAVFileDropEvent@app@cinder@@@Z@boost@@@signals2@boost@@Vmutex@45@@detail@signals2@boost@@@boost@@@std@@@std@@@2@@std@@@2@$0A@@std@@@std@@IAEPAU?$_Tree_node@U?$pair@$$CBU?$pair@W4slot_meta_group@detail@signals2@boost@@V?$optional@H@4@@std@@V?$_List_iterator@V?$_List_val@U?$_List_simple_types@V?$shared_ptr@V?$connection_body@U?$pair@W4slot_meta_group@detail@signals2@boost@@V?$optional@H@4@@std@@V?$slot1@XAAVFileDropEvent@app@cinder@@V?$function@$$A6AXAAVFileDropEvent@app@cinder@@@Z@boost@@@signals2@boost@@Vmutex@45@@detail@signals2@boost@@@boost@@@std@@@std@@@2@@std@@PAX@1@PAU21@0U?$integral_constant@_N$0A@@1@@Z 004175d0 f i cinder:Window.obj
 0001:000165d0       ??$_Copy_nodes@U?$integral_constant@_N$0A@@std@@@?$_Tree@V?$_Tmap_traits@U?$pair@W4slot_meta_group@detail@signals2@boost@@V?$optional@H@4@@std@@V?$_List_iterator@V?$_List_val@U?$_List_simple_types@V?$shared_ptr@V?$connection_body@U?$pair@W4slot_meta_group@detail@signals2@boost@@V?$optional@H@4@@std@@V?$slot1@XAAVTouchEvent@app@cinder@@V?$function@$$A6AXAAVTouchEvent@app@cinder@@@Z@boost@@@signals2@boost@@Vmutex@45@@detail@signals2@boost@@@boost@@@std@@@std@@@2@V?$group_key_less@HU?$less@H@std@@@detail@signals2@boost@@V?$allocator@U?$pair@$$CBU?$pair@W4slot_meta_group@detail@signals2@boost@@V?$optional@H@4@@std@@V?$_List_iterator@V?$_List_val@U?$_List_simple_types@V?$shared_ptr@V?$connection_body@U?$pair@W4slot_meta_group@detail@signals2@boost@@V?$optional@H@4@@std@@V?$slot1@XAAVTouchEvent@app@cinder@@V?$function@$$A6AXAAVTouchEvent@app@cinder@@@Z@boost@@@signals2@boost@@Vmutex@45@@detail@signals2@boost@@@boost@@@std@@@std@@@2@@std@@@2@$0A@@std@@@std@@IAEPAU?$_Tree_node@U?$pair@$$CBU?$pair@W4slot_meta_group@detail@signals2@boost@@V?$optional@H@4@@std@@V?$_List_iterator@V?$_List_val@U?$_List_simple_types@V?$shared_ptr@V?$connection_body@U?$pair@W4slot_meta_group@detail@signals2@boost@@V?$optional@H@4@@std@@V?$slot1@XAAVTouchEvent@app@cinder@@V?$function@$$A6AXAAVTouchEvent@app@cinder@@@Z@boost@@@signals2@boost@@Vmutex@45@@detail@signals2@boost@@@boost@@@std@@@std@@@2@@std@@PAX@1@PAU21@0U?$integral_constant@_N$0A@@1@@Z 004175d0 f i cinder:Window.obj
 0001:000165d0       ??$_Copy_nodes@U?$integral_constant@_N$0A@@std@@@?$_Tree@V?$_Tmap_traits@U?$pair@W4slot_meta_group@detail@signals2@boost@@V?$optional@H@4@@std@@V?$_List_iterator@V?$_List_val@U?$_List_simple_types@V?$shared_ptr@V?$connection_body@U?$pair@W4slot_meta_group@detail@signals2@boost@@V?$optional@H@4@@std@@V?$slot1@XAAVMouseEvent@app@cinder@@V?$function@$$A6AXAAVMouseEvent@app@cinder@@@Z@boost@@@signals2@boost@@Vmutex@45@@detail@signals2@boost@@@boost@@@std@@@std@@@2@V?$group_key_less@HU?$less@H@std@@@detail@signals2@boost@@V?$allocator@U?$pair@$$CBU?$pair@W4slot_meta_group@detail@signals2@boost@@V?$optional@H@4@@std@@V?$_List_iterator@V?$_List_val@U?$_List_simple_types@V?$shared_ptr@V?$connection_body@U?$pair@W4slot_meta_group@detail@signals2@boost@@V?$optional@H@4@@std@@V?$slot1@XAAVMouseEvent@app@cinder@@V?$function@$$A6AXAAVMouseEvent@app@cinder@@@Z@boost@@@signals2@boost@@Vmutex@45@@detail@signals2@boost@@@boost@@@std@@@std@@@2@@std@@@2@$0A@@std@@@std@@IAEPAU?$_Tree_node@U?$pair@$$CBU?$pair@W4slot_meta_group@detail@signals2@boost@@V?$optional@H@4@@std@@V?$_List_iterator@V?$_List_val@U?$_List_simple_types@V?$shared_ptr@V?$connection_body@U?$pair@W4slot_meta_group@detail@signals2@boost@@V?$optional@H@4@@std@@V?$slot1@XAAVMouseEvent@app@cinder@@V?$function@$$A6AXAAVMouseEvent@app@cinder@@@Z@boost@@@signals2@boost@@Vmutex@45@@detail@signals2@boost@@@boost@@@std@@@std@@@2@@std@@PAX@1@PAU21@0U?$integral_constant@_N$0A@@1@@Z 004175d0 f i cinder:Window.obj
 0001:000165d0       ??$_Copy_nodes@U?$integral_constant@_N$0A@@std@@@?$_Tree@V?$_Tmap_traits@U?$pair@W4slot_meta_group@detail@signals2@boost@@V?$optional@H@4@@std@@V?$_List_iterator@V?$_List_val@U?$_List_simple_types@V?$shared_ptr@V?$connection_body@U?$pair@W4slot_meta_group@detail@signals2@boost@@V?$optional@H@4@@std@@V?$slot0@_NV?$function@$$A6A_NXZ@boost@@@signals2@boost@@Vmutex@45@@detail@signals2@boost@@@boost@@@std@@@std@@@2@V?$group_key_less@HU?$less@H@std@@@detail@signals2@boost@@V?$allocator@U?$pair@$$CBU?$pair@W4slot_meta_group@detail@signals2@boost@@V?$optional@H@4@@std@@V?$_List_iterator@V?$_List_val@U?$_List_simple_types@V?$shared_ptr@V?$connection_body@U?$pair@W4slot_meta_group@detail@signals2@boost@@V?$optional@H@4@@std@@V?$slot0@_NV?$function@$$A6A_NXZ@boost@@@signals2@boost@@Vmutex@45@@detail@signals2@boost@@@boost@@@std@@@std@@@2@@std@@@2@$0A@@std@@@std@@IAEPAU?$_Tree_node@U?$pair@$$CBU?$pair@W4slot_meta_group@detail@signals2@boost@@V?$optional@H@4@@std@@V?$_List_iterator@V?$_List_val@U?$_List_simple_types@V?$shared_ptr@V?$connection_body@U?$pair@W4slot_meta_group@detail@signals2@boost@@V?$optional@H@4@@std@@V?$slot0@_NV?$function@$$A6A_NXZ@boost@@@signals2@boost@@Vmutex@45@@detail@signals2@boost@@@boost@@@std@@@std@@@2@@std@@PAX@1@PAU21@0U?$integral_constant@_N$0A@@1@@Z 004175d0 f i cinder:AppBasic.obj
 0001:000165d0       ??$_Copy_nodes@U?$integral_constant@_N$0A@@std@@@?$_Tree@V?$_Tmap_traits@U?$pair@W4slot_meta_group@detail@signals2@boost@@V?$optional@H@4@@std@@V?$_List_iterator@V?$_List_val@U?$_List_simple_types@V?$shared_ptr@V?$connection_body@U?$pair@W4slot_meta_group@detail@signals2@boost@@V?$optional@H@4@@std@@V?$slot0@XV?$function@$$A6AXXZ@boost@@@signals2@boost@@Vmutex@45@@detail@signals2@boost@@@boost@@@std@@@std@@@2@V?$group_key_less@HU?$less@H@std@@@detail@signals2@boost@@V?$allocator@U?$pair@$$CBU?$pair@W4slot_meta_group@detail@signals2@boost@@V?$optional@H@4@@std@@V?$_List_iterator@V?$_List_val@U?$_List_simple_types@V?$shared_ptr@V?$connection_body@U?$pair@W4slot_meta_group@detail@signals2@boost@@V?$optional@H@4@@std@@V?$slot0@XV?$function@$$A6AXXZ@boost@@@signals2@boost@@Vmutex@45@@detail@signals2@boost@@@boost@@@std@@@std@@@2@@std@@@2@$0A@@std@@@std@@IAEPAU?$_Tree_node@U?$pair@$$CBU?$pair@W4slot_meta_group@detail@signals2@boost@@V?$optional@H@4@@std@@V?$_List_iterator@V?$_List_val@U?$_List_simple_types@V?$shared_ptr@V?$connection_body@U?$pair@W4slot_meta_group@detail@signals2@boost@@V?$optional@H@4@@std@@V?$slot0@XV?$function@$$A6AXXZ@boost@@@signals2@boost@@Vmutex@45@@detail@signals2@boost@@@boost@@@std@@@std@@@2@@std@@PAX@1@PAU21@0U?$integral_constant@_N$0A@@1@@Z 004175d0 f i cinder:Window.obj
 0001:000165d0       ??$_Copy_nodes@U?$integral_constant@_N$0A@@std@@@?$_Tree@V?$_Tmap_traits@U?$pair@W4slot_meta_group@detail@signals2@boost@@V?$optional@H@4@@std@@V?$_List_iterator@V?$_List_val@U?$_List_simple_types@V?$shared_ptr@V?$connection_body@U?$pair@W4slot_meta_group@detail@signals2@boost@@V?$optional@H@4@@std@@V?$slot1@XAAVKeyEvent@app@cinder@@V?$function@$$A6AXAAVKeyEvent@app@cinder@@@Z@boost@@@signals2@boost@@Vmutex@45@@detail@signals2@boost@@@boost@@@std@@@std@@@2@V?$group_key_less@HU?$less@H@std@@@detail@signals2@boost@@V?$allocator@U?$pair@$$CBU?$pair@W4slot_meta_group@detail@signals2@boost@@V?$optional@H@4@@std@@V?$_List_iterator@V?$_List_val@U?$_List_simple_types@V?$shared_ptr@V?$connection_body@U?$pair@W4slot_meta_group@detail@signals2@boost@@V?$optional@H@4@@std@@V?$slot1@XAAVKeyEvent@app@cinder@@V?$function@$$A6AXAAVKeyEvent@app@cinder@@@Z@boost@@@signals2@boost@@Vmutex@45@@detail@signals2@boost@@@boost@@@std@@@std@@@2@@std@@@2@$0A@@std@@@std@@IAEPAU?$_Tree_node@U?$pair@$$CBU?$pair@W4slot_meta_group@detail@signals2@boost@@V?$optional@H@4@@std@@V?$_List_iterator@V?$_List_val@U?$_List_simple_types@V?$shared_ptr@V?$connection_body@U?$pair@W4slot_meta_group@detail@signals2@boost@@V?$optional@H@4@@std@@V?$slot1@XAAVKeyEvent@app@cinder@@V?$function@$$A6AXAAVKeyEvent@app@cinder@@@Z@boost@@@signals2@boost@@Vmutex@45@@detail@signals2@boost@@@boost@@@std@@@std@@@2@@std@@PAX@1@PAU21@0U?$integral_constant@_N$0A@@1@@Z 004175d0 f i cinder:Window.obj
 0001:00016690       ??$_Insert_range@V?$_List_const_iterator@V?$_List_val@U?$_List_simple_types@V?$shared_ptr@V?$connection_body@U?$pair@W4slot_meta_group@detail@signals2@boost@@V?$optional@H@4@@std@@V?$slot1@XAAVKeyEvent@app@cinder@@V?$function@$$A6AXAAVKeyEvent@app@cinder@@@Z@boost@@@signals2@boost@@Vmutex@45@@detail@signals2@boost@@@boost@@@std@@@std@@@std@@@?$list@V?$shared_ptr@V?$connection_body@U?$pair@W4slot_meta_group@detail@signals2@boost@@V?$optional@H@4@@std@@V?$slot1@XAAVKeyEvent@app@cinder@@V?$function@$$A6AXAAVKeyEvent@app@cinder@@@Z@boost@@@signals2@boost@@Vmutex@45@@detail@signals2@boost@@@boost@@V?$allocator@V?$shared_ptr@V?$connection_body@U?$pair@W4slot_meta_group@detail@signals2@boost@@V?$optional@H@4@@std@@V?$slot1@XAAVKeyEvent@app@cinder@@V?$function@$$A6AXAAVKeyEvent@app@cinder@@@Z@boost@@@signals2@boost@@Vmutex@45@@detail@signals2@boost@@@boost@@@std@@@std@@QAEXV?$_List_unchecked_const_iterator@V?$_List_val@U?$_List_simple_types@V?$shared_ptr@V?$connection_body@U?$pair@W4slot_meta_group@detail@signals2@boost@@V?$optional@H@4@@std@@V?$slot1@XAAVKeyEvent@app@cinder@@V?$function@$$A6AXAAVKeyEvent@app@cinder@@@Z@boost@@@signals2@boost@@Vmutex@45@@detail@signals2@boost@@@boost@@@std@@@std@@U_Iterator_base0@2@@1@V?$_List_const_iterator@V?$_List_val@U?$_List_simple_types@V?$shared_ptr@V?$connection_body@U?$pair@W4slot_meta_group@detail@signals2@boost@@V?$optional@H@4@@std@@V?$slot1@XAAVKeyEvent@app@cinder@@V?$function@$$A6AXAAVKeyEvent@app@cinder@@@Z@boost@@@signals2@boost@@Vmutex@45@@detail@signals2@boost@@@boost@@@std@@@std@@@1@1Uforward_iterator_tag@1@@Z 00417690 f i cinder:Window.obj
 0001:00016690       ??$_Insert_range@V?$_List_const_iterator@V?$_List_val@U?$_List_simple_types@V?$shared_ptr@V?$connection_body@U?$pair@W4slot_meta_group@detail@signals2@boost@@V?$optional@H@4@@std@@V?$slot1@XAAVFileDropEvent@app@cinder@@V?$function@$$A6AXAAVFileDropEvent@app@cinder@@@Z@boost@@@signals2@boost@@Vmutex@45@@detail@signals2@boost@@@boost@@@std@@@std@@@std@@@?$list@V?$shared_ptr@V?$connection_body@U?$pair@W4slot_meta_group@detail@signals2@boost@@V?$optional@H@4@@std@@V?$slot1@XAAVFileDropEvent@app@cinder@@V?$function@$$A6AXAAVFileDropEvent@app@cinder@@@Z@boost@@@signals2@boost@@Vmutex@45@@detail@signals2@boost@@@boost@@V?$allocator@V?$shared_ptr@V?$connection_body@U?$pair@W4slot_meta_group@detail@signals2@boost@@V?$optional@H@4@@std@@V?$slot1@XAAVFileDropEvent@app@cinder@@V?$function@$$A6AXAAVFileDropEvent@app@cinder@@@Z@boost@@@signals2@boost@@Vmutex@45@@detail@signals2@boost@@@boost@@@std@@@std@@QAEXV?$_List_unchecked_const_iterator@V?$_List_val@U?$_List_simple_types@V?$shared_ptr@V?$connection_body@U?$pair@W4slot_meta_group@detail@signals2@boost@@V?$optional@H@4@@std@@V?$slot1@XAAVFileDropEvent@app@cinder@@V?$function@$$A6AXAAVFileDropEvent@app@cinder@@@Z@boost@@@signals2@boost@@Vmutex@45@@detail@signals2@boost@@@boost@@@std@@@std@@U_Iterator_base0@2@@1@V?$_List_const_iterator@V?$_List_val@U?$_List_simple_types@V?$shared_ptr@V?$connection_body@U?$pair@W4slot_meta_group@detail@signals2@boost@@V?$optional@H@4@@std@@V?$slot1@XAAVFileDropEvent@app@cinder@@V?$function@$$A6AXAAVFileDropEvent@app@cinder@@@Z@boost@@@signals2@boost@@Vmutex@45@@detail@signals2@boost@@@boost@@@std@@@std@@@1@1Uforward_iterator_tag@1@@Z 00417690 f i cinder:Window.obj
 0001:00016690       ??$_Insert_range@V?$_List_const_iterator@V?$_List_val@U?$_List_simple_types@V?$shared_ptr@V?$connection_body@U?$pair@W4slot_meta_group@detail@signals2@boost@@V?$optional@H@4@@std@@V?$slot1@XAAVMouseEvent@app@cinder@@V?$function@$$A6AXAAVMouseEvent@app@cinder@@@Z@boost@@@signals2@boost@@Vmutex@45@@detail@signals2@boost@@@boost@@@std@@@std@@@std@@@?$list@V?$shared_ptr@V?$connection_body@U?$pair@W4slot_meta_group@detail@signals2@boost@@V?$optional@H@4@@std@@V?$slot1@XAAVMouseEvent@app@cinder@@V?$function@$$A6AXAAVMouseEvent@app@cinder@@@Z@boost@@@signals2@boost@@Vmutex@45@@detail@signals2@boost@@@boost@@V?$allocator@V?$shared_ptr@V?$connection_body@U?$pair@W4slot_meta_group@detail@signals2@boost@@V?$optional@H@4@@std@@V?$slot1@XAAVMouseEvent@app@cinder@@V?$function@$$A6AXAAVMouseEvent@app@cinder@@@Z@boost@@@signals2@boost@@Vmutex@45@@detail@signals2@boost@@@boost@@@std@@@std@@QAEXV?$_List_unchecked_const_iterator@V?$_List_val@U?$_List_simple_types@V?$shared_ptr@V?$connection_body@U?$pair@W4slot_meta_group@detail@signals2@boost@@V?$optional@H@4@@std@@V?$slot1@XAAVMouseEvent@app@cinder@@V?$function@$$A6AXAAVMouseEvent@app@cinder@@@Z@boost@@@signals2@boost@@Vmutex@45@@detail@signals2@boost@@@boost@@@std@@@std@@U_Iterator_base0@2@@1@V?$_List_const_iterator@V?$_List_val@U?$_List_simple_types@V?$shared_ptr@V?$connection_body@U?$pair@W4slot_meta_group@detail@signals2@boost@@V?$optional@H@4@@std@@V?$slot1@XAAVMouseEvent@app@cinder@@V?$function@$$A6AXAAVMouseEvent@app@cinder@@@Z@boost@@@signals2@boost@@Vmutex@45@@detail@signals2@boost@@@boost@@@std@@@std@@@1@1Uforward_iterator_tag@1@@Z 00417690 f i cinder:Window.obj
 0001:00016690       ??$_Insert_range@V?$_List_const_iterator@V?$_List_val@U?$_List_simple_types@V?$shared_ptr@V?$connection_body@U?$pair@W4slot_meta_group@detail@signals2@boost@@V?$optional@H@4@@std@@V?$slot1@XAAVTouchEvent@app@cinder@@V?$function@$$A6AXAAVTouchEvent@app@cinder@@@Z@boost@@@signals2@boost@@Vmutex@45@@detail@signals2@boost@@@boost@@@std@@@std@@@std@@@?$list@V?$shared_ptr@V?$connection_body@U?$pair@W4slot_meta_group@detail@signals2@boost@@V?$optional@H@4@@std@@V?$slot1@XAAVTouchEvent@app@cinder@@V?$function@$$A6AXAAVTouchEvent@app@cinder@@@Z@boost@@@signals2@boost@@Vmutex@45@@detail@signals2@boost@@@boost@@V?$allocator@V?$shared_ptr@V?$connection_body@U?$pair@W4slot_meta_group@detail@signals2@boost@@V?$optional@H@4@@std@@V?$slot1@XAAVTouchEvent@app@cinder@@V?$function@$$A6AXAAVTouchEvent@app@cinder@@@Z@boost@@@signals2@boost@@Vmutex@45@@detail@signals2@boost@@@boost@@@std@@@std@@QAEXV?$_List_unchecked_const_iterator@V?$_List_val@U?$_List_simple_types@V?$shared_ptr@V?$connection_body@U?$pair@W4slot_meta_group@detail@signals2@boost@@V?$optional@H@4@@std@@V?$slot1@XAAVTouchEvent@app@cinder@@V?$function@$$A6AXAAVTouchEvent@app@cinder@@@Z@boost@@@signals2@boost@@Vmutex@45@@detail@signals2@boost@@@boost@@@std@@@std@@U_Iterator_base0@2@@1@V?$_List_const_iterator@V?$_List_val@U?$_List_simple_types@V?$shared_ptr@V?$connection_body@U?$pair@W4slot_meta_group@detail@signals2@boost@@V?$optional@H@4@@std@@V?$slot1@XAAVTouchEvent@app@cinder@@V?$function@$$A6AXAAVTouchEvent@app@cinder@@@Z@boost@@@signals2@boost@@Vmutex@45@@detail@signals2@boost@@@boost@@@std@@@std@@@1@1Uforward_iterator_tag@1@@Z 00417690 f i cinder:Window.obj
 0001:00016690       ??$_Insert_range@V?$_List_const_iterator@V?$_List_val@U?$_List_simple_types@V?$shared_ptr@V?$connection_body@U?$pair@W4slot_meta_group@detail@signals2@boost@@V?$optional@H@4@@std@@V?$slot0@_NV?$function@$$A6A_NXZ@boost@@@signals2@boost@@Vmutex@45@@detail@signals2@boost@@@boost@@@std@@@std@@@std@@@?$list@V?$shared_ptr@V?$connection_body@U?$pair@W4slot_meta_group@detail@signals2@boost@@V?$optional@H@4@@std@@V?$slot0@_NV?$function@$$A6A_NXZ@boost@@@signals2@boost@@Vmutex@45@@detail@signals2@boost@@@boost@@V?$allocator@V?$shared_ptr@V?$connection_body@U?$pair@W4slot_meta_group@detail@signals2@boost@@V?$optional@H@4@@std@@V?$slot0@_NV?$function@$$A6A_NXZ@boost@@@signals2@boost@@Vmutex@45@@detail@signals2@boost@@@boost@@@std@@@std@@QAEXV?$_List_unchecked_const_iterator@V?$_List_val@U?$_List_simple_types@V?$shared_ptr@V?$connection_body@U?$pair@W4slot_meta_group@detail@signals2@boost@@V?$optional@H@4@@std@@V?$slot0@_NV?$function@$$A6A_NXZ@boost@@@signals2@boost@@Vmutex@45@@detail@signals2@boost@@@boost@@@std@@@std@@U_Iterator_base0@2@@1@V?$_List_const_iterator@V?$_List_val@U?$_List_simple_types@V?$shared_ptr@V?$connection_body@U?$pair@W4slot_meta_group@detail@signals2@boost@@V?$optional@H@4@@std@@V?$slot0@_NV?$function@$$A6A_NXZ@boost@@@signals2@boost@@Vmutex@45@@detail@signals2@boost@@@boost@@@std@@@std@@@1@1Uforward_iterator_tag@1@@Z 00417690 f i cinder:AppBasic.obj
 0001:00016690       ??$_Insert_range@V?$_List_const_iterator@V?$_List_val@U?$_List_simple_types@V?$shared_ptr@V?$connection_body@U?$pair@W4slot_meta_group@detail@signals2@boost@@V?$optional@H@4@@std@@V?$slot0@XV?$function@$$A6AXXZ@boost@@@signals2@boost@@Vmutex@45@@detail@signals2@boost@@@boost@@@std@@@std@@@std@@@?$list@V?$shared_ptr@V?$connection_body@U?$pair@W4slot_meta_group@detail@signals2@boost@@V?$optional@H@4@@std@@V?$slot0@XV?$function@$$A6AXXZ@boost@@@signals2@boost@@Vmutex@45@@detail@signals2@boost@@@boost@@V?$allocator@V?$shared_ptr@V?$connection_body@U?$pair@W4slot_meta_group@detail@signals2@boost@@V?$optional@H@4@@std@@V?$slot0@XV?$function@$$A6AXXZ@boost@@@signals2@boost@@Vmutex@45@@detail@signals2@boost@@@boost@@@std@@@std@@QAEXV?$_List_unchecked_const_iterator@V?$_List_val@U?$_List_simple_types@V?$shared_ptr@V?$connection_body@U?$pair@W4slot_meta_group@detail@signals2@boost@@V?$optional@H@4@@std@@V?$slot0@XV?$function@$$A6AXXZ@boost@@@signals2@boost@@Vmutex@45@@detail@signals2@boost@@@boost@@@std@@@std@@U_Iterator_base0@2@@1@V?$_List_const_iterator@V?$_List_val@U?$_List_simple_types@V?$shared_ptr@V?$connection_body@U?$pair@W4slot_meta_group@detail@signals2@boost@@V?$optional@H@4@@std@@V?$slot0@XV?$function@$$A6AXXZ@boost@@@signals2@boost@@Vmutex@45@@detail@signals2@boost@@@boost@@@std@@@std@@@1@1Uforward_iterator_tag@1@@Z 00417690 f i cinder:Window.obj
 0001:00016760       ??$_Resetp@V?$basic_ostream@DU?$char_traits@D@std@@@std@@V<lambda_69588d13dcacf0fdf4c116f96accf98f>@@@?$shared_ptr@V?$basic_ostream@DU?$char_traits@D@std@@@std@@@std@@AAEXPAV?$basic_ostream@DU?$char_traits@D@std@@@1@V<lambda_69588d13dcacf0fdf4c116f96accf98f>@@@Z 00417760 f i cinder:AppBasic.obj
 0001:00016820       ??$_Uninit_move@PAV?$basic_string@DU?$char_traits@D@std@@V?$allocator@D@2@@std@@PAV12@V?$allocator@V?$basic_string@DU?$char_traits@D@std@@V?$allocator@D@2@@std@@@2@V12@@std@@YAPAV?$basic_string@DU?$char_traits@D@std@@V?$allocator@D@2@@0@PAV10@00AAU?$_Wrap_alloc@V?$allocator@V?$basic_string@DU?$char_traits@D@std@@V?$allocator@D@2@@std@@@std@@@0@0U_Nonscalar_ptr_iterator_tag@0@@Z 00417820 f i cinder:AppBasic.obj
 0001:000168b0       ??$checked_delete@V?$grouped_list@HU?$less@H@std@@V?$shared_ptr@V?$connection_body@U?$pair@W4slot_meta_group@detail@signals2@boost@@V?$optional@H@4@@std@@V?$slot1@XAAVKeyEvent@app@cinder@@V?$function@$$A6AXAAVKeyEvent@app@cinder@@@Z@boost@@@signals2@boost@@Vmutex@45@@detail@signals2@boost@@@boost@@@detail@signals2@boost@@@boost@@YAXPAV?$grouped_list@HU?$less@H@std@@V?$shared_ptr@V?$connection_body@U?$pair@W4slot_meta_group@detail@signals2@boost@@V?$optional@H@4@@std@@V?$slot1@XAAVKeyEvent@app@cinder@@V?$function@$$A6AXAAVKeyEvent@app@cinder@@@Z@boost@@@signals2@boost@@Vmutex@45@@detail@signals2@boost@@@boost@@@detail@signals2@0@@Z 004178b0 f i cinder:Window.obj
 0001:000168b0       ??$checked_delete@V?$grouped_list@HU?$less@H@std@@V?$shared_ptr@V?$connection_body@U?$pair@W4slot_meta_group@detail@signals2@boost@@V?$optional@H@4@@std@@V?$slot0@XV?$function@$$A6AXXZ@boost@@@signals2@boost@@Vmutex@45@@detail@signals2@boost@@@boost@@@detail@signals2@boost@@@boost@@YAXPAV?$grouped_list@HU?$less@H@std@@V?$shared_ptr@V?$connection_body@U?$pair@W4slot_meta_group@detail@signals2@boost@@V?$optional@H@4@@std@@V?$slot0@XV?$function@$$A6AXXZ@boost@@@signals2@boost@@Vmutex@45@@detail@signals2@boost@@@boost@@@detail@signals2@0@@Z 004178b0 f i cinder:Window.obj
 0001:000168b0       ??$checked_delete@V?$grouped_list@HU?$less@H@std@@V?$shared_ptr@V?$connection_body@U?$pair@W4slot_meta_group@detail@signals2@boost@@V?$optional@H@4@@std@@V?$slot1@XAAVFileDropEvent@app@cinder@@V?$function@$$A6AXAAVFileDropEvent@app@cinder@@@Z@boost@@@signals2@boost@@Vmutex@45@@detail@signals2@boost@@@boost@@@detail@signals2@boost@@@boost@@YAXPAV?$grouped_list@HU?$less@H@std@@V?$shared_ptr@V?$connection_body@U?$pair@W4slot_meta_group@detail@signals2@boost@@V?$optional@H@4@@std@@V?$slot1@XAAVFileDropEvent@app@cinder@@V?$function@$$A6AXAAVFileDropEvent@app@cinder@@@Z@boost@@@signals2@boost@@Vmutex@45@@detail@signals2@boost@@@boost@@@detail@signals2@0@@Z 004178b0 f i cinder:Window.obj
 0001:000168b0       ??$checked_delete@V?$grouped_list@HU?$less@H@std@@V?$shared_ptr@V?$connection_body@U?$pair@W4slot_meta_group@detail@signals2@boost@@V?$optional@H@4@@std@@V?$slot1@XAAVTouchEvent@app@cinder@@V?$function@$$A6AXAAVTouchEvent@app@cinder@@@Z@boost@@@signals2@boost@@Vmutex@45@@detail@signals2@boost@@@boost@@@detail@signals2@boost@@@boost@@YAXPAV?$grouped_list@HU?$less@H@std@@V?$shared_ptr@V?$connection_body@U?$pair@W4slot_meta_group@detail@signals2@boost@@V?$optional@H@4@@std@@V?$slot1@XAAVTouchEvent@app@cinder@@V?$function@$$A6AXAAVTouchEvent@app@cinder@@@Z@boost@@@signals2@boost@@Vmutex@45@@detail@signals2@boost@@@boost@@@detail@signals2@0@@Z 004178b0 f i cinder:Window.obj
 0001:000168b0       ??$checked_delete@V?$grouped_list@HU?$less@H@std@@V?$shared_ptr@V?$connection_body@U?$pair@W4slot_meta_group@detail@signals2@boost@@V?$optional@H@4@@std@@V?$slot1@XAAVMouseEvent@app@cinder@@V?$function@$$A6AXAAVMouseEvent@app@cinder@@@Z@boost@@@signals2@boost@@Vmutex@45@@detail@signals2@boost@@@boost@@@detail@signals2@boost@@@boost@@YAXPAV?$grouped_list@HU?$less@H@std@@V?$shared_ptr@V?$connection_body@U?$pair@W4slot_meta_group@detail@signals2@boost@@V?$optional@H@4@@std@@V?$slot1@XAAVMouseEvent@app@cinder@@V?$function@$$A6AXAAVMouseEvent@app@cinder@@@Z@boost@@@signals2@boost@@Vmutex@45@@detail@signals2@boost@@@boost@@@detail@signals2@0@@Z 004178b0 f i cinder:Window.obj
 0001:000168b0       ??$checked_delete@V?$grouped_list@HU?$less@H@std@@V?$shared_ptr@V?$connection_body@U?$pair@W4slot_meta_group@detail@signals2@boost@@V?$optional@H@4@@std@@V?$slot0@_NV?$function@$$A6A_NXZ@boost@@@signals2@boost@@Vmutex@45@@detail@signals2@boost@@@boost@@@detail@signals2@boost@@@boost@@YAXPAV?$grouped_list@HU?$less@H@std@@V?$shared_ptr@V?$connection_body@U?$pair@W4slot_meta_group@detail@signals2@boost@@V?$optional@H@4@@std@@V?$slot0@_NV?$function@$$A6A_NXZ@boost@@@signals2@boost@@Vmutex@45@@detail@signals2@boost@@@boost@@@detail@signals2@0@@Z 004178b0 f i cinder:AppBasic.obj
 0001:00016900       ??0?$_Tree@V?$_Tmap_traits@U?$pair@W4slot_meta_group@detail@signals2@boost@@V?$optional@H@4@@std@@V?$_List_iterator@V?$_List_val@U?$_List_simple_types@V?$shared_ptr@V?$connection_body@U?$pair@W4slot_meta_group@detail@signals2@boost@@V?$optional@H@4@@std@@V?$slot1@XAAVKeyEvent@app@cinder@@V?$function@$$A6AXAAVKeyEvent@app@cinder@@@Z@boost@@@signals2@boost@@Vmutex@45@@detail@signals2@boost@@@boost@@@std@@@std@@@2@V?$group_key_less@HU?$less@H@std@@@detail@signals2@boost@@V?$allocator@U?$pair@$$CBU?$pair@W4slot_meta_group@detail@signals2@boost@@V?$optional@H@4@@std@@V?$_List_iterator@V?$_List_val@U?$_List_simple_types@V?$shared_ptr@V?$connection_body@U?$pair@W4slot_meta_group@detail@signals2@boost@@V?$optional@H@4@@std@@V?$slot1@XAAVKeyEvent@app@cinder@@V?$function@$$A6AXAAVKeyEvent@app@cinder@@@Z@boost@@@signals2@boost@@Vmutex@45@@detail@signals2@boost@@@boost@@@std@@@std@@@2@@std@@@2@$0A@@std@@@std@@QAE@ABV01@ABV?$allocator@U?$pair@$$CBU?$pair@W4slot_meta_group@detail@signals2@boost@@V?$optional@H@4@@std@@V?$_List_iterator@V?$_List_val@U?$_List_simple_types@V?$shared_ptr@V?$connection_body@U?$pair@W4slot_meta_group@detail@signals2@boost@@V?$optional@H@4@@std@@V?$slot1@XAAVKeyEvent@app@cinder@@V?$function@$$A6AXAAVKeyEvent@app@cinder@@@Z@boost@@@signals2@boost@@Vmutex@45@@detail@signals2@boost@@@boost@@@std@@@std@@@2@@std@@@1@@Z 00417900 f i cinder:Window.obj
 0001:00016900       ??0?$_Tree@V?$_Tmap_traits@U?$pair@W4slot_meta_group@detail@signals2@boost@@V?$optional@H@4@@std@@V?$_List_iterator@V?$_List_val@U?$_List_simple_types@V?$shared_ptr@V?$connection_body@U?$pair@W4slot_meta_group@detail@signals2@boost@@V?$optional@H@4@@std@@V?$slot1@XAAVFileDropEvent@app@cinder@@V?$function@$$A6AXAAVFileDropEvent@app@cinder@@@Z@boost@@@signals2@boost@@Vmutex@45@@detail@signals2@boost@@@boost@@@std@@@std@@@2@V?$group_key_less@HU?$less@H@std@@@detail@signals2@boost@@V?$allocator@U?$pair@$$CBU?$pair@W4slot_meta_group@detail@signals2@boost@@V?$optional@H@4@@std@@V?$_List_iterator@V?$_List_val@U?$_List_simple_types@V?$shared_ptr@V?$connection_body@U?$pair@W4slot_meta_group@detail@signals2@boost@@V?$optional@H@4@@std@@V?$slot1@XAAVFileDropEvent@app@cinder@@V?$function@$$A6AXAAVFileDropEvent@app@cinder@@@Z@boost@@@signals2@boost@@Vmutex@45@@detail@signals2@boost@@@boost@@@std@@@std@@@2@@std@@@2@$0A@@std@@@std@@QAE@ABV01@ABV?$allocator@U?$pair@$$CBU?$pair@W4slot_meta_group@detail@signals2@boost@@V?$optional@H@4@@std@@V?$_List_iterator@V?$_List_val@U?$_List_simple_types@V?$shared_ptr@V?$connection_body@U?$pair@W4slot_meta_group@detail@signals2@boost@@V?$optional@H@4@@std@@V?$slot1@XAAVFileDropEvent@app@cinder@@V?$function@$$A6AXAAVFileDropEvent@app@cinder@@@Z@boost@@@signals2@boost@@Vmutex@45@@detail@signals2@boost@@@boost@@@std@@@std@@@2@@std@@@1@@Z 00417900 f i cinder:Window.obj
 0001:00016900       ??0?$_Tree@V?$_Tmap_traits@U?$pair@W4slot_meta_group@detail@signals2@boost@@V?$optional@H@4@@std@@V?$_List_iterator@V?$_List_val@U?$_List_simple_types@V?$shared_ptr@V?$connection_body@U?$pair@W4slot_meta_group@detail@signals2@boost@@V?$optional@H@4@@std@@V?$slot0@XV?$function@$$A6AXXZ@boost@@@signals2@boost@@Vmutex@45@@detail@signals2@boost@@@boost@@@std@@@std@@@2@V?$group_key_less@HU?$less@H@std@@@detail@signals2@boost@@V?$allocator@U?$pair@$$CBU?$pair@W4slot_meta_group@detail@signals2@boost@@V?$optional@H@4@@std@@V?$_List_iterator@V?$_List_val@U?$_List_simple_types@V?$shared_ptr@V?$connection_body@U?$pair@W4slot_meta_group@detail@signals2@boost@@V?$optional@H@4@@std@@V?$slot0@XV?$function@$$A6AXXZ@boost@@@signals2@boost@@Vmutex@45@@detail@signals2@boost@@@boost@@@std@@@std@@@2@@std@@@2@$0A@@std@@@std@@QAE@ABV01@ABV?$allocator@U?$pair@$$CBU?$pair@W4slot_meta_group@detail@signals2@boost@@V?$optional@H@4@@std@@V?$_List_iterator@V?$_List_val@U?$_List_simple_types@V?$shared_ptr@V?$connection_body@U?$pair@W4slot_meta_group@detail@signals2@boost@@V?$optional@H@4@@std@@V?$slot0@XV?$function@$$A6AXXZ@boost@@@signals2@boost@@Vmutex@45@@detail@signals2@boost@@@boost@@@std@@@std@@@2@@std@@@1@@Z 00417900 f i cinder:Window.obj
 0001:00016900       ??0?$_Tree@V?$_Tmap_traits@U?$pair@W4slot_meta_group@detail@signals2@boost@@V?$optional@H@4@@std@@V?$_List_iterator@V?$_List_val@U?$_List_simple_types@V?$shared_ptr@V?$connection_body@U?$pair@W4slot_meta_group@detail@signals2@boost@@V?$optional@H@4@@std@@V?$slot1@XAAVTouchEvent@app@cinder@@V?$function@$$A6AXAAVTouchEvent@app@cinder@@@Z@boost@@@signals2@boost@@Vmutex@45@@detail@signals2@boost@@@boost@@@std@@@std@@@2@V?$group_key_less@HU?$less@H@std@@@detail@signals2@boost@@V?$allocator@U?$pair@$$CBU?$pair@W4slot_meta_group@detail@signals2@boost@@V?$optional@H@4@@std@@V?$_List_iterator@V?$_List_val@U?$_List_simple_types@V?$shared_ptr@V?$connection_body@U?$pair@W4slot_meta_group@detail@signals2@boost@@V?$optional@H@4@@std@@V?$slot1@XAAVTouchEvent@app@cinder@@V?$function@$$A6AXAAVTouchEvent@app@cinder@@@Z@boost@@@signals2@boost@@Vmutex@45@@detail@signals2@boost@@@boost@@@std@@@std@@@2@@std@@@2@$0A@@std@@@std@@QAE@ABV01@ABV?$allocator@U?$pair@$$CBU?$pair@W4slot_meta_group@detail@signals2@boost@@V?$optional@H@4@@std@@V?$_List_iterator@V?$_List_val@U?$_List_simple_types@V?$shared_ptr@V?$connection_body@U?$pair@W4slot_meta_group@detail@signals2@boost@@V?$optional@H@4@@std@@V?$slot1@XAAVTouchEvent@app@cinder@@V?$function@$$A6AXAAVTouchEvent@app@cinder@@@Z@boost@@@signals2@boost@@Vmutex@45@@detail@signals2@boost@@@boost@@@std@@@std@@@2@@std@@@1@@Z 00417900 f i cinder:Window.obj
 0001:00016900       ??0?$_Tree@V?$_Tmap_traits@U?$pair@W4slot_meta_group@detail@signals2@boost@@V?$optional@H@4@@std@@V?$_List_iterator@V?$_List_val@U?$_List_simple_types@V?$shared_ptr@V?$connection_body@U?$pair@W4slot_meta_group@detail@signals2@boost@@V?$optional@H@4@@std@@V?$slot0@_NV?$function@$$A6A_NXZ@boost@@@signals2@boost@@Vmutex@45@@detail@signals2@boost@@@boost@@@std@@@std@@@2@V?$group_key_less@HU?$less@H@std@@@detail@signals2@boost@@V?$allocator@U?$pair@$$CBU?$pair@W4slot_meta_group@detail@signals2@boost@@V?$optional@H@4@@std@@V?$_List_iterator@V?$_List_val@U?$_List_simple_types@V?$shared_ptr@V?$connection_body@U?$pair@W4slot_meta_group@detail@signals2@boost@@V?$optional@H@4@@std@@V?$slot0@_NV?$function@$$A6A_NXZ@boost@@@signals2@boost@@Vmutex@45@@detail@signals2@boost@@@boost@@@std@@@std@@@2@@std@@@2@$0A@@std@@@std@@QAE@ABV01@ABV?$allocator@U?$pair@$$CBU?$pair@W4slot_meta_group@detail@signals2@boost@@V?$optional@H@4@@std@@V?$_List_iterator@V?$_List_val@U?$_List_simple_types@V?$shared_ptr@V?$connection_body@U?$pair@W4slot_meta_group@detail@signals2@boost@@V?$optional@H@4@@std@@V?$slot0@_NV?$function@$$A6A_NXZ@boost@@@signals2@boost@@Vmutex@45@@detail@signals2@boost@@@boost@@@std@@@std@@@2@@std@@@1@@Z 00417900 f i cinder:AppBasic.obj
 0001:00016900       ??0?$_Tree@V?$_Tmap_traits@U?$pair@W4slot_meta_group@detail@signals2@boost@@V?$optional@H@4@@std@@V?$_List_iterator@V?$_List_val@U?$_List_simple_types@V?$shared_ptr@V?$connection_body@U?$pair@W4slot_meta_group@detail@signals2@boost@@V?$optional@H@4@@std@@V?$slot1@XAAVMouseEvent@app@cinder@@V?$function@$$A6AXAAVMouseEvent@app@cinder@@@Z@boost@@@signals2@boost@@Vmutex@45@@detail@signals2@boost@@@boost@@@std@@@std@@@2@V?$group_key_less@HU?$less@H@std@@@detail@signals2@boost@@V?$allocator@U?$pair@$$CBU?$pair@W4slot_meta_group@detail@signals2@boost@@V?$optional@H@4@@std@@V?$_List_iterator@V?$_List_val@U?$_List_simple_types@V?$shared_ptr@V?$connection_body@U?$pair@W4slot_meta_group@detail@signals2@boost@@V?$optional@H@4@@std@@V?$slot1@XAAVMouseEvent@app@cinder@@V?$function@$$A6AXAAVMouseEvent@app@cinder@@@Z@boost@@@signals2@boost@@Vmutex@45@@detail@signals2@boost@@@boost@@@std@@@std@@@2@@std@@@2@$0A@@std@@@std@@QAE@ABV01@ABV?$allocator@U?$pair@$$CBU?$pair@W4slot_meta_group@detail@signals2@boost@@V?$optional@H@4@@std@@V?$_List_iterator@V?$_List_val@U?$_List_simple_types@V?$shared_ptr@V?$connection_body@U?$pair@W4slot_meta_group@detail@signals2@boost@@V?$optional@H@4@@std@@V?$slot1@XAAVMouseEvent@app@cinder@@V?$function@$$A6AXAAVMouseEvent@app@cinder@@@Z@boost@@@signals2@boost@@Vmutex@45@@detail@signals2@boost@@@boost@@@std@@@std@@@2@@std@@@1@@Z 00417900 f i cinder:Window.obj
 0001:000169a0       ??0?$basic_string@_WU?$char_traits@_W@std@@V?$allocator@_W@2@@std@@QAE@PB_W@Z 004179a0 f i cinder:AppBasic.obj
 0001:00016a00       ??0?$grouped_list@HU?$less@H@std@@V?$shared_ptr@V?$connection_body@U?$pair@W4slot_meta_group@detail@signals2@boost@@V?$optional@H@4@@std@@V?$slot0@XV?$function@$$A6AXXZ@boost@@@signals2@boost@@Vmutex@45@@detail@signals2@boost@@@boost@@@detail@signals2@boost@@QAE@ABV0123@@Z 00417a00 f i cinder:Window.obj
 0001:00016a00       ??0?$grouped_list@HU?$less@H@std@@V?$shared_ptr@V?$connection_body@U?$pair@W4slot_meta_group@detail@signals2@boost@@V?$optional@H@4@@std@@V?$slot1@XAAVTouchEvent@app@cinder@@V?$function@$$A6AXAAVTouchEvent@app@cinder@@@Z@boost@@@signals2@boost@@Vmutex@45@@detail@signals2@boost@@@boost@@@detail@signals2@boost@@QAE@ABV0123@@Z 00417a00 f i cinder:Window.obj
 0001:00016a00       ??0?$grouped_list@HU?$less@H@std@@V?$shared_ptr@V?$connection_body@U?$pair@W4slot_meta_group@detail@signals2@boost@@V?$optional@H@4@@std@@V?$slot0@_NV?$function@$$A6A_NXZ@boost@@@signals2@boost@@Vmutex@45@@detail@signals2@boost@@@boost@@@detail@signals2@boost@@QAE@ABV0123@@Z 00417a00 f i cinder:AppBasic.obj
 0001:00016a00       ??0?$grouped_list@HU?$less@H@std@@V?$shared_ptr@V?$connection_body@U?$pair@W4slot_meta_group@detail@signals2@boost@@V?$optional@H@4@@std@@V?$slot1@XAAVMouseEvent@app@cinder@@V?$function@$$A6AXAAVMouseEvent@app@cinder@@@Z@boost@@@signals2@boost@@Vmutex@45@@detail@signals2@boost@@@boost@@@detail@signals2@boost@@QAE@ABV0123@@Z 00417a00 f i cinder:Window.obj
 0001:00016a00       ??0?$grouped_list@HU?$less@H@std@@V?$shared_ptr@V?$connection_body@U?$pair@W4slot_meta_group@detail@signals2@boost@@V?$optional@H@4@@std@@V?$slot1@XAAVKeyEvent@app@cinder@@V?$function@$$A6AXAAVKeyEvent@app@cinder@@@Z@boost@@@signals2@boost@@Vmutex@45@@detail@signals2@boost@@@boost@@@detail@signals2@boost@@QAE@ABV0123@@Z 00417a00 f i cinder:Window.obj
 0001:00016a00       ??0?$grouped_list@HU?$less@H@std@@V?$shared_ptr@V?$connection_body@U?$pair@W4slot_meta_group@detail@signals2@boost@@V?$optional@H@4@@std@@V?$slot1@XAAVFileDropEvent@app@cinder@@V?$function@$$A6AXAAVFileDropEvent@app@cinder@@@Z@boost@@@signals2@boost@@Vmutex@45@@detail@signals2@boost@@@boost@@@detail@signals2@boost@@QAE@ABV0123@@Z 00417a00 f i cinder:Window.obj
 0001:00016b90       ??0?$list@V?$shared_ptr@V?$connection_body@U?$pair@W4slot_meta_group@detail@signals2@boost@@V?$optional@H@4@@std@@V?$slot0@_NV?$function@$$A6A_NXZ@boost@@@signals2@boost@@Vmutex@45@@detail@signals2@boost@@@boost@@V?$allocator@V?$shared_ptr@V?$connection_body@U?$pair@W4slot_meta_group@detail@signals2@boost@@V?$optional@H@4@@std@@V?$slot0@_NV?$function@$$A6A_NXZ@boost@@@signals2@boost@@Vmutex@45@@detail@signals2@boost@@@boost@@@std@@@std@@QAE@ABV01@@Z 00417b90 f i cinder:AppBasic.obj
 0001:00016b90       ??0?$list@V?$shared_ptr@V?$connection_body@U?$pair@W4slot_meta_group@detail@signals2@boost@@V?$optional@H@4@@std@@V?$slot1@XAAVMouseEvent@app@cinder@@V?$function@$$A6AXAAVMouseEvent@app@cinder@@@Z@boost@@@signals2@boost@@Vmutex@45@@detail@signals2@boost@@@boost@@V?$allocator@V?$shared_ptr@V?$connection_body@U?$pair@W4slot_meta_group@detail@signals2@boost@@V?$optional@H@4@@std@@V?$slot1@XAAVMouseEvent@app@cinder@@V?$function@$$A6AXAAVMouseEvent@app@cinder@@@Z@boost@@@signals2@boost@@Vmutex@45@@detail@signals2@boost@@@boost@@@std@@@std@@QAE@ABV01@@Z 00417b90 f i cinder:Window.obj
 0001:00016b90       ??0?$list@V?$shared_ptr@V?$connection_body@U?$pair@W4slot_meta_group@detail@signals2@boost@@V?$optional@H@4@@std@@V?$slot0@XV?$function@$$A6AXXZ@boost@@@signals2@boost@@Vmutex@45@@detail@signals2@boost@@@boost@@V?$allocator@V?$shared_ptr@V?$connection_body@U?$pair@W4slot_meta_group@detail@signals2@boost@@V?$optional@H@4@@std@@V?$slot0@XV?$function@$$A6AXXZ@boost@@@signals2@boost@@Vmutex@45@@detail@signals2@boost@@@boost@@@std@@@std@@QAE@ABV01@@Z 00417b90 f i cinder:Window.obj
 0001:00016b90       ??0?$list@V?$shared_ptr@V?$connection_body@U?$pair@W4slot_meta_group@detail@signals2@boost@@V?$optional@H@4@@std@@V?$slot1@XAAVKeyEvent@app@cinder@@V?$function@$$A6AXAAVKeyEvent@app@cinder@@@Z@boost@@@signals2@boost@@Vmutex@45@@detail@signals2@boost@@@boost@@V?$allocator@V?$shared_ptr@V?$connection_body@U?$pair@W4slot_meta_group@detail@signals2@boost@@V?$optional@H@4@@std@@V?$slot1@XAAVKeyEvent@app@cinder@@V?$function@$$A6AXAAVKeyEvent@app@cinder@@@Z@boost@@@signals2@boost@@Vmutex@45@@detail@signals2@boost@@@boost@@@std@@@std@@QAE@ABV01@@Z 00417b90 f i cinder:Window.obj
 0001:00016b90       ??0?$list@V?$shared_ptr@V?$connection_body@U?$pair@W4slot_meta_group@detail@signals2@boost@@V?$optional@H@4@@std@@V?$slot1@XAAVFileDropEvent@app@cinder@@V?$function@$$A6AXAAVFileDropEvent@app@cinder@@@Z@boost@@@signals2@boost@@Vmutex@45@@detail@signals2@boost@@@boost@@V?$allocator@V?$shared_ptr@V?$connection_body@U?$pair@W4slot_meta_group@detail@signals2@boost@@V?$optional@H@4@@std@@V?$slot1@XAAVFileDropEvent@app@cinder@@V?$function@$$A6AXAAVFileDropEvent@app@cinder@@@Z@boost@@@signals2@boost@@Vmutex@45@@detail@signals2@boost@@@boost@@@std@@@std@@QAE@ABV01@@Z 00417b90 f i cinder:Window.obj
 0001:00016b90       ??0?$list@V?$shared_ptr@V?$connection_body@U?$pair@W4slot_meta_group@detail@signals2@boost@@V?$optional@H@4@@std@@V?$slot1@XAAVTouchEvent@app@cinder@@V?$function@$$A6AXAAVTouchEvent@app@cinder@@@Z@boost@@@signals2@boost@@Vmutex@45@@detail@signals2@boost@@@boost@@V?$allocator@V?$shared_ptr@V?$connection_body@U?$pair@W4slot_meta_group@detail@signals2@boost@@V?$optional@H@4@@std@@V?$slot1@XAAVTouchEvent@app@cinder@@V?$function@$$A6AXAAVTouchEvent@app@cinder@@@Z@boost@@@signals2@boost@@Vmutex@45@@detail@signals2@boost@@@boost@@@std@@@std@@QAE@ABV01@@Z 00417b90 f i cinder:Window.obj
 0001:00016c30       ??0?$signal0_impl@_NUBooleanAndEventCombiner@app@cinder@@HU?$less@H@std@@V?$function@$$A6A_NXZ@boost@@V?$function@$$A6A_NABVconnection@signals2@boost@@@Z@7@Vmutex@signals2@7@@detail@signals2@boost@@QAE@ABUBooleanAndEventCombiner@app@cinder@@ABU?$less@H@std@@@Z 00417c30 f i cinder:AppBasic.obj
 0001:00016d40       ??0AppBasic@app@cinder@@QAE@XZ 00417d40 f   cinder:AppBasic.obj
 0001:00016e30       ??0invocation_state@?$signal0_impl@_NUBooleanAndEventCombiner@app@cinder@@HU?$less@H@std@@V?$function@$$A6A_NXZ@boost@@V?$function@$$A6A_NABVconnection@signals2@boost@@@Z@7@Vmutex@signals2@7@@detail@signals2@boost@@QAE@ABV?$grouped_list@HU?$less@H@std@@V?$shared_ptr@V?$connection_body@U?$pair@W4slot_meta_group@detail@signals2@boost@@V?$optional@H@4@@std@@V?$slot0@_NV?$function@$$A6A_NXZ@boost@@@signals2@boost@@Vmutex@45@@detail@signals2@boost@@@boost@@@234@ABUBooleanAndEventCombiner@app@cinder@@@Z 00417e30 f i cinder:AppBasic.obj
 0001:00016ec0       ??1?$signal@$$A6A_NXZUBooleanAndEventCombiner@app@cinder@@HU?$less@H@std@@V?$function@$$A6A_NXZ@boost@@V?$function@$$A6A_NABVconnection@signals2@boost@@@Z@7@Vmutex@signals2@7@@signals2@boost@@UAE@XZ 00417ec0 f i cinder:AppBasic.obj
 0001:00016f50       ??1AppBasic@app@cinder@@UAE@XZ 00417f50 f   cinder:AppBasic.obj
 0001:00017050       ??1Settings@AppBasic@app@cinder@@UAE@XZ 00418050 f i cinder:AppBasic.obj
 0001:00017060       ??_G?$signal@$$A6A_NXZUBooleanAndEventCombiner@app@cinder@@HU?$less@H@std@@V?$function@$$A6A_NXZ@boost@@V?$function@$$A6A_NABVconnection@signals2@boost@@@Z@7@Vmutex@signals2@7@@signals2@boost@@UAEPAXI@Z 00418060 f i cinder:AppBasic.obj
 0001:00017060       ??_E?$signal@$$A6A_NXZUBooleanAndEventCombiner@app@cinder@@HU?$less@H@std@@V?$function@$$A6A_NXZ@boost@@V?$function@$$A6A_NABVconnection@signals2@boost@@@Z@7@Vmutex@signals2@7@@signals2@boost@@UAEPAXI@Z 00418060 f i cinder:AppBasic.obj
 0001:00017060       ??_G?$signal0@_NUBooleanAndEventCombiner@app@cinder@@HU?$less@H@std@@V?$function@$$A6A_NXZ@boost@@V?$function@$$A6A_NABVconnection@signals2@boost@@@Z@7@Vmutex@signals2@7@@signals2@boost@@UAEPAXI@Z 00418060 f i cinder:AppBasic.obj
 0001:00017060       ??_E?$signal0@_NUBooleanAndEventCombiner@app@cinder@@HU?$less@H@std@@V?$function@$$A6A_NXZ@boost@@V?$function@$$A6A_NABVconnection@signals2@boost@@@Z@7@Vmutex@signals2@7@@signals2@boost@@UAEPAXI@Z 00418060 f i cinder:AppBasic.obj
 0001:00017100       ??_GAppBasic@app@cinder@@UAEPAXI@Z 00418100 f i cinder:AppBasic.obj
 0001:00017100       ??_EAppBasic@app@cinder@@UAEPAXI@Z 00418100 f i cinder:AppBasic.obj
 0001:00017130       ??_GSettings@AppBasic@app@cinder@@UAEPAXI@Z 00418130 f i cinder:AppBasic.obj
 0001:00017130       ??_GSettings@App@app@cinder@@UAEPAXI@Z 00418130 f i cinder:App.obj
 0001:00017130       ??_ESettings@AppBasic@app@cinder@@UAEPAXI@Z 00418130 f i cinder:AppBasic.obj
 0001:00017130       ??_ESettings@App@app@cinder@@UAEPAXI@Z 00418130 f i cinder:App.obj
 0001:00017160       ?_Buyheadnode@?$_Tree_alloc@$0A@U?$_Tree_base_types@U?$pair@$$CBU?$pair@W4slot_meta_group@detail@signals2@boost@@V?$optional@H@4@@std@@V?$_List_iterator@V?$_List_val@U?$_List_simple_types@V?$shared_ptr@V?$connection_body@U?$pair@W4slot_meta_group@detail@signals2@boost@@V?$optional@H@4@@std@@V?$slot0@XV?$function@$$A6AXXZ@boost@@@signals2@boost@@Vmutex@45@@detail@signals2@boost@@@boost@@@std@@@std@@@2@@std@@V?$allocator@U?$pair@$$CBU?$pair@W4slot_meta_group@detail@signals2@boost@@V?$optional@H@4@@std@@V?$_List_iterator@V?$_List_val@U?$_List_simple_types@V?$shared_ptr@V?$connection_body@U?$pair@W4slot_meta_group@detail@signals2@boost@@V?$optional@H@4@@std@@V?$slot0@XV?$function@$$A6AXXZ@boost@@@signals2@boost@@Vmutex@45@@detail@signals2@boost@@@boost@@@std@@@std@@@2@@std@@@2@@std@@@std@@QAEPAU?$_Tree_node@U?$pair@$$CBU?$pair@W4slot_meta_group@detail@signals2@boost@@V?$optional@H@4@@std@@V?$_List_iterator@V?$_List_val@U?$_List_simple_types@V?$shared_ptr@V?$connection_body@U?$pair@W4slot_meta_group@detail@signals2@boost@@V?$optional@H@4@@std@@V?$slot0@XV?$function@$$A6AXXZ@boost@@@signals2@boost@@Vmutex@45@@detail@signals2@boost@@@boost@@@std@@@std@@@2@@std@@PAX@2@XZ 00418160 f i cinder:Window.obj
 0001:00017160       ?_Buyheadnode@?$_Tree_alloc@$0A@U?$_Tree_base_types@U?$pair@$$CBU?$pair@W4slot_meta_group@detail@signals2@boost@@V?$optional@H@4@@std@@V?$_List_iterator@V?$_List_val@U?$_List_simple_types@V?$shared_ptr@V?$connection_body@U?$pair@W4slot_meta_group@detail@signals2@boost@@V?$optional@H@4@@std@@V?$slot1@XAAVFileDropEvent@app@cinder@@V?$function@$$A6AXAAVFileDropEvent@app@cinder@@@Z@boost@@@signals2@boost@@Vmutex@45@@detail@signals2@boost@@@boost@@@std@@@std@@@2@@std@@V?$allocator@U?$pair@$$CBU?$pair@W4slot_meta_group@detail@signals2@boost@@V?$optional@H@4@@std@@V?$_List_iterator@V?$_List_val@U?$_List_simple_types@V?$shared_ptr@V?$connection_body@U?$pair@W4slot_meta_group@detail@signals2@boost@@V?$optional@H@4@@std@@V?$slot1@XAAVFileDropEvent@app@cinder@@V?$function@$$A6AXAAVFileDropEvent@app@cinder@@@Z@boost@@@signals2@boost@@Vmutex@45@@detail@signals2@boost@@@boost@@@std@@@std@@@2@@std@@@2@@std@@@std@@QAEPAU?$_Tree_node@U?$pair@$$CBU?$pair@W4slot_meta_group@detail@signals2@boost@@V?$optional@H@4@@std@@V?$_List_iterator@V?$_List_val@U?$_List_simple_types@V?$shared_ptr@V?$connection_body@U?$pair@W4slot_meta_group@detail@signals2@boost@@V?$optional@H@4@@std@@V?$slot1@XAAVFileDropEvent@app@cinder@@V?$function@$$A6AXAAVFileDropEvent@app@cinder@@@Z@boost@@@signals2@boost@@Vmutex@45@@detail@signals2@boost@@@boost@@@std@@@std@@@2@@std@@PAX@2@XZ 00418160 f i cinder:Window.obj
 0001:00017160       ?_Buyheadnode@?$_Tree_alloc@$0A@U?$_Tree_base_types@U?$pair@$$CBU?$pair@W4slot_meta_group@detail@signals2@boost@@V?$optional@H@4@@std@@V?$_List_iterator@V?$_List_val@U?$_List_simple_types@V?$shared_ptr@V?$connection_body@U?$pair@W4slot_meta_group@detail@signals2@boost@@V?$optional@H@4@@std@@V?$slot0@_NV?$function@$$A6A_NXZ@boost@@@signals2@boost@@Vmutex@45@@detail@signals2@boost@@@boost@@@std@@@std@@@2@@std@@V?$allocator@U?$pair@$$CBU?$pair@W4slot_meta_group@detail@signals2@boost@@V?$optional@H@4@@std@@V?$_List_iterator@V?$_List_val@U?$_List_simple_types@V?$shared_ptr@V?$connection_body@U?$pair@W4slot_meta_group@detail@signals2@boost@@V?$optional@H@4@@std@@V?$slot0@_NV?$function@$$A6A_NXZ@boost@@@signals2@boost@@Vmutex@45@@detail@signals2@boost@@@boost@@@std@@@std@@@2@@std@@@2@@std@@@std@@QAEPAU?$_Tree_node@U?$pair@$$CBU?$pair@W4slot_meta_group@detail@signals2@boost@@V?$optional@H@4@@std@@V?$_List_iterator@V?$_List_val@U?$_List_simple_types@V?$shared_ptr@V?$connection_body@U?$pair@W4slot_meta_group@detail@signals2@boost@@V?$optional@H@4@@std@@V?$slot0@_NV?$function@$$A6A_NXZ@boost@@@signals2@boost@@Vmutex@45@@detail@signals2@boost@@@boost@@@std@@@std@@@2@@std@@PAX@2@XZ 00418160 f i cinder:AppBasic.obj
 0001:00017160       ?_Buyheadnode@?$_Tree_alloc@$0A@U?$_Tree_base_types@U?$pair@$$CBU?$pair@W4slot_meta_group@detail@signals2@boost@@V?$optional@H@4@@std@@V?$_List_iterator@V?$_List_val@U?$_List_simple_types@V?$shared_ptr@V?$connection_body@U?$pair@W4slot_meta_group@detail@signals2@boost@@V?$optional@H@4@@std@@V?$slot1@XAAVKeyEvent@app@cinder@@V?$function@$$A6AXAAVKeyEvent@app@cinder@@@Z@boost@@@signals2@boost@@Vmutex@45@@detail@signals2@boost@@@boost@@@std@@@std@@@2@@std@@V?$allocator@U?$pair@$$CBU?$pair@W4slot_meta_group@detail@signals2@boost@@V?$optional@H@4@@std@@V?$_List_iterator@V?$_List_val@U?$_List_simple_types@V?$shared_ptr@V?$connection_body@U?$pair@W4slot_meta_group@detail@signals2@boost@@V?$optional@H@4@@std@@V?$slot1@XAAVKeyEvent@app@cinder@@V?$function@$$A6AXAAVKeyEvent@app@cinder@@@Z@boost@@@signals2@boost@@Vmutex@45@@detail@signals2@boost@@@boost@@@std@@@std@@@2@@std@@@2@@std@@@std@@QAEPAU?$_Tree_node@U?$pair@$$CBU?$pair@W4slot_meta_group@detail@signals2@boost@@V?$optional@H@4@@std@@V?$_List_iterator@V?$_List_val@U?$_List_simple_types@V?$shared_ptr@V?$connection_body@U?$pair@W4slot_meta_group@detail@signals2@boost@@V?$optional@H@4@@std@@V?$slot1@XAAVKeyEvent@app@cinder@@V?$function@$$A6AXAAVKeyEvent@app@cinder@@@Z@boost@@@signals2@boost@@Vmutex@45@@detail@signals2@boost@@@boost@@@std@@@std@@@2@@std@@PAX@2@XZ 00418160 f i cinder:Window.obj
 0001:00017160       ?_Buyheadnode@?$_Tree_alloc@$0A@U?$_Tree_base_types@U?$pair@QBXUtss_data_node@detail@boost@@@std@@V?$allocator@U?$pair@QBXUtss_data_node@detail@boost@@@std@@@2@@std@@@std@@QAEPAU?$_Tree_node@U?$pair@QBXUtss_data_node@detail@boost@@@std@@PAX@2@XZ 00418160 f i libboost_thread-vc110-mt-s-1_53:thread.obj
 0001:00017160       ?_Buyheadnode@?$_Tree_alloc@$0A@U?$_Tree_base_types@U?$pair@$$CBU?$pair@W4slot_meta_group@detail@signals2@boost@@V?$optional@H@4@@std@@V?$_List_iterator@V?$_List_val@U?$_List_simple_types@V?$shared_ptr@V?$connection_body@U?$pair@W4slot_meta_group@detail@signals2@boost@@V?$optional@H@4@@std@@V?$slot1@XAAVMouseEvent@app@cinder@@V?$function@$$A6AXAAVMouseEvent@app@cinder@@@Z@boost@@@signals2@boost@@Vmutex@45@@detail@signals2@boost@@@boost@@@std@@@std@@@2@@std@@V?$allocator@U?$pair@$$CBU?$pair@W4slot_meta_group@detail@signals2@boost@@V?$optional@H@4@@std@@V?$_List_iterator@V?$_List_val@U?$_List_simple_types@V?$shared_ptr@V?$connection_body@U?$pair@W4slot_meta_group@detail@signals2@boost@@V?$optional@H@4@@std@@V?$slot1@XAAVMouseEvent@app@cinder@@V?$function@$$A6AXAAVMouseEvent@app@cinder@@@Z@boost@@@signals2@boost@@Vmutex@45@@detail@signals2@boost@@@boost@@@std@@@std@@@2@@std@@@2@@std@@@std@@QAEPAU?$_Tree_node@U?$pair@$$CBU?$pair@W4slot_meta_group@detail@signals2@boost@@V?$optional@H@4@@std@@V?$_List_iterator@V?$_List_val@U?$_List_simple_types@V?$shared_ptr@V?$connection_body@U?$pair@W4slot_meta_group@detail@signals2@boost@@V?$optional@H@4@@std@@V?$slot1@XAAVMouseEvent@app@cinder@@V?$function@$$A6AXAAVMouseEvent@app@cinder@@@Z@boost@@@signals2@boost@@Vmutex@45@@detail@signals2@boost@@@boost@@@std@@@std@@@2@@std@@PAX@2@XZ 00418160 f i cinder:Window.obj
 0001:00017160       ?_Buyheadnode@?$_Tree_alloc@$0A@U?$_Tree_base_types@U?$pair@$$CBU?$pair@W4slot_meta_group@detail@signals2@boost@@V?$optional@H@4@@std@@V?$_List_iterator@V?$_List_val@U?$_List_simple_types@V?$shared_ptr@V?$connection_body@U?$pair@W4slot_meta_group@detail@signals2@boost@@V?$optional@H@4@@std@@V?$slot1@XAAVTouchEvent@app@cinder@@V?$function@$$A6AXAAVTouchEvent@app@cinder@@@Z@boost@@@signals2@boost@@Vmutex@45@@detail@signals2@boost@@@boost@@@std@@@std@@@2@@std@@V?$allocator@U?$pair@$$CBU?$pair@W4slot_meta_group@detail@signals2@boost@@V?$optional@H@4@@std@@V?$_List_iterator@V?$_List_val@U?$_List_simple_types@V?$shared_ptr@V?$connection_body@U?$pair@W4slot_meta_group@detail@signals2@boost@@V?$optional@H@4@@std@@V?$slot1@XAAVTouchEvent@app@cinder@@V?$function@$$A6AXAAVTouchEvent@app@cinder@@@Z@boost@@@signals2@boost@@Vmutex@45@@detail@signals2@boost@@@boost@@@std@@@std@@@2@@std@@@2@@std@@@std@@QAEPAU?$_Tree_node@U?$pair@$$CBU?$pair@W4slot_meta_group@detail@signals2@boost@@V?$optional@H@4@@std@@V?$_List_iterator@V?$_List_val@U?$_List_simple_types@V?$shared_ptr@V?$connection_body@U?$pair@W4slot_meta_group@detail@signals2@boost@@V?$optional@H@4@@std@@V?$slot1@XAAVTouchEvent@app@cinder@@V?$function@$$A6AXAAVTouchEvent@app@cinder@@@Z@boost@@@signals2@boost@@Vmutex@45@@detail@signals2@boost@@@boost@@@std@@@std@@@2@@std@@PAX@2@XZ 00418160 f i cinder:Window.obj
 0001:00017190       ?_Erase@?$_Tree@V?$_Tmap_traits@U?$pair@W4slot_meta_group@detail@signals2@boost@@V?$optional@H@4@@std@@V?$_List_iterator@V?$_List_val@U?$_List_simple_types@V?$shared_ptr@V?$connection_body@U?$pair@W4slot_meta_group@detail@signals2@boost@@V?$optional@H@4@@std@@V?$slot1@XAAVFileDropEvent@app@cinder@@V?$function@$$A6AXAAVFileDropEvent@app@cinder@@@Z@boost@@@signals2@boost@@Vmutex@45@@detail@signals2@boost@@@boost@@@std@@@std@@@2@V?$group_key_less@HU?$less@H@std@@@detail@signals2@boost@@V?$allocator@U?$pair@$$CBU?$pair@W4slot_meta_group@detail@signals2@boost@@V?$optional@H@4@@std@@V?$_List_iterator@V?$_List_val@U?$_List_simple_types@V?$shared_ptr@V?$connection_body@U?$pair@W4slot_meta_group@detail@signals2@boost@@V?$optional@H@4@@std@@V?$slot1@XAAVFileDropEvent@app@cinder@@V?$function@$$A6AXAAVFileDropEvent@app@cinder@@@Z@boost@@@signals2@boost@@Vmutex@45@@detail@signals2@boost@@@boost@@@std@@@std@@@2@@std@@@2@$0A@@std@@@std@@IAEXPAU?$_Tree_node@U?$pair@$$CBU?$pair@W4slot_meta_group@detail@signals2@boost@@V?$optional@H@4@@std@@V?$_List_iterator@V?$_List_val@U?$_List_simple_types@V?$shared_ptr@V?$connection_body@U?$pair@W4slot_meta_group@detail@signals2@boost@@V?$optional@H@4@@std@@V?$slot1@XAAVFileDropEvent@app@cinder@@V?$function@$$A6AXAAVFileDropEvent@app@cinder@@@Z@boost@@@signals2@boost@@Vmutex@45@@detail@signals2@boost@@@boost@@@std@@@std@@@2@@std@@PAX@2@@Z 00418190 f i cinder:Window.obj
 0001:00017190       ?_Erase@?$_Tree@V?$_Tmap_traits@U?$pair@W4slot_meta_group@detail@signals2@boost@@V?$optional@H@4@@std@@V?$_List_iterator@V?$_List_val@U?$_List_simple_types@V?$shared_ptr@V?$connection_body@U?$pair@W4slot_meta_group@detail@signals2@boost@@V?$optional@H@4@@std@@V?$slot0@_NV?$function@$$A6A_NXZ@boost@@@signals2@boost@@Vmutex@45@@detail@signals2@boost@@@boost@@@std@@@std@@@2@V?$group_key_less@HU?$less@H@std@@@detail@signals2@boost@@V?$allocator@U?$pair@$$CBU?$pair@W4slot_meta_group@detail@signals2@boost@@V?$optional@H@4@@std@@V?$_List_iterator@V?$_List_val@U?$_List_simple_types@V?$shared_ptr@V?$connection_body@U?$pair@W4slot_meta_group@detail@signals2@boost@@V?$optional@H@4@@std@@V?$slot0@_NV?$function@$$A6A_NXZ@boost@@@signals2@boost@@Vmutex@45@@detail@signals2@boost@@@boost@@@std@@@std@@@2@@std@@@2@$0A@@std@@@std@@IAEXPAU?$_Tree_node@U?$pair@$$CBU?$pair@W4slot_meta_group@detail@signals2@boost@@V?$optional@H@4@@std@@V?$_List_iterator@V?$_List_val@U?$_List_simple_types@V?$shared_ptr@V?$connection_body@U?$pair@W4slot_meta_group@detail@signals2@boost@@V?$optional@H@4@@std@@V?$slot0@_NV?$function@$$A6A_NXZ@boost@@@signals2@boost@@Vmutex@45@@detail@signals2@boost@@@boost@@@std@@@std@@@2@@std@@PAX@2@@Z 00418190 f i cinder:AppBasic.obj
 0001:00017190       ?_Erase@?$_Tree@V?$_Tmap_traits@U?$pair@W4slot_meta_group@detail@signals2@boost@@V?$optional@H@4@@std@@V?$_List_iterator@V?$_List_val@U?$_List_simple_types@V?$shared_ptr@V?$connection_body@U?$pair@W4slot_meta_group@detail@signals2@boost@@V?$optional@H@4@@std@@V?$slot1@XAAVMouseEvent@app@cinder@@V?$function@$$A6AXAAVMouseEvent@app@cinder@@@Z@boost@@@signals2@boost@@Vmutex@45@@detail@signals2@boost@@@boost@@@std@@@std@@@2@V?$group_key_less@HU?$less@H@std@@@detail@signals2@boost@@V?$allocator@U?$pair@$$CBU?$pair@W4slot_meta_group@detail@signals2@boost@@V?$optional@H@4@@std@@V?$_List_iterator@V?$_List_val@U?$_List_simple_types@V?$shared_ptr@V?$connection_body@U?$pair@W4slot_meta_group@detail@signals2@boost@@V?$optional@H@4@@std@@V?$slot1@XAAVMouseEvent@app@cinder@@V?$function@$$A6AXAAVMouseEvent@app@cinder@@@Z@boost@@@signals2@boost@@Vmutex@45@@detail@signals2@boost@@@boost@@@std@@@std@@@2@@std@@@2@$0A@@std@@@std@@IAEXPAU?$_Tree_node@U?$pair@$$CBU?$pair@W4slot_meta_group@detail@signals2@boost@@V?$optional@H@4@@std@@V?$_List_iterator@V?$_List_val@U?$_List_simple_types@V?$shared_ptr@V?$connection_body@U?$pair@W4slot_meta_group@detail@signals2@boost@@V?$optional@H@4@@std@@V?$slot1@XAAVMouseEvent@app@cinder@@V?$function@$$A6AXAAVMouseEvent@app@cinder@@@Z@boost@@@signals2@boost@@Vmutex@45@@detail@signals2@boost@@@boost@@@std@@@std@@@2@@std@@PAX@2@@Z 00418190 f i cinder:Window.obj
 0001:00017190       ?_Erase@?$_Tree@V?$_Tmap_traits@U?$pair@W4slot_meta_group@detail@signals2@boost@@V?$optional@H@4@@std@@V?$_List_iterator@V?$_List_val@U?$_List_simple_types@V?$shared_ptr@V?$connection_body@U?$pair@W4slot_meta_group@detail@signals2@boost@@V?$optional@H@4@@std@@V?$slot0@XV?$function@$$A6AXXZ@boost@@@signals2@boost@@Vmutex@45@@detail@signals2@boost@@@boost@@@std@@@std@@@2@V?$group_key_less@HU?$less@H@std@@@detail@signals2@boost@@V?$allocator@U?$pair@$$CBU?$pair@W4slot_meta_group@detail@signals2@boost@@V?$optional@H@4@@std@@V?$_List_iterator@V?$_List_val@U?$_List_simple_types@V?$shared_ptr@V?$connection_body@U?$pair@W4slot_meta_group@detail@signals2@boost@@V?$optional@H@4@@std@@V?$slot0@XV?$function@$$A6AXXZ@boost@@@signals2@boost@@Vmutex@45@@detail@signals2@boost@@@boost@@@std@@@std@@@2@@std@@@2@$0A@@std@@@std@@IAEXPAU?$_Tree_node@U?$pair@$$CBU?$pair@W4slot_meta_group@detail@signals2@boost@@V?$optional@H@4@@std@@V?$_List_iterator@V?$_List_val@U?$_List_simple_types@V?$shared_ptr@V?$connection_body@U?$pair@W4slot_meta_group@detail@signals2@boost@@V?$optional@H@4@@std@@V?$slot0@XV?$function@$$A6AXXZ@boost@@@signals2@boost@@Vmutex@45@@detail@signals2@boost@@@boost@@@std@@@std@@@2@@std@@PAX@2@@Z 00418190 f i cinder:Window.obj
 0001:00017190       ?_Erase@?$_Tree@V?$_Tmap_traits@U?$pair@W4slot_meta_group@detail@signals2@boost@@V?$optional@H@4@@std@@V?$_List_iterator@V?$_List_val@U?$_List_simple_types@V?$shared_ptr@V?$connection_body@U?$pair@W4slot_meta_group@detail@signals2@boost@@V?$optional@H@4@@std@@V?$slot1@XAAVTouchEvent@app@cinder@@V?$function@$$A6AXAAVTouchEvent@app@cinder@@@Z@boost@@@signals2@boost@@Vmutex@45@@detail@signals2@boost@@@boost@@@std@@@std@@@2@V?$group_key_less@HU?$less@H@std@@@detail@signals2@boost@@V?$allocator@U?$pair@$$CBU?$pair@W4slot_meta_group@detail@signals2@boost@@V?$optional@H@4@@std@@V?$_List_iterator@V?$_List_val@U?$_List_simple_types@V?$shared_ptr@V?$connection_body@U?$pair@W4slot_meta_group@detail@signals2@boost@@V?$optional@H@4@@std@@V?$slot1@XAAVTouchEvent@app@cinder@@V?$function@$$A6AXAAVTouchEvent@app@cinder@@@Z@boost@@@signals2@boost@@Vmutex@45@@detail@signals2@boost@@@boost@@@std@@@std@@@2@@std@@@2@$0A@@std@@@std@@IAEXPAU?$_Tree_node@U?$pair@$$CBU?$pair@W4slot_meta_group@detail@signals2@boost@@V?$optional@H@4@@std@@V?$_List_iterator@V?$_List_val@U?$_List_simple_types@V?$shared_ptr@V?$connection_body@U?$pair@W4slot_meta_group@detail@signals2@boost@@V?$optional@H@4@@std@@V?$slot1@XAAVTouchEvent@app@cinder@@V?$function@$$A6AXAAVTouchEvent@app@cinder@@@Z@boost@@@signals2@boost@@Vmutex@45@@detail@signals2@boost@@@boost@@@std@@@std@@@2@@std@@PAX@2@@Z 00418190 f i cinder:Window.obj
 0001:00017190       ?_Erase@?$_Tree@V?$_Tmap_traits@U?$pair@W4slot_meta_group@detail@signals2@boost@@V?$optional@H@4@@std@@V?$_List_iterator@V?$_List_val@U?$_List_simple_types@V?$shared_ptr@V?$connection_body@U?$pair@W4slot_meta_group@detail@signals2@boost@@V?$optional@H@4@@std@@V?$slot1@XAAVKeyEvent@app@cinder@@V?$function@$$A6AXAAVKeyEvent@app@cinder@@@Z@boost@@@signals2@boost@@Vmutex@45@@detail@signals2@boost@@@boost@@@std@@@std@@@2@V?$group_key_less@HU?$less@H@std@@@detail@signals2@boost@@V?$allocator@U?$pair@$$CBU?$pair@W4slot_meta_group@detail@signals2@boost@@V?$optional@H@4@@std@@V?$_List_iterator@V?$_List_val@U?$_List_simple_types@V?$shared_ptr@V?$connection_body@U?$pair@W4slot_meta_group@detail@signals2@boost@@V?$optional@H@4@@std@@V?$slot1@XAAVKeyEvent@app@cinder@@V?$function@$$A6AXAAVKeyEvent@app@cinder@@@Z@boost@@@signals2@boost@@Vmutex@45@@detail@signals2@boost@@@boost@@@std@@@std@@@2@@std@@@2@$0A@@std@@@std@@IAEXPAU?$_Tree_node@U?$pair@$$CBU?$pair@W4slot_meta_group@detail@signals2@boost@@V?$optional@H@4@@std@@V?$_List_iterator@V?$_List_val@U?$_List_simple_types@V?$shared_ptr@V?$connection_body@U?$pair@W4slot_meta_group@detail@signals2@boost@@V?$optional@H@4@@std@@V?$slot1@XAAVKeyEvent@app@cinder@@V?$function@$$A6AXAAVKeyEvent@app@cinder@@@Z@boost@@@signals2@boost@@Vmutex@45@@detail@signals2@boost@@@boost@@@std@@@std@@@2@@std@@PAX@2@@Z 00418190 f i cinder:Window.obj
 0001:000171e0       ?_Get_deleter@?$_Ref_count_del@V?$basic_ostream@DU?$char_traits@D@std@@@std@@V<lambda_69588d13dcacf0fdf4c116f96accf98f>@@@std@@UBEPAXABVtype_info@@@Z 004181e0 f i cinder:AppBasic.obj
 0001:00017210       ?_Min@?$_Tree_val@U?$_Tree_simple_types@U?$pair@$$CBU?$pair@W4slot_meta_group@detail@signals2@boost@@V?$optional@H@4@@std@@V?$_List_iterator@V?$_List_val@U?$_List_simple_types@V?$shared_ptr@V?$connection_body@U?$pair@W4slot_meta_group@detail@signals2@boost@@V?$optional@H@4@@std@@V?$slot0@_NV?$function@$$A6A_NXZ@boost@@@signals2@boost@@Vmutex@45@@detail@signals2@boost@@@boost@@@std@@@std@@@2@@std@@@std@@@std@@SAPAU?$_Tree_node@U?$pair@$$CBU?$pair@W4slot_meta_group@detail@signals2@boost@@V?$optional@H@4@@std@@V?$_List_iterator@V?$_List_val@U?$_List_simple_types@V?$shared_ptr@V?$connection_body@U?$pair@W4slot_meta_group@detail@signals2@boost@@V?$optional@H@4@@std@@V?$slot0@_NV?$function@$$A6A_NXZ@boost@@@signals2@boost@@Vmutex@45@@detail@signals2@boost@@@boost@@@std@@@std@@@2@@std@@PAX@2@PAU32@@Z 00418210 f i cinder:AppBasic.obj
 0001:00017210       ?_Min@?$_Tree_val@U?$_Tree_simple_types@U?$pair@$$CBHU?$pair@P6A?AV?$shared_ptr@VImageTarget@cinder@@@std@@V?$shared_ptr@VDataTarget@cinder@@@2@V?$shared_ptr@VImageSource@cinder@@@2@VOptions@ImageTarget@cinder@@ABV?$basic_string@DU?$char_traits@D@std@@V?$allocator@D@2@@2@@ZV82@@std@@@std@@@std@@@std@@SAPAU?$_Tree_node@U?$pair@$$CBHU?$pair@P6A?AV?$shared_ptr@VImageTarget@cinder@@@std@@V?$shared_ptr@VDataTarget@cinder@@@2@V?$shared_ptr@VImageSource@cinder@@@2@VOptions@ImageTarget@cinder@@ABV?$basic_string@DU?$char_traits@D@std@@V?$allocator@D@2@@2@@ZV82@@std@@@std@@PAX@2@PAU32@@Z 00418210 f i cinder:ImageIo.obj
 0001:00017210       ?_Min@?$_Tree_val@U?$_Tree_simple_types@U?$pair@QAXV?$shared_ptr@VTimelineItem@cinder@@@std@@@std@@@std@@@std@@SAPAU?$_Tree_node@U?$pair@QAXV?$shared_ptr@VTimelineItem@cinder@@@std@@@std@@PAX@2@PAU32@@Z 00418210 f i cinder:Timeline.obj
 0001:00017210       ?_Min@?$_Tree_val@U?$_Tree_simple_types@U?$pair@$$CBU?$pair@W4slot_meta_group@detail@signals2@boost@@V?$optional@H@4@@std@@V?$_List_iterator@V?$_List_val@U?$_List_simple_types@V?$shared_ptr@V?$connection_body@U?$pair@W4slot_meta_group@detail@signals2@boost@@V?$optional@H@4@@std@@V?$slot1@XAAVKeyEvent@app@cinder@@V?$function@$$A6AXAAVKeyEvent@app@cinder@@@Z@boost@@@signals2@boost@@Vmutex@45@@detail@signals2@boost@@@boost@@@std@@@std@@@2@@std@@@std@@@std@@SAPAU?$_Tree_node@U?$pair@$$CBU?$pair@W4slot_meta_group@detail@signals2@boost@@V?$optional@H@4@@std@@V?$_List_iterator@V?$_List_val@U?$_List_simple_types@V?$shared_ptr@V?$connection_body@U?$pair@W4slot_meta_group@detail@signals2@boost@@V?$optional@H@4@@std@@V?$slot1@XAAVKeyEvent@app@cinder@@V?$function@$$A6AXAAVKeyEvent@app@cinder@@@Z@boost@@@signals2@boost@@Vmutex@45@@detail@signals2@boost@@@boost@@@std@@@std@@@2@@std@@PAX@2@PAU32@@Z 00418210 f i cinder:Window.obj
 0001:00017210       ?_Min@?$_Tree_val@U?$_Tree_simple_types@U?$pair@$$CBU?$pair@W4slot_meta_group@detail@signals2@boost@@V?$optional@H@4@@std@@V?$_List_iterator@V?$_List_val@U?$_List_simple_types@V?$shared_ptr@V?$connection_body@U?$pair@W4slot_meta_group@detail@signals2@boost@@V?$optional@H@4@@std@@V?$slot1@XAAVFileDropEvent@app@cinder@@V?$function@$$A6AXAAVFileDropEvent@app@cinder@@@Z@boost@@@signals2@boost@@Vmutex@45@@detail@signals2@boost@@@boost@@@std@@@std@@@2@@std@@@std@@@std@@SAPAU?$_Tree_node@U?$pair@$$CBU?$pair@W4slot_meta_group@detail@signals2@boost@@V?$optional@H@4@@std@@V?$_List_iterator@V?$_List_val@U?$_List_simple_types@V?$shared_ptr@V?$connection_body@U?$pair@W4slot_meta_group@detail@signals2@boost@@V?$optional@H@4@@std@@V?$slot1@XAAVFileDropEvent@app@cinder@@V?$function@$$A6AXAAVFileDropEvent@app@cinder@@@Z@boost@@@signals2@boost@@Vmutex@45@@detail@signals2@boost@@@boost@@@std@@@std@@@2@@std@@PAX@2@PAU32@@Z 00418210 f i cinder:Window.obj
 0001:00017210       ?_Min@?$_Tree_val@U?$_Tree_simple_types@U?$pair@$$CBV?$basic_string@DU?$char_traits@D@std@@V?$allocator@D@2@@std@@PBU_GUID@@@std@@@std@@@std@@SAPAU?$_Tree_node@U?$pair@$$CBV?$basic_string@DU?$char_traits@D@std@@V?$allocator@D@2@@std@@PBU_GUID@@@std@@PAX@2@PAU32@@Z 00418210 f i cinder:ImageTargetFileWic.obj
 0001:00017210       ?_Min@?$_Tree_val@U?$_Tree_simple_types@U?$pair@$$CBU?$pair@W4slot_meta_group@detail@signals2@boost@@V?$optional@H@4@@std@@V?$_List_iterator@V?$_List_val@U?$_List_simple_types@V?$shared_ptr@V?$connection_body@U?$pair@W4slot_meta_group@detail@signals2@boost@@V?$optional@H@4@@std@@V?$slot1@XAAVTouchEvent@app@cinder@@V?$function@$$A6AXAAVTouchEvent@app@cinder@@@Z@boost@@@signals2@boost@@Vmutex@45@@detail@signals2@boost@@@boost@@@std@@@std@@@2@@std@@@std@@@std@@SAPAU?$_Tree_node@U?$pair@$$CBU?$pair@W4slot_meta_group@detail@signals2@boost@@V?$optional@H@4@@std@@V?$_List_iterator@V?$_List_val@U?$_List_simple_types@V?$shared_ptr@V?$connection_body@U?$pair@W4slot_meta_group@detail@signals2@boost@@V?$optional@H@4@@std@@V?$slot1@XAAVTouchEvent@app@cinder@@V?$function@$$A6AXAAVTouchEvent@app@cinder@@@Z@boost@@@signals2@boost@@Vmutex@45@@detail@signals2@boost@@@boost@@@std@@@std@@@2@@std@@PAX@2@PAU32@@Z 00418210 f i cinder:Window.obj
 0001:00017210       ?_Min@?$_Tree_val@U?$_Tree_simple_types@U?$pair@$$CBU?$pair@W4slot_meta_group@detail@signals2@boost@@V?$optional@H@4@@std@@V?$_List_iterator@V?$_List_val@U?$_List_simple_types@V?$shared_ptr@V?$connection_body@U?$pair@W4slot_meta_group@detail@signals2@boost@@V?$optional@H@4@@std@@V?$slot0@XV?$function@$$A6AXXZ@boost@@@signals2@boost@@Vmutex@45@@detail@signals2@boost@@@boost@@@std@@@std@@@2@@std@@@std@@@std@@SAPAU?$_Tree_node@U?$pair@$$CBU?$pair@W4slot_meta_group@detail@signals2@boost@@V?$optional@H@4@@std@@V?$_List_iterator@V?$_List_val@U?$_List_simple_types@V?$shared_ptr@V?$connection_body@U?$pair@W4slot_meta_group@detail@signals2@boost@@V?$optional@H@4@@std@@V?$slot0@XV?$function@$$A6AXXZ@boost@@@signals2@boost@@Vmutex@45@@detail@signals2@boost@@@boost@@@std@@@std@@@2@@std@@PAX@2@PAU32@@Z 00418210 f i cinder:Window.obj
 0001:00017210       ?_Min@?$_Tree_val@U?$_Tree_simple_types@U?$pair@$$CBU?$pair@W4slot_meta_group@detail@signals2@boost@@V?$optional@H@4@@std@@V?$_List_iterator@V?$_List_val@U?$_List_simple_types@V?$shared_ptr@V?$connection_body@U?$pair@W4slot_meta_group@detail@signals2@boost@@V?$optional@H@4@@std@@V?$slot1@XAAVMouseEvent@app@cinder@@V?$function@$$A6AXAAVMouseEvent@app@cinder@@@Z@boost@@@signals2@boost@@Vmutex@45@@detail@signals2@boost@@@boost@@@std@@@std@@@2@@std@@@std@@@std@@SAPAU?$_Tree_node@U?$pair@$$CBU?$pair@W4slot_meta_group@detail@signals2@boost@@V?$optional@H@4@@std@@V?$_List_iterator@V?$_List_val@U?$_List_simple_types@V?$shared_ptr@V?$connection_body@U?$pair@W4slot_meta_group@detail@signals2@boost@@V?$optional@H@4@@std@@V?$slot1@XAAVMouseEvent@app@cinder@@V?$function@$$A6AXAAVMouseEvent@app@cinder@@@Z@boost@@@signals2@boost@@Vmutex@45@@detail@signals2@boost@@@boost@@@std@@@std@@@2@@std@@PAX@2@PAU32@@Z 00418210 f i cinder:Window.obj
 0001:00017210       ?_Min@?$_Tree_val@U?$_Tree_simple_types@U?$pair@$$CBV?$basic_string@DU?$char_traits@D@std@@V?$allocator@D@2@@std@@V?$multimap@HU?$pair@P6A?AV?$shared_ptr@VImageTarget@cinder@@@std@@V?$shared_ptr@VDataTarget@cinder@@@2@V?$shared_ptr@VImageSource@cinder@@@2@VOptions@ImageTarget@cinder@@ABV?$basic_string@DU?$char_traits@D@std@@V?$allocator@D@2@@2@@ZV82@@std@@U?$less@H@2@V?$allocator@U?$pair@$$CBHU?$pair@P6A?AV?$shared_ptr@VImageTarget@cinder@@@std@@V?$shared_ptr@VDataTarget@cinder@@@2@V?$shared_ptr@VImageSource@cinder@@@2@VOptions@ImageTarget@cinder@@ABV?$basic_string@DU?$char_traits@D@std@@V?$allocator@D@2@@2@@ZV82@@std@@@std@@@2@@2@@std@@@std@@@std@@SAPAU?$_Tree_node@U?$pair@$$CBV?$basic_string@DU?$char_traits@D@std@@V?$allocator@D@2@@std@@V?$multimap@HU?$pair@P6A?AV?$shared_ptr@VImageTarget@cinder@@@std@@V?$shared_ptr@VDataTarget@cinder@@@2@V?$shared_ptr@VImageSource@cinder@@@2@VOptions@ImageTarget@cinder@@ABV?$basic_string@DU?$char_traits@D@std@@V?$allocator@D@2@@2@@ZV82@@std@@U?$less@H@2@V?$allocator@U?$pair@$$CBHU?$pair@P6A?AV?$shared_ptr@VImageTarget@cinder@@@std@@V?$shared_ptr@VDataTarget@cinder@@@2@V?$shared_ptr@VImageSource@cinder@@@2@VOptions@ImageTarget@cinder@@ABV?$basic_string@DU?$char_traits@D@std@@V?$allocator@D@2@@2@@ZV82@@std@@@std@@@2@@2@@std@@PAX@2@PAU32@@Z 00418210 f i cinder:ImageIo.obj
 0001:00017210       ?_Min@?$_Tree_val@U?$_Tree_simple_types@U?$pair@$$CBKV?$Vec2@M@cinder@@@std@@@std@@@std@@SAPAU?$_Tree_node@U?$pair@$$CBKV?$Vec2@M@cinder@@@std@@PAX@2@PAU32@@Z 00418210 f i cinder:AppImplMsw.obj
 0001:00017210       ?_Min@?$_Tree_val@U?$_Tree_simple_types@U?$pair@$$CBHP6A?AV?$shared_ptr@VImageSource@cinder@@@std@@V?$shared_ptr@VDataSource@cinder@@@2@VOptions@ImageSource@cinder@@@Z@std@@@std@@@std@@SAPAU?$_Tree_node@U?$pair@$$CBHP6A?AV?$shared_ptr@VImageSource@cinder@@@std@@V?$shared_ptr@VDataSource@cinder@@@2@VOptions@ImageSource@cinder@@@Z@std@@PAX@2@PAU32@@Z 00418210 f i cinder:ImageIo.obj
 0001:00017210       ?_Min@?$_Tree_val@U?$_Tree_simple_types@U?$pair@$$CBV?$basic_string@DU?$char_traits@D@std@@V?$allocator@D@2@@std@@V?$multimap@HP6A?AV?$shared_ptr@VImageSource@cinder@@@std@@V?$shared_ptr@VDataSource@cinder@@@2@VOptions@ImageSource@cinder@@@ZU?$less@H@2@V?$allocator@U?$pair@$$CBHP6A?AV?$shared_ptr@VImageSource@cinder@@@std@@V?$shared_ptr@VDataSource@cinder@@@2@VOptions@ImageSource@cinder@@@Z@std@@@2@@2@@std@@@std@@@std@@SAPAU?$_Tree_node@U?$pair@$$CBV?$basic_string@DU?$char_traits@D@std@@V?$allocator@D@2@@std@@V?$multimap@HP6A?AV?$shared_ptr@VImageSource@cinder@@@std@@V?$shared_ptr@VDataSource@cinder@@@2@VOptions@ImageSource@cinder@@@ZU?$less@H@2@V?$allocator@U?$pair@$$CBHP6A?AV?$shared_ptr@VImageSource@cinder@@@std@@V?$shared_ptr@VDataSource@cinder@@@2@VOptions@ImageSource@cinder@@@Z@std@@@2@@2@@std@@PAX@2@PAU32@@Z 00418210 f i cinder:ImageIo.obj
 0001:00017230       ?_Reallocate@?$vector@V?$basic_string@DU?$char_traits@D@std@@V?$allocator@D@2@@std@@V?$allocator@V?$basic_string@DU?$char_traits@D@std@@V?$allocator@D@2@@std@@@2@@std@@IAEXI@Z 00418230 f i cinder:AppBasic.obj
 0001:00017320       ?_Reserve@?$vector@V?$basic_string@DU?$char_traits@D@std@@V?$allocator@D@2@@std@@V?$allocator@V?$basic_string@DU?$char_traits@D@std@@V?$allocator@D@2@@std@@@2@@std@@IAEXI@Z 00418320 f i cinder:AppBasic.obj
 0001:000173d0       ?_Unchecked_erase@?$list@V?$shared_ptr@V?$connection_body@U?$pair@W4slot_meta_group@detail@signals2@boost@@V?$optional@H@4@@std@@V?$slot1@XAAVKeyEvent@app@cinder@@V?$function@$$A6AXAAVKeyEvent@app@cinder@@@Z@boost@@@signals2@boost@@Vmutex@45@@detail@signals2@boost@@@boost@@V?$allocator@V?$shared_ptr@V?$connection_body@U?$pair@W4slot_meta_group@detail@signals2@boost@@V?$optional@H@4@@std@@V?$slot1@XAAVKeyEvent@app@cinder@@V?$function@$$A6AXAAVKeyEvent@app@cinder@@@Z@boost@@@signals2@boost@@Vmutex@45@@detail@signals2@boost@@@boost@@@std@@@std@@QAEXV?$_List_unchecked_const_iterator@V?$_List_val@U?$_List_simple_types@V?$shared_ptr@V?$connection_body@U?$pair@W4slot_meta_group@detail@signals2@boost@@V?$optional@H@4@@std@@V?$slot1@XAAVKeyEvent@app@cinder@@V?$function@$$A6AXAAVKeyEvent@app@cinder@@@Z@boost@@@signals2@boost@@Vmutex@45@@detail@signals2@boost@@@boost@@@std@@@std@@U_Iterator_base0@2@@2@@Z 004183d0 f i cinder:Window.obj
 0001:000173d0       ?_Unchecked_erase@?$list@V?$shared_ptr@V?$connection_body@U?$pair@W4slot_meta_group@detail@signals2@boost@@V?$optional@H@4@@std@@V?$slot0@XV?$function@$$A6AXXZ@boost@@@signals2@boost@@Vmutex@45@@detail@signals2@boost@@@boost@@V?$allocator@V?$shared_ptr@V?$connection_body@U?$pair@W4slot_meta_group@detail@signals2@boost@@V?$optional@H@4@@std@@V?$slot0@XV?$function@$$A6AXXZ@boost@@@signals2@boost@@Vmutex@45@@detail@signals2@boost@@@boost@@@std@@@std@@QAEXV?$_List_unchecked_const_iterator@V?$_List_val@U?$_List_simple_types@V?$shared_ptr@V?$connection_body@U?$pair@W4slot_meta_group@detail@signals2@boost@@V?$optional@H@4@@std@@V?$slot0@XV?$function@$$A6AXXZ@boost@@@signals2@boost@@Vmutex@45@@detail@signals2@boost@@@boost@@@std@@@std@@U_Iterator_base0@2@@2@@Z 004183d0 f i cinder:Window.obj
 0001:000173d0       ?_Unchecked_erase@?$list@V?$shared_ptr@V?$connection_body@U?$pair@W4slot_meta_group@detail@signals2@boost@@V?$optional@H@4@@std@@V?$slot1@XAAVTouchEvent@app@cinder@@V?$function@$$A6AXAAVTouchEvent@app@cinder@@@Z@boost@@@signals2@boost@@Vmutex@45@@detail@signals2@boost@@@boost@@V?$allocator@V?$shared_ptr@V?$connection_body@U?$pair@W4slot_meta_group@detail@signals2@boost@@V?$optional@H@4@@std@@V?$slot1@XAAVTouchEvent@app@cinder@@V?$function@$$A6AXAAVTouchEvent@app@cinder@@@Z@boost@@@signals2@boost@@Vmutex@45@@detail@signals2@boost@@@boost@@@std@@@std@@QAEXV?$_List_unchecked_const_iterator@V?$_List_val@U?$_List_simple_types@V?$shared_ptr@V?$connection_body@U?$pair@W4slot_meta_group@detail@signals2@boost@@V?$optional@H@4@@std@@V?$slot1@XAAVTouchEvent@app@cinder@@V?$function@$$A6AXAAVTouchEvent@app@cinder@@@Z@boost@@@signals2@boost@@Vmutex@45@@detail@signals2@boost@@@boost@@@std@@@std@@U_Iterator_base0@2@@2@@Z 004183d0 f i cinder:Window.obj
 0001:000173d0       ?_Unchecked_erase@?$list@V?$shared_ptr@V?$connection_body@U?$pair@W4slot_meta_group@detail@signals2@boost@@V?$optional@H@4@@std@@V?$slot1@XAAVMouseEvent@app@cinder@@V?$function@$$A6AXAAVMouseEvent@app@cinder@@@Z@boost@@@signals2@boost@@Vmutex@45@@detail@signals2@boost@@@boost@@V?$allocator@V?$shared_ptr@V?$connection_body@U?$pair@W4slot_meta_group@detail@signals2@boost@@V?$optional@H@4@@std@@V?$slot1@XAAVMouseEvent@app@cinder@@V?$function@$$A6AXAAVMouseEvent@app@cinder@@@Z@boost@@@signals2@boost@@Vmutex@45@@detail@signals2@boost@@@boost@@@std@@@std@@QAEXV?$_List_unchecked_const_iterator@V?$_List_val@U?$_List_simple_types@V?$shared_ptr@V?$connection_body@U?$pair@W4slot_meta_group@detail@signals2@boost@@V?$optional@H@4@@std@@V?$slot1@XAAVMouseEvent@app@cinder@@V?$function@$$A6AXAAVMouseEvent@app@cinder@@@Z@boost@@@signals2@boost@@Vmutex@45@@detail@signals2@boost@@@boost@@@std@@@std@@U_Iterator_base0@2@@2@@Z 004183d0 f i cinder:Window.obj
 0001:000173d0       ?_Unchecked_erase@?$list@V?$shared_ptr@V?$connection_body@U?$pair@W4slot_meta_group@detail@signals2@boost@@V?$optional@H@4@@std@@V?$slot1@XAAVFileDropEvent@app@cinder@@V?$function@$$A6AXAAVFileDropEvent@app@cinder@@@Z@boost@@@signals2@boost@@Vmutex@45@@detail@signals2@boost@@@boost@@V?$allocator@V?$shared_ptr@V?$connection_body@U?$pair@W4slot_meta_group@detail@signals2@boost@@V?$optional@H@4@@std@@V?$slot1@XAAVFileDropEvent@app@cinder@@V?$function@$$A6AXAAVFileDropEvent@app@cinder@@@Z@boost@@@signals2@boost@@Vmutex@45@@detail@signals2@boost@@@boost@@@std@@@std@@QAEXV?$_List_unchecked_const_iterator@V?$_List_val@U?$_List_simple_types@V?$shared_ptr@V?$connection_body@U?$pair@W4slot_meta_group@detail@signals2@boost@@V?$optional@H@4@@std@@V?$slot1@XAAVFileDropEvent@app@cinder@@V?$function@$$A6AXAAVFileDropEvent@app@cinder@@@Z@boost@@@signals2@boost@@Vmutex@45@@detail@signals2@boost@@@boost@@@std@@@std@@U_Iterator_base0@2@@2@@Z 004183d0 f i cinder:Window.obj
 0001:000173d0       ?_Unchecked_erase@?$list@V?$shared_ptr@V?$connection_body@U?$pair@W4slot_meta_group@detail@signals2@boost@@V?$optional@H@4@@std@@V?$slot0@_NV?$function@$$A6A_NXZ@boost@@@signals2@boost@@Vmutex@45@@detail@signals2@boost@@@boost@@V?$allocator@V?$shared_ptr@V?$connection_body@U?$pair@W4slot_meta_group@detail@signals2@boost@@V?$optional@H@4@@std@@V?$slot0@_NV?$function@$$A6A_NXZ@boost@@@signals2@boost@@Vmutex@45@@detail@signals2@boost@@@boost@@@std@@@std@@QAEXV?$_List_unchecked_const_iterator@V?$_List_val@U?$_List_simple_types@V?$shared_ptr@V?$connection_body@U?$pair@W4slot_meta_group@detail@signals2@boost@@V?$optional@H@4@@std@@V?$slot0@_NV?$function@$$A6A_NXZ@boost@@@signals2@boost@@Vmutex@45@@detail@signals2@boost@@@boost@@@std@@@std@@U_Iterator_base0@2@@2@@Z 004183d0 f i cinder:AppBasic.obj
 0001:00017430       ?assign@?$basic_string@_WU?$char_traits@_W@std@@V?$allocator@_W@2@@std@@QAEAAV12@PB_WI@Z 00418430 f i cinder:AppBasic.obj
 0001:00017530       ?clear@?$_Tree@V?$_Tmap_traits@U?$pair@W4slot_meta_group@detail@signals2@boost@@V?$optional@H@4@@std@@V?$_List_iterator@V?$_List_val@U?$_List_simple_types@V?$shared_ptr@V?$connection_body@U?$pair@W4slot_meta_group@detail@signals2@boost@@V?$optional@H@4@@std@@V?$slot1@XAAVFileDropEvent@app@cinder@@V?$function@$$A6AXAAVFileDropEvent@app@cinder@@@Z@boost@@@signals2@boost@@Vmutex@45@@detail@signals2@boost@@@boost@@@std@@@std@@@2@V?$group_key_less@HU?$less@H@std@@@detail@signals2@boost@@V?$allocator@U?$pair@$$CBU?$pair@W4slot_meta_group@detail@signals2@boost@@V?$optional@H@4@@std@@V?$_List_iterator@V?$_List_val@U?$_List_simple_types@V?$shared_ptr@V?$connection_body@U?$pair@W4slot_meta_group@detail@signals2@boost@@V?$optional@H@4@@std@@V?$slot1@XAAVFileDropEvent@app@cinder@@V?$function@$$A6AXAAVFileDropEvent@app@cinder@@@Z@boost@@@signals2@boost@@Vmutex@45@@detail@signals2@boost@@@boost@@@std@@@std@@@2@@std@@@2@$0A@@std@@@std@@QAEXXZ 00418530 f i cinder:Window.obj
 0001:00017530       ?clear@?$_Tree@V?$_Tmap_traits@U?$pair@W4slot_meta_group@detail@signals2@boost@@V?$optional@H@4@@std@@V?$_List_iterator@V?$_List_val@U?$_List_simple_types@V?$shared_ptr@V?$connection_body@U?$pair@W4slot_meta_group@detail@signals2@boost@@V?$optional@H@4@@std@@V?$slot0@XV?$function@$$A6AXXZ@boost@@@signals2@boost@@Vmutex@45@@detail@signals2@boost@@@boost@@@std@@@std@@@2@V?$group_key_less@HU?$less@H@std@@@detail@signals2@boost@@V?$allocator@U?$pair@$$CBU?$pair@W4slot_meta_group@detail@signals2@boost@@V?$optional@H@4@@std@@V?$_List_iterator@V?$_List_val@U?$_List_simple_types@V?$shared_ptr@V?$connection_body@U?$pair@W4slot_meta_group@detail@signals2@boost@@V?$optional@H@4@@std@@V?$slot0@XV?$function@$$A6AXXZ@boost@@@signals2@boost@@Vmutex@45@@detail@signals2@boost@@@boost@@@std@@@std@@@2@@std@@@2@$0A@@std@@@std@@QAEXXZ 00418530 f i cinder:Window.obj
